
main.exe:     file format elf32-sparc


Disassembly of section .text:

40000000 <_trap_table>:
40000000:	0d 10 00 27 	sethi  %hi(0x40009c00), %g6
40000004:	81 c1 a1 d4 	jmp  %g6 + 0x1d4	! 40009dd4 <_start_svt_weak>
40000008:	01 00 00 00 	nop 

4000000c <_start>:
4000000c:	9d e3 bf c0 	save  %sp, -64, %sp
40000010:	05 10 00 31 	sethi  %hi(0x4000c400), %g2
40000014:	84 10 a3 20 	or  %g2, 0x320, %g2	! 4000c720 <__edata>
40000018:	07 10 00 32 	sethi  %hi(0x4000c800), %g3
4000001c:	86 10 e3 58 	or  %g3, 0x358, %g3	! 4000cb58 <__end>
40000020:	82 10 00 00 	mov  %g0, %g1
40000024:	86 20 c0 02 	sub  %g3, %g2, %g3
40000028:	86 a0 e0 08 	subcc  %g3, 8, %g3

4000002c <zerobss>:
4000002c:	06 80 00 05 	bl  40000040 <zerobss+0x14>
40000030:	01 00 00 00 	nop 
40000034:	c0 38 80 03 	std  %g0, [ %g2 + %g3 ]
40000038:	10 bf ff fd 	b  4000002c <zerobss>
4000003c:	86 a0 e0 08 	subcc  %g3, 8, %g3
40000040:	11 10 00 32 	sethi  %hi(0x4000c800), %o0
40000044:	90 12 23 58 	or  %o0, 0x358, %o0	! 4000cb58 <__end>
40000048:	c0 22 00 00 	clr  [ %o0 ]
4000004c:	40 00 26 fd 	call  40009c40 <bdinit2>
40000050:	01 00 00 00 	nop 
40000054:	40 00 26 fd 	call  40009c48 <prelibchook>
40000058:	01 00 00 00 	nop 
4000005c:	40 00 27 98 	call  40009ebc <_call_initcalls>
40000060:	01 00 00 00 	nop 
40000064:	11 10 00 2f 	sethi  %hi(0x4000bc00), %o0
40000068:	90 12 20 3c 	or  %o0, 0x3c, %o0	! 4000bc3c <_fini>
4000006c:	40 00 01 8b 	call  40000698 <_atexit>
40000070:	01 00 00 00 	nop 
40000074:	40 00 2e eb 	call  4000bc20 <_init>
40000078:	01 00 00 00 	nop 
4000007c:	40 00 01 25 	call  40000510 <main>
40000080:	01 00 00 00 	nop 
40000084:	40 00 26 f3 	call  40009c50 <_exit>
40000088:	01 00 00 00 	nop 
4000008c:	81 c7 e0 08 	ret 
40000090:	81 e8 00 00 	restore 

40000094 <__do_global_dtors_aux>:
40000094:	9d e3 bf a0 	save  %sp, -96, %sp
40000098:	21 10 00 31 	sethi  %hi(0x4000c400), %l0
4000009c:	c2 0c 23 20 	ldub  [ %l0 + 0x320 ], %g1	! 4000c720 <__edata>
400000a0:	80 a0 60 00 	cmp  %g1, 0
400000a4:	12 80 00 22 	bne  4000012c <__do_global_dtors_aux+0x98>
400000a8:	23 10 00 31 	sethi  %hi(0x4000c400), %l1
400000ac:	c2 04 63 24 	ld  [ %l1 + 0x324 ], %g1	! 4000c724 <dtor_idx.4025>
400000b0:	27 10 00 2d 	sethi  %hi(0x4000b400), %l3
400000b4:	25 10 00 2d 	sethi  %hi(0x4000b400), %l2
400000b8:	a6 14 e3 24 	or  %l3, 0x324, %l3
400000bc:	a4 14 a3 28 	or  %l2, 0x328, %l2
400000c0:	a4 24 80 13 	sub  %l2, %l3, %l2
400000c4:	a5 3c a0 02 	sra  %l2, 2, %l2
400000c8:	a4 04 bf ff 	add  %l2, -1, %l2
400000cc:	80 a0 40 12 	cmp  %g1, %l2
400000d0:	3a 80 00 0e 	bcc,a   40000108 <__do_global_dtors_aux+0x74>
400000d4:	03 00 00 00 	sethi  %hi(0), %g1
400000d8:	a2 14 63 24 	or  %l1, 0x324, %l1
400000dc:	82 00 60 01 	inc  %g1
400000e0:	85 28 60 02 	sll  %g1, 2, %g2
400000e4:	c2 24 40 00 	st  %g1, [ %l1 ]
400000e8:	c2 04 c0 02 	ld  [ %l3 + %g2 ], %g1
400000ec:	9f c0 40 00 	call  %g1
400000f0:	01 00 00 00 	nop 
400000f4:	c2 04 40 00 	ld  [ %l1 ], %g1
400000f8:	80 a0 40 12 	cmp  %g1, %l2
400000fc:	0a bf ff f9 	bcs  400000e0 <__do_global_dtors_aux+0x4c>
40000100:	82 00 60 01 	inc  %g1
40000104:	03 00 00 00 	sethi  %hi(0), %g1
40000108:	82 10 60 00 	mov  %g1, %g1	! 0 <_trap_table-0x40000000>
4000010c:	80 a0 60 00 	cmp  %g1, 0
40000110:	02 80 00 06 	be  40000128 <__do_global_dtors_aux+0x94>
40000114:	82 10 20 01 	mov  1, %g1
40000118:	11 10 00 2a 	sethi  %hi(0x4000a800), %o0
4000011c:	6f ff ff b9 	call  0 <_trap_table-0x40000000>
40000120:	90 12 21 80 	or  %o0, 0x180, %o0	! 4000a980 <__EH_FRAME_BEGIN__>
40000124:	82 10 20 01 	mov  1, %g1
40000128:	c2 2c 23 20 	stb  %g1, [ %l0 + 0x320 ]
4000012c:	81 c7 e0 08 	ret 
40000130:	81 e8 00 00 	restore 

40000134 <call___do_global_dtors_aux>:
40000134:	9d e3 bf a0 	save  %sp, -96, %sp
40000138:	81 c7 e0 08 	ret 
4000013c:	81 e8 00 00 	restore 

40000140 <frame_dummy>:
40000140:	9d e3 bf a0 	save  %sp, -96, %sp
40000144:	03 00 00 00 	sethi  %hi(0), %g1
40000148:	82 10 60 00 	mov  %g1, %g1	! 0 <_trap_table-0x40000000>
4000014c:	80 a0 60 00 	cmp  %g1, 0
40000150:	22 80 00 08 	be,a   40000170 <frame_dummy+0x30>
40000154:	11 10 00 32 	sethi  %hi(0x4000c800), %o0
40000158:	11 10 00 2a 	sethi  %hi(0x4000a800), %o0
4000015c:	13 10 00 31 	sethi  %hi(0x4000c400), %o1
40000160:	90 12 21 80 	or  %o0, 0x180, %o0
40000164:	6f ff ff a7 	call  0 <_trap_table-0x40000000>
40000168:	92 12 63 28 	or  %o1, 0x328, %o1
4000016c:	11 10 00 32 	sethi  %hi(0x4000c800), %o0
40000170:	c2 02 23 58 	ld  [ %o0 + 0x358 ], %g1	! 4000cb58 <__end>
40000174:	80 a0 60 00 	cmp  %g1, 0
40000178:	02 80 00 09 	be  4000019c <frame_dummy+0x5c>
4000017c:	90 12 23 58 	or  %o0, 0x358, %o0
40000180:	03 00 00 00 	sethi  %hi(0), %g1
40000184:	82 10 60 00 	mov  %g1, %g1	! 0 <_trap_table-0x40000000>
40000188:	80 a0 60 00 	cmp  %g1, 0
4000018c:	02 80 00 04 	be  4000019c <frame_dummy+0x5c>
40000190:	01 00 00 00 	nop 
40000194:	9f c0 40 00 	call  %g1
40000198:	01 00 00 00 	nop 
4000019c:	81 c7 e0 08 	ret 
400001a0:	81 e8 00 00 	restore 

400001a4 <call_frame_dummy>:
400001a4:	9d e3 bf a0 	save  %sp, -96, %sp
400001a8:	81 c7 e0 08 	ret 
400001ac:	81 e8 00 00 	restore 

400001b0 <pnpinit>:
400001b0:	81 c3 e0 08 	retl 
400001b4:	01 00 00 00 	nop 

400001b8 <printarr>:
400001b8:	9d e3 bf 98 	save  %sp, -104, %sp
400001bc:	f0 27 a0 44 	st  %i0, [ %fp + 0x44 ]
400001c0:	c0 27 bf fc 	clr  [ %fp + -4 ]
400001c4:	90 10 20 7c 	mov  0x7c, %o0
400001c8:	40 00 01 7d 	call  400007bc <putchar>
400001cc:	01 00 00 00 	nop 
400001d0:	c0 27 bf fc 	clr  [ %fp + -4 ]
400001d4:	10 80 00 0f 	b  40000210 <printarr+0x58>
400001d8:	01 00 00 00 	nop 
400001dc:	c2 07 bf fc 	ld  [ %fp + -4 ], %g1
400001e0:	c4 07 a0 44 	ld  [ %fp + 0x44 ], %g2
400001e4:	82 00 80 01 	add  %g2, %g1, %g1
400001e8:	c2 08 40 00 	ldub  [ %g1 ], %g1
400001ec:	82 08 60 ff 	and  %g1, 0xff, %g1
400001f0:	05 10 00 2d 	sethi  %hi(0x4000b400), %g2
400001f4:	90 10 a3 30 	or  %g2, 0x330, %o0	! 4000b730 <___DTOR_END__>
400001f8:	92 10 00 01 	mov  %g1, %o1
400001fc:	40 00 01 2f 	call  400006b8 <printf>
40000200:	01 00 00 00 	nop 
40000204:	c2 07 bf fc 	ld  [ %fp + -4 ], %g1
40000208:	82 00 60 01 	inc  %g1
4000020c:	c2 27 bf fc 	st  %g1, [ %fp + -4 ]
40000210:	c2 07 bf fc 	ld  [ %fp + -4 ], %g1
40000214:	80 a0 60 09 	cmp  %g1, 9
40000218:	04 bf ff f1 	ble  400001dc <printarr+0x24>
4000021c:	01 00 00 00 	nop 
40000220:	90 10 20 0a 	mov  0xa, %o0	! a <_trap_table-0x3ffffff6>
40000224:	40 00 01 66 	call  400007bc <putchar>
40000228:	01 00 00 00 	nop 
4000022c:	81 e8 00 00 	restore 
40000230:	81 c3 e0 08 	retl 
40000234:	01 00 00 00 	nop 

40000238 <checkarr>:
40000238:	9d e3 bf 98 	save  %sp, -104, %sp
4000023c:	f0 27 a0 44 	st  %i0, [ %fp + 0x44 ]
40000240:	c0 27 bf fc 	clr  [ %fp + -4 ]
40000244:	10 80 00 16 	b  4000029c <checkarr+0x64>
40000248:	01 00 00 00 	nop 
4000024c:	c2 07 bf fc 	ld  [ %fp + -4 ], %g1
40000250:	c4 07 a0 44 	ld  [ %fp + 0x44 ], %g2
40000254:	82 00 80 01 	add  %g2, %g1, %g1
40000258:	c4 08 40 00 	ldub  [ %g1 ], %g2
4000025c:	c2 07 bf fc 	ld  [ %fp + -4 ], %g1
40000260:	82 00 60 01 	inc  %g1
40000264:	c6 07 a0 44 	ld  [ %fp + 0x44 ], %g3
40000268:	82 00 c0 01 	add  %g3, %g1, %g1
4000026c:	c2 08 40 00 	ldub  [ %g1 ], %g1
40000270:	84 08 a0 ff 	and  %g2, 0xff, %g2
40000274:	82 08 60 ff 	and  %g1, 0xff, %g1
40000278:	80 a0 80 01 	cmp  %g2, %g1
4000027c:	08 80 00 05 	bleu  40000290 <checkarr+0x58>
40000280:	01 00 00 00 	nop 
40000284:	82 10 3f ff 	mov  -1, %g1	! ffffffff <__end+0xbfff34a7>
40000288:	10 80 00 0a 	b  400002b0 <checkarr+0x78>
4000028c:	01 00 00 00 	nop 
40000290:	c2 07 bf fc 	ld  [ %fp + -4 ], %g1
40000294:	82 00 60 01 	inc  %g1
40000298:	c2 27 bf fc 	st  %g1, [ %fp + -4 ]
4000029c:	c2 07 bf fc 	ld  [ %fp + -4 ], %g1
400002a0:	80 a0 60 08 	cmp  %g1, 8
400002a4:	04 bf ff ea 	ble  4000024c <checkarr+0x14>
400002a8:	01 00 00 00 	nop 
400002ac:	82 10 20 00 	clr  %g1	! 0 <_trap_table-0x40000000>
400002b0:	b0 10 00 01 	mov  %g1, %i0
400002b4:	81 e8 00 00 	restore 
400002b8:	81 c3 e0 08 	retl 
400002bc:	01 00 00 00 	nop 

400002c0 <fillArray>:
400002c0:	9d e3 bf 98 	save  %sp, -104, %sp
400002c4:	f0 27 a0 44 	st  %i0, [ %fp + 0x44 ]
400002c8:	c0 27 bf fc 	clr  [ %fp + -4 ]
400002cc:	c0 27 bf fc 	clr  [ %fp + -4 ]
400002d0:	10 80 00 0c 	b  40000300 <fillArray+0x40>
400002d4:	01 00 00 00 	nop 
400002d8:	c2 07 bf fc 	ld  [ %fp + -4 ], %g1
400002dc:	c4 07 a0 44 	ld  [ %fp + 0x44 ], %g2
400002e0:	82 00 80 01 	add  %g2, %g1, %g1
400002e4:	c4 07 bf fc 	ld  [ %fp + -4 ], %g2
400002e8:	86 10 20 09 	mov  9, %g3
400002ec:	84 20 c0 02 	sub  %g3, %g2, %g2
400002f0:	c4 28 40 00 	stb  %g2, [ %g1 ]
400002f4:	c2 07 bf fc 	ld  [ %fp + -4 ], %g1
400002f8:	82 00 60 01 	inc  %g1
400002fc:	c2 27 bf fc 	st  %g1, [ %fp + -4 ]
40000300:	c2 07 bf fc 	ld  [ %fp + -4 ], %g1
40000304:	80 a0 60 09 	cmp  %g1, 9
40000308:	04 bf ff f4 	ble  400002d8 <fillArray+0x18>
4000030c:	01 00 00 00 	nop 
40000310:	81 e8 00 00 	restore 
40000314:	81 c3 e0 08 	retl 
40000318:	01 00 00 00 	nop 

4000031c <bubblesort>:
4000031c:	9d e3 bf 88 	save  %sp, -120, %sp
40000320:	f0 27 a0 44 	st  %i0, [ %fp + 0x44 ]
40000324:	82 10 20 01 	mov  1, %g1
40000328:	c2 27 bf ec 	st  %g1, [ %fp + -20 ]
4000032c:	c0 27 bf f0 	clr  [ %fp + -16 ]
40000330:	10 80 00 37 	b  4000040c <bubblesort+0xf0>
40000334:	01 00 00 00 	nop 
40000338:	c0 27 bf ec 	clr  [ %fp + -20 ]
4000033c:	c0 27 bf f4 	clr  [ %fp + -12 ]
40000340:	10 80 00 29 	b  400003e4 <bubblesort+0xc8>
40000344:	01 00 00 00 	nop 
40000348:	c2 07 bf f4 	ld  [ %fp + -12 ], %g1
4000034c:	82 00 60 01 	inc  %g1
40000350:	c2 27 bf f8 	st  %g1, [ %fp + -8 ]
40000354:	c2 07 bf f4 	ld  [ %fp + -12 ], %g1
40000358:	c4 07 a0 44 	ld  [ %fp + 0x44 ], %g2
4000035c:	82 00 80 01 	add  %g2, %g1, %g1
40000360:	c4 08 40 00 	ldub  [ %g1 ], %g2
40000364:	c2 07 bf f8 	ld  [ %fp + -8 ], %g1
40000368:	c6 07 a0 44 	ld  [ %fp + 0x44 ], %g3
4000036c:	82 00 c0 01 	add  %g3, %g1, %g1
40000370:	c2 08 40 00 	ldub  [ %g1 ], %g1
40000374:	84 08 a0 ff 	and  %g2, 0xff, %g2
40000378:	82 08 60 ff 	and  %g1, 0xff, %g1
4000037c:	80 a0 80 01 	cmp  %g2, %g1
40000380:	08 80 00 16 	bleu  400003d8 <bubblesort+0xbc>
40000384:	01 00 00 00 	nop 
40000388:	c2 07 bf f4 	ld  [ %fp + -12 ], %g1
4000038c:	c4 07 a0 44 	ld  [ %fp + 0x44 ], %g2
40000390:	82 00 80 01 	add  %g2, %g1, %g1
40000394:	c2 08 40 00 	ldub  [ %g1 ], %g1
40000398:	c2 2f bf ff 	stb  %g1, [ %fp + -1 ]
4000039c:	c2 07 bf f4 	ld  [ %fp + -12 ], %g1
400003a0:	c4 07 a0 44 	ld  [ %fp + 0x44 ], %g2
400003a4:	82 00 80 01 	add  %g2, %g1, %g1
400003a8:	c4 07 bf f8 	ld  [ %fp + -8 ], %g2
400003ac:	c6 07 a0 44 	ld  [ %fp + 0x44 ], %g3
400003b0:	84 00 c0 02 	add  %g3, %g2, %g2
400003b4:	c4 08 80 00 	ldub  [ %g2 ], %g2
400003b8:	c4 28 40 00 	stb  %g2, [ %g1 ]
400003bc:	c2 07 bf f8 	ld  [ %fp + -8 ], %g1
400003c0:	c4 07 a0 44 	ld  [ %fp + 0x44 ], %g2
400003c4:	82 00 80 01 	add  %g2, %g1, %g1
400003c8:	c4 0f bf ff 	ldub  [ %fp + -1 ], %g2
400003cc:	c4 28 40 00 	stb  %g2, [ %g1 ]
400003d0:	82 10 20 01 	mov  1, %g1
400003d4:	c2 27 bf ec 	st  %g1, [ %fp + -20 ]
400003d8:	c2 07 bf f4 	ld  [ %fp + -12 ], %g1
400003dc:	82 00 60 01 	inc  %g1
400003e0:	c2 27 bf f4 	st  %g1, [ %fp + -12 ]
400003e4:	84 10 20 09 	mov  9, %g2
400003e8:	c2 07 bf f0 	ld  [ %fp + -16 ], %g1
400003ec:	84 20 80 01 	sub  %g2, %g1, %g2
400003f0:	c2 07 bf f4 	ld  [ %fp + -12 ], %g1
400003f4:	80 a0 80 01 	cmp  %g2, %g1
400003f8:	14 bf ff d4 	bg  40000348 <bubblesort+0x2c>
400003fc:	01 00 00 00 	nop 
40000400:	c2 07 bf f0 	ld  [ %fp + -16 ], %g1
40000404:	82 00 60 01 	inc  %g1
40000408:	c2 27 bf f0 	st  %g1, [ %fp + -16 ]
4000040c:	c2 07 bf f0 	ld  [ %fp + -16 ], %g1
40000410:	80 a0 60 09 	cmp  %g1, 9
40000414:	14 80 00 06 	bg  4000042c <bubblesort+0x110>
40000418:	01 00 00 00 	nop 
4000041c:	c2 07 bf ec 	ld  [ %fp + -20 ], %g1
40000420:	80 a0 60 00 	cmp  %g1, 0
40000424:	12 bf ff c5 	bne  40000338 <bubblesort+0x1c>
40000428:	01 00 00 00 	nop 
4000042c:	81 e8 00 00 	restore 
40000430:	81 c3 e0 08 	retl 
40000434:	01 00 00 00 	nop 

40000438 <get_asr17>:
40000438:	9d e3 bf 98 	save  %sp, -104, %sp
4000043c:	83 44 40 00 	rd  %asr17, %g1
40000440:	c2 27 bf fc 	st  %g1, [ %fp + -4 ]
40000444:	c2 07 bf fc 	ld  [ %fp + -4 ], %g1
40000448:	b0 10 00 01 	mov  %g1, %i0
4000044c:	81 e8 00 00 	restore 
40000450:	81 c3 e0 08 	retl 
40000454:	01 00 00 00 	nop 

40000458 <get_proc_index>:
40000458:	9d e3 bf a0 	save  %sp, -96, %sp
4000045c:	7f ff ff f7 	call  40000438 <get_asr17>
40000460:	01 00 00 00 	nop 
40000464:	82 10 00 08 	mov  %o0, %g1
40000468:	83 30 60 1c 	srl  %g1, 0x1c, %g1
4000046c:	b0 10 00 01 	mov  %g1, %i0
40000470:	81 e8 00 00 	restore 
40000474:	81 c3 e0 08 	retl 
40000478:	01 00 00 00 	nop 

4000047c <start_processor>:
4000047c:	9d e3 bf a0 	save  %sp, -96, %sp
40000480:	f0 27 a0 44 	st  %i0, [ %fp + 0x44 ]
40000484:	c2 07 a0 44 	ld  [ %fp + 0x44 ], %g1
40000488:	82 08 60 0f 	and  %g1, 0xf, %g1
4000048c:	c2 27 a0 44 	st  %g1, [ %fp + 0x44 ]
40000490:	03 30 00 00 	sethi  %hi(0xc0000000), %g1
40000494:	82 10 62 10 	or  %g1, 0x210, %g1	! c0000210 <__end+0x7fff36b8>
40000498:	05 30 00 00 	sethi  %hi(0xc0000000), %g2
4000049c:	84 10 a2 10 	or  %g2, 0x210, %g2	! c0000210 <__end+0x7fff36b8>
400004a0:	c6 00 80 00 	ld  [ %g2 ], %g3
400004a4:	88 10 20 01 	mov  1, %g4
400004a8:	c4 07 a0 44 	ld  [ %fp + 0x44 ], %g2
400004ac:	85 29 00 02 	sll  %g4, %g2, %g2
400004b0:	84 10 c0 02 	or  %g3, %g2, %g2
400004b4:	c4 20 40 00 	st  %g2, [ %g1 ]
400004b8:	81 e8 00 00 	restore 
400004bc:	81 c3 e0 08 	retl 
400004c0:	01 00 00 00 	nop 

400004c4 <stop_processor>:
400004c4:	9d e3 bf a0 	save  %sp, -96, %sp
400004c8:	f0 27 a0 44 	st  %i0, [ %fp + 0x44 ]
400004cc:	c2 07 a0 44 	ld  [ %fp + 0x44 ], %g1
400004d0:	82 08 60 0f 	and  %g1, 0xf, %g1
400004d4:	c2 27 a0 44 	st  %g1, [ %fp + 0x44 ]
400004d8:	03 30 00 00 	sethi  %hi(0xc0000000), %g1
400004dc:	82 10 62 10 	or  %g1, 0x210, %g1	! c0000210 <__end+0x7fff36b8>
400004e0:	05 30 00 00 	sethi  %hi(0xc0000000), %g2
400004e4:	84 10 a2 10 	or  %g2, 0x210, %g2	! c0000210 <__end+0x7fff36b8>
400004e8:	c6 00 80 00 	ld  [ %g2 ], %g3
400004ec:	88 10 20 01 	mov  1, %g4
400004f0:	c4 07 a0 44 	ld  [ %fp + 0x44 ], %g2
400004f4:	85 29 00 02 	sll  %g4, %g2, %g2
400004f8:	84 38 00 02 	xnor  %g0, %g2, %g2
400004fc:	84 08 c0 02 	and  %g3, %g2, %g2
40000500:	c4 20 40 00 	st  %g2, [ %g1 ]
40000504:	81 e8 00 00 	restore 
40000508:	81 c3 e0 08 	retl 
4000050c:	01 00 00 00 	nop 

40000510 <main>:
40000510:	9d e3 bf 80 	save  %sp, -128, %sp
40000514:	7f ff ff d1 	call  40000458 <get_proc_index>
40000518:	01 00 00 00 	nop 
4000051c:	82 10 00 08 	mov  %o0, %g1
40000520:	80 a0 60 00 	cmp  %g1, 0
40000524:	12 80 00 33 	bne  400005f0 <main+0xe0>
40000528:	01 00 00 00 	nop 
4000052c:	c0 27 bf fc 	clr  [ %fp + -4 ]
40000530:	90 10 20 01 	mov  1, %o0
40000534:	7f ff ff d2 	call  4000047c <start_processor>
40000538:	01 00 00 00 	nop 
4000053c:	c0 27 bf fc 	clr  [ %fp + -4 ]
40000540:	10 80 00 05 	b  40000554 <main+0x44>
40000544:	01 00 00 00 	nop 
40000548:	c2 07 bf fc 	ld  [ %fp + -4 ], %g1
4000054c:	82 00 60 01 	inc  %g1
40000550:	c2 27 bf fc 	st  %g1, [ %fp + -4 ]
40000554:	c2 07 bf fc 	ld  [ %fp + -4 ], %g1
40000558:	80 a0 61 f4 	cmp  %g1, 0x1f4
4000055c:	04 bf ff fb 	ble  40000548 <main+0x38>
40000560:	01 00 00 00 	nop 
40000564:	03 10 00 2f 	sethi  %hi(0x4000bc00), %g1
40000568:	82 10 60 5c 	or  %g1, 0x5c, %g1	! 4000bc5c <c0Running>
4000056c:	84 10 20 01 	mov  1, %g2
40000570:	c4 28 40 00 	stb  %g2, [ %g1 ]
40000574:	03 10 00 31 	sethi  %hi(0x4000c400), %g1
40000578:	82 10 63 40 	or  %g1, 0x340, %g1	! 4000c740 <C0total>
4000057c:	c0 20 40 00 	clr  [ %g1 ]
40000580:	82 07 bf f0 	add  %fp, -16, %g1
40000584:	90 10 00 01 	mov  %g1, %o0
40000588:	7f ff ff 4e 	call  400002c0 <fillArray>
4000058c:	01 00 00 00 	nop 
40000590:	82 07 bf f0 	add  %fp, -16, %g1
40000594:	90 10 00 01 	mov  %g1, %o0
40000598:	7f ff ff 61 	call  4000031c <bubblesort>
4000059c:	01 00 00 00 	nop 
400005a0:	03 10 00 31 	sethi  %hi(0x4000c400), %g1
400005a4:	82 10 63 40 	or  %g1, 0x340, %g1	! 4000c740 <C0total>
400005a8:	c2 00 40 00 	ld  [ %g1 ], %g1
400005ac:	84 00 60 01 	add  %g1, 1, %g2
400005b0:	03 10 00 31 	sethi  %hi(0x4000c400), %g1
400005b4:	82 10 63 40 	or  %g1, 0x340, %g1	! 4000c740 <C0total>
400005b8:	c4 20 40 00 	st  %g2, [ %g1 ]
400005bc:	82 07 bf f0 	add  %fp, -16, %g1
400005c0:	90 10 00 01 	mov  %g1, %o0
400005c4:	7f ff ff 1d 	call  40000238 <checkarr>
400005c8:	01 00 00 00 	nop 
400005cc:	82 10 00 08 	mov  %o0, %g1
400005d0:	80 a0 60 00 	cmp  %g1, 0
400005d4:	12 bf ff eb 	bne  40000580 <main+0x70>
400005d8:	01 00 00 00 	nop 
400005dc:	03 10 00 2f 	sethi  %hi(0x4000bc00), %g1
400005e0:	82 10 60 5c 	or  %g1, 0x5c, %g1	! 4000bc5c <c0Running>
400005e4:	c0 28 40 00 	clrb  [ %g1 ]
400005e8:	10 80 00 1f 	b  40000664 <main+0x154>
400005ec:	01 00 00 00 	nop 
400005f0:	03 10 00 2f 	sethi  %hi(0x4000bc00), %g1
400005f4:	82 10 60 5d 	or  %g1, 0x5d, %g1	! 4000bc5d <c1Running>
400005f8:	84 10 20 01 	mov  1, %g2
400005fc:	c4 28 40 00 	stb  %g2, [ %g1 ]
40000600:	03 10 00 31 	sethi  %hi(0x4000c400), %g1
40000604:	82 10 63 44 	or  %g1, 0x344, %g1	! 4000c744 <C1total>
40000608:	c0 20 40 00 	clr  [ %g1 ]
4000060c:	82 07 bf e0 	add  %fp, -32, %g1
40000610:	90 10 00 01 	mov  %g1, %o0
40000614:	7f ff ff 2b 	call  400002c0 <fillArray>
40000618:	01 00 00 00 	nop 
4000061c:	82 07 bf e0 	add  %fp, -32, %g1
40000620:	90 10 00 01 	mov  %g1, %o0
40000624:	7f ff ff 3e 	call  4000031c <bubblesort>
40000628:	01 00 00 00 	nop 
4000062c:	03 10 00 31 	sethi  %hi(0x4000c400), %g1
40000630:	82 10 63 44 	or  %g1, 0x344, %g1	! 4000c744 <C1total>
40000634:	c2 00 40 00 	ld  [ %g1 ], %g1
40000638:	84 00 60 01 	add  %g1, 1, %g2
4000063c:	03 10 00 31 	sethi  %hi(0x4000c400), %g1
40000640:	82 10 63 44 	or  %g1, 0x344, %g1	! 4000c744 <C1total>
40000644:	c4 20 40 00 	st  %g2, [ %g1 ]
40000648:	03 10 00 2f 	sethi  %hi(0x4000bc00), %g1
4000064c:	82 10 60 5d 	or  %g1, 0x5d, %g1	! 4000bc5d <c1Running>
40000650:	c2 08 40 00 	ldub  [ %g1 ], %g1
40000654:	82 08 60 ff 	and  %g1, 0xff, %g1
40000658:	80 a0 60 01 	cmp  %g1, 1
4000065c:	02 bf ff ec 	be  4000060c <main+0xfc>
40000660:	01 00 00 00 	nop 
40000664:	82 10 20 00 	clr  %g1	! 0 <_trap_table-0x40000000>
40000668:	b0 10 00 01 	mov  %g1, %i0
4000066c:	81 e8 00 00 	restore 
40000670:	81 c3 e0 08 	retl 
40000674:	01 00 00 00 	nop 

40000678 <testandset>:
40000678:	03 3f ff ff 	sethi  %hi(0xfffffc00), %g1
4000067c:	82 00 63 c0 	add  %g1, 0x3c0, %g1	! ffffffc0 <__end+0xbfff3468>
40000680:	9d e3 80 01 	save  %sp, %g1, %sp
40000684:	90 10 00 18 	mov  %i0, %o0
40000688:	d2 6a 00 00 	ldstub  [ %o0 ], %o1
4000068c:	b0 10 00 09 	mov  %o1, %i0
40000690:	81 c7 e0 08 	ret 
40000694:	81 e8 00 00 	restore 

40000698 <_atexit>:
40000698:	92 10 00 08 	mov  %o0, %o1
4000069c:	94 10 20 00 	clr  %o2
400006a0:	90 10 20 00 	clr  %o0
400006a4:	96 10 20 00 	clr  %o3
400006a8:	82 13 c0 00 	mov  %o7, %g1
400006ac:	40 00 0a 35 	call  40002f80 <__register_exitproc>
400006b0:	9e 10 40 00 	mov  %g1, %o7
400006b4:	01 00 00 00 	nop 

400006b8 <printf>:
400006b8:	9d e3 bf 98 	save  %sp, -104, %sp
400006bc:	f2 27 a0 48 	st  %i1, [ %fp + 0x48 ]
400006c0:	f4 27 a0 4c 	st  %i2, [ %fp + 0x4c ]
400006c4:	f6 27 a0 50 	st  %i3, [ %fp + 0x50 ]
400006c8:	f8 27 a0 54 	st  %i4, [ %fp + 0x54 ]
400006cc:	fa 27 a0 58 	st  %i5, [ %fp + 0x58 ]
400006d0:	03 10 00 2f 	sethi  %hi(0x4000bc00), %g1
400006d4:	c2 00 60 d8 	ld  [ %g1 + 0xd8 ], %g1	! 4000bcd8 <_impure_ptr>
400006d8:	d0 00 60 08 	ld  [ %g1 + 8 ], %o0
400006dc:	92 10 00 18 	mov  %i0, %o1
400006e0:	94 07 a0 48 	add  %fp, 0x48, %o2
400006e4:	40 00 08 0f 	call  40002720 <vfprintf>
400006e8:	d4 27 bf fc 	st  %o2, [ %fp + -4 ]
400006ec:	81 c7 e0 08 	ret 
400006f0:	91 e8 00 08 	restore  %g0, %o0, %o0

400006f4 <_printf_r>:
400006f4:	9d e3 bf 98 	save  %sp, -104, %sp
400006f8:	f4 27 a0 4c 	st  %i2, [ %fp + 0x4c ]
400006fc:	f6 27 a0 50 	st  %i3, [ %fp + 0x50 ]
40000700:	f8 27 a0 54 	st  %i4, [ %fp + 0x54 ]
40000704:	fa 27 a0 58 	st  %i5, [ %fp + 0x58 ]
40000708:	96 07 a0 4c 	add  %fp, 0x4c, %o3
4000070c:	90 10 00 18 	mov  %i0, %o0
40000710:	d2 06 20 08 	ld  [ %i0 + 8 ], %o1
40000714:	94 10 00 19 	mov  %i1, %o2
40000718:	40 00 00 97 	call  40000974 <_vfprintf_r>
4000071c:	d6 27 bf fc 	st  %o3, [ %fp + -4 ]
40000720:	81 c7 e0 08 	ret 
40000724:	91 e8 00 08 	restore  %g0, %o0, %o0

40000728 <_putchar_r>:
40000728:	c2 02 20 08 	ld  [ %o0 + 8 ], %g1
4000072c:	c4 00 60 08 	ld  [ %g1 + 8 ], %g2
40000730:	84 00 bf ff 	add  %g2, -1, %g2
40000734:	80 a0 a0 00 	cmp  %g2, 0
40000738:	06 80 00 0a 	bl  40000760 <_putchar_r+0x38>
4000073c:	c4 20 60 08 	st  %g2, [ %g1 + 8 ]
40000740:	c2 00 40 00 	ld  [ %g1 ], %g1
40000744:	d2 28 40 00 	stb  %o1, [ %g1 ]
40000748:	c2 02 20 08 	ld  [ %o0 + 8 ], %g1
4000074c:	c4 00 40 00 	ld  [ %g1 ], %g2
40000750:	86 00 a0 01 	add  %g2, 1, %g3
40000754:	d0 08 80 00 	ldub  [ %g2 ], %o0
40000758:	81 c3 e0 08 	retl 
4000075c:	c6 20 40 00 	st  %g3, [ %g1 ]
40000760:	c6 00 60 18 	ld  [ %g1 + 0x18 ], %g3
40000764:	80 a0 80 03 	cmp  %g2, %g3
40000768:	26 80 00 0c 	bl,a   40000798 <_putchar_r+0x70>
4000076c:	90 10 00 09 	mov  %o1, %o0
40000770:	c2 00 40 00 	ld  [ %g1 ], %g1
40000774:	d2 28 40 00 	stb  %o1, [ %g1 ]
40000778:	d2 02 20 08 	ld  [ %o0 + 8 ], %o1
4000077c:	c2 02 40 00 	ld  [ %o1 ], %g1
40000780:	d0 08 40 00 	ldub  [ %g1 ], %o0
40000784:	80 a2 20 0a 	cmp  %o0, 0xa
40000788:	02 80 00 08 	be  400007a8 <_putchar_r+0x80>
4000078c:	82 00 60 01 	inc  %g1
40000790:	81 c3 e0 08 	retl 
40000794:	c2 22 40 00 	st  %g1, [ %o1 ]
40000798:	92 10 00 01 	mov  %g1, %o1
4000079c:	82 13 c0 00 	mov  %o7, %g1
400007a0:	40 00 07 eb 	call  4000274c <__swbuf>
400007a4:	9e 10 40 00 	mov  %g1, %o7
400007a8:	90 10 20 0a 	mov  0xa, %o0
400007ac:	82 13 c0 00 	mov  %o7, %g1
400007b0:	40 00 07 e7 	call  4000274c <__swbuf>
400007b4:	9e 10 40 00 	mov  %g1, %o7
400007b8:	01 00 00 00 	nop 

400007bc <putchar>:
400007bc:	92 10 00 08 	mov  %o0, %o1
400007c0:	03 10 00 2f 	sethi  %hi(0x4000bc00), %g1
400007c4:	d0 00 60 d8 	ld  [ %g1 + 0xd8 ], %o0	! 4000bcd8 <_impure_ptr>
400007c8:	82 13 c0 00 	mov  %o7, %g1
400007cc:	7f ff ff d7 	call  40000728 <_putchar_r>
400007d0:	9e 10 40 00 	mov  %g1, %o7
400007d4:	01 00 00 00 	nop 
400007d8:	40 00 1a 10 	call  40007018 <_s2b+0x4c>
400007dc:	40 00 0a e8 	call  4000337c <_dtoa_r+0xb8>
400007e0:	40 00 0a e8 	call  40003380 <_dtoa_r+0xbc>
400007e4:	40 00 17 f4 	call  400067b4 <_d2b+0x38>
400007e8:	40 00 0a e8 	call  40003388 <_dtoa_r+0xc4>
400007ec:	40 00 0a e8 	call  4000338c <_dtoa_r+0xc8>
400007f0:	40 00 0a e8 	call  40003390 <_dtoa_r+0xcc>
400007f4:	40 00 0a e8 	call  40003394 <_dtoa_r+0xd0>
400007f8:	40 00 0a e8 	call  40003398 <_dtoa_r+0xd4>
400007fc:	40 00 0a e8 	call  4000339c <_dtoa_r+0xd8>
40000800:	40 00 17 64 	call  40006590 <_b2d+0xa4>
40000804:	40 00 18 10 	call  40006844 <_d2b+0xc8>
40000808:	40 00 0a e8 	call  400033a8 <_dtoa_r+0xe4>
4000080c:	40 00 17 78 	call  400065ec <_ratio+0xc>
40000810:	40 00 19 14 	call  40006c60 <_multiply+0xd4>
40000814:	40 00 0a e8 	call  400033b4 <_dtoa_r+0xf0>
40000818:	40 00 18 20 	call  40006898 <_d2b+0x11c>
4000081c:	40 00 18 30 	call  400068dc <__mdiff+0x38>
40000820:	40 00 18 30 	call  400068e0 <__mdiff+0x3c>
40000824:	40 00 18 30 	call  400068e4 <__mdiff+0x40>
40000828:	40 00 18 30 	call  400068e8 <__mdiff+0x44>
4000082c:	40 00 18 30 	call  400068ec <__mdiff+0x48>
40000830:	40 00 18 30 	call  400068f0 <__mdiff+0x4c>
40000834:	40 00 18 30 	call  400068f4 <__mdiff+0x50>
40000838:	40 00 18 30 	call  400068f8 <__mdiff+0x54>
4000083c:	40 00 18 30 	call  400068fc <__mdiff+0x58>
40000840:	40 00 0a e8 	call  400033e0 <_dtoa_r+0x11c>
40000844:	40 00 0a e8 	call  400033e4 <_dtoa_r+0x120>
40000848:	40 00 0a e8 	call  400033e8 <_dtoa_r+0x124>
4000084c:	40 00 0a e8 	call  400033ec <_dtoa_r+0x128>
40000850:	40 00 0a e8 	call  400033f0 <_dtoa_r+0x12c>
40000854:	40 00 0a e8 	call  400033f4 <_dtoa_r+0x130>
40000858:	40 00 0a e8 	call  400033f8 <_dtoa_r+0x134>
4000085c:	40 00 0a e8 	call  400033fc <_dtoa_r+0x138>
40000860:	40 00 0a e8 	call  40003400 <_dtoa_r+0x13c>
40000864:	40 00 17 88 	call  40006684 <_mprec_log10+0x8>
40000868:	40 00 0e f8 	call  40004448 <_dtoa_r+0x1184>
4000086c:	40 00 1a 40 	call  4000716c <_realloc_r+0xd0>
40000870:	40 00 0a e8 	call  40003410 <_dtoa_r+0x14c>
40000874:	40 00 1a 40 	call  40007174 <_realloc_r+0xd8>
40000878:	40 00 0a e8 	call  40003418 <_dtoa_r+0x154>
4000087c:	40 00 0a e8 	call  4000341c <_dtoa_r+0x158>
40000880:	40 00 0a e8 	call  40003420 <_dtoa_r+0x15c>
40000884:	40 00 0a e8 	call  40003424 <_dtoa_r+0x160>
40000888:	40 00 1a 30 	call  40007148 <_realloc_r+0xac>
4000088c:	40 00 0a e8 	call  4000342c <_dtoa_r+0x168>
40000890:	40 00 0a e8 	call  40003430 <_dtoa_r+0x16c>
40000894:	40 00 0e b0 	call  40004354 <_dtoa_r+0x1090>
40000898:	40 00 0a e8 	call  40003438 <_dtoa_r+0x174>
4000089c:	40 00 0a e8 	call  4000343c <_dtoa_r+0x178>
400008a0:	40 00 0a e8 	call  40003440 <_dtoa_r+0x17c>
400008a4:	40 00 19 80 	call  40006ea4 <_multadd+0xd4>
400008a8:	40 00 0a e8 	call  40003448 <_dtoa_r+0x184>
400008ac:	40 00 0d e0 	call  4000402c <_dtoa_r+0xd68>
400008b0:	40 00 0a e8 	call  40003450 <_dtoa_r+0x18c>
400008b4:	40 00 0a e8 	call  40003454 <_dtoa_r+0x190>
400008b8:	40 00 19 f0 	call  40007078 <_s2b+0xac>
400008bc:	40 00 0a e8 	call  4000345c <_dtoa_r+0x198>
400008c0:	40 00 0a e8 	call  40003460 <_dtoa_r+0x19c>
400008c4:	40 00 0a e8 	call  40003464 <_dtoa_r+0x1a0>
400008c8:	40 00 0a e8 	call  40003468 <_dtoa_r+0x1a4>
400008cc:	40 00 0a e8 	call  4000346c <_dtoa_r+0x1a8>
400008d0:	40 00 0a e8 	call  40003470 <_dtoa_r+0x1ac>
400008d4:	40 00 0a e8 	call  40003474 <_dtoa_r+0x1b0>
400008d8:	40 00 0a e8 	call  40003478 <_dtoa_r+0x1b4>
400008dc:	40 00 0a e8 	call  4000347c <_dtoa_r+0x1b8>
400008e0:	40 00 0a e8 	call  40003480 <_dtoa_r+0x1bc>
400008e4:	40 00 17 88 	call  40006704 <_Balloc+0x30>
400008e8:	40 00 0e fc 	call  400044d8 <_dtoa_r+0x1214>
400008ec:	40 00 1a 40 	call  400071ec <_realloc_r+0x150>
400008f0:	40 00 1a 40 	call  400071f0 <_realloc_r+0x154>
400008f4:	40 00 1a 40 	call  400071f4 <_realloc_r+0x158>
400008f8:	40 00 19 70 	call  40006eb8 <_pow5mult>
400008fc:	40 00 0e fc 	call  400044ec <_dtoa_r+0x1228>
40000900:	40 00 0a e8 	call  400034a0 <_dtoa_r+0x1dc>
40000904:	40 00 0a e8 	call  400034a4 <_dtoa_r+0x1e0>
40000908:	40 00 18 a0 	call  40006b88 <_lshift+0x130>
4000090c:	40 00 0a e8 	call  400034ac <_dtoa_r+0x1e8>
40000910:	40 00 17 d0 	call  40006850 <_d2b+0xd4>
40000914:	40 00 0e b4 	call  400043e4 <_dtoa_r+0x1120>
40000918:	40 00 18 64 	call  40006aa8 <_lshift+0x50>
4000091c:	40 00 18 90 	call  40006b5c <_lshift+0x104>
40000920:	40 00 0a e8 	call  400034c0 <_dtoa_r+0x1fc>
40000924:	40 00 19 80 	call  40006f24 <_pow5mult+0x6c>
40000928:	40 00 0a e8 	call  400034c8 <_dtoa_r+0x204>
4000092c:	40 00 0d e4 	call  400040bc <_dtoa_r+0xdf8>
40000930:	40 00 0a e8 	call  400034d0 <_dtoa_r+0x20c>
40000934:	40 00 0a e8 	call  400034d4 <_dtoa_r+0x210>
40000938:	40 00 18 c0 	call  40006c38 <_multiply+0xac>

4000093c <__sprint>:
4000093c:	9d e3 bf a0 	save  %sp, -96, %sp
40000940:	c2 06 60 08 	ld  [ %i1 + 8 ], %g1
40000944:	80 a0 60 00 	cmp  %g1, 0
40000948:	12 80 00 05 	bne  4000095c <__sprint+0x20>
4000094c:	90 10 00 18 	mov  %i0, %o0
40000950:	c0 26 60 04 	clr  [ %i1 + 4 ]
40000954:	81 c7 e0 08 	ret 
40000958:	91 e8 20 00 	restore  %g0, 0, %o0
4000095c:	40 00 11 72 	call  40004f24 <__sfvwrite>
40000960:	92 10 00 19 	mov  %i1, %o1
40000964:	c0 26 60 04 	clr  [ %i1 + 4 ]
40000968:	c0 26 60 08 	clr  [ %i1 + 8 ]
4000096c:	81 c7 e0 08 	ret 
40000970:	91 e8 00 08 	restore  %g0, %o0, %o0

40000974 <_vfprintf_r>:
40000974:	9d e3 b8 70 	save  %sp, -1936, %sp
40000978:	40 00 12 ea 	call  40005520 <localeconv>
4000097c:	01 00 00 00 	nop 
40000980:	d0 02 00 00 	ld  [ %o0 ], %o0
40000984:	c2 16 60 0c 	lduh  [ %i1 + 0xc ], %g1
40000988:	f0 27 a0 44 	st  %i0, [ %fp + 0x44 ]
4000098c:	80 88 62 00 	btst  0x200, %g1
40000990:	02 80 03 08 	be  400015b0 <_vfprintf_r+0xc3c>
40000994:	d0 27 b8 ec 	st  %o0, [ %fp + -1812 ]
40000998:	03 10 00 2f 	sethi  %hi(0x4000bc00), %g1
4000099c:	d0 00 60 d8 	ld  [ %g1 + 0xd8 ], %o0	! 4000bcd8 <_impure_ptr>
400009a0:	80 a2 20 00 	cmp  %o0, 0
400009a4:	22 80 00 07 	be,a   400009c0 <_vfprintf_r+0x4c>
400009a8:	c2 16 60 0c 	lduh  [ %i1 + 0xc ], %g1
400009ac:	c2 02 20 38 	ld  [ %o0 + 0x38 ], %g1
400009b0:	80 a0 60 00 	cmp  %g1, 0
400009b4:	02 80 03 03 	be  400015c0 <_vfprintf_r+0xc4c>
400009b8:	01 00 00 00 	nop 
400009bc:	c2 16 60 0c 	lduh  [ %i1 + 0xc ], %g1
400009c0:	80 88 60 08 	btst  8, %g1
400009c4:	02 80 02 6e 	be  4000137c <_vfprintf_r+0xa08>
400009c8:	86 10 00 01 	mov  %g1, %g3
400009cc:	c4 06 60 10 	ld  [ %i1 + 0x10 ], %g2
400009d0:	80 a0 a0 00 	cmp  %g2, 0
400009d4:	02 80 02 6a 	be  4000137c <_vfprintf_r+0xa08>
400009d8:	84 08 60 1a 	and  %g1, 0x1a, %g2
400009dc:	80 a0 a0 0a 	cmp  %g2, 0xa
400009e0:	22 80 02 73 	be,a   400013ac <_vfprintf_r+0xa38>
400009e4:	c4 56 60 0e 	ldsh  [ %i1 + 0xe ], %g2
400009e8:	a6 07 bf 40 	add  %fp, -192, %l3
400009ec:	c0 27 bf b4 	clr  [ %fp + -76 ]
400009f0:	c0 27 bf b0 	clr  [ %fp + -80 ]
400009f4:	e6 27 bf ac 	st  %l3, [ %fp + -84 ]
400009f8:	c0 27 b9 00 	clr  [ %fp + -1792 ]
400009fc:	c0 27 b8 fc 	clr  [ %fp + -1796 ]
40000a00:	c0 27 b8 f0 	clr  [ %fp + -1808 ]
40000a04:	c0 27 b8 f4 	clr  [ %fp + -1804 ]
40000a08:	25 10 00 2d 	sethi  %hi(0x4000b400), %l2
40000a0c:	23 10 00 2d 	sethi  %hi(0x4000b400), %l1
40000a10:	a4 14 a3 a8 	or  %l2, 0x3a8, %l2
40000a14:	a2 14 63 98 	or  %l1, 0x398, %l1
40000a18:	b0 10 20 00 	clr  %i0
40000a1c:	a0 10 00 13 	mov  %l3, %l0
40000a20:	c4 4e 80 00 	ldsb  [ %i2 ], %g2
40000a24:	80 a0 a0 25 	cmp  %g2, 0x25
40000a28:	02 80 00 1e 	be  40000aa0 <_vfprintf_r+0x12c>
40000a2c:	c2 0e 80 00 	ldub  [ %i2 ], %g1
40000a30:	80 a0 a0 00 	cmp  %g2, 0
40000a34:	02 80 00 1c 	be  40000aa4 <_vfprintf_r+0x130>
40000a38:	83 28 60 18 	sll  %g1, 0x18, %g1
40000a3c:	a8 10 00 1a 	mov  %i2, %l4
40000a40:	a8 05 20 01 	inc  %l4
40000a44:	c2 4d 00 00 	ldsb  [ %l4 ], %g1
40000a48:	80 a0 60 25 	cmp  %g1, 0x25
40000a4c:	02 80 00 04 	be  40000a5c <_vfprintf_r+0xe8>
40000a50:	80 a0 60 00 	cmp  %g1, 0
40000a54:	32 bf ff fc 	bne,a   40000a44 <_vfprintf_r+0xd0>
40000a58:	a8 05 20 01 	inc  %l4
40000a5c:	aa a5 00 1a 	subcc  %l4, %i2, %l5
40000a60:	22 80 00 de 	be,a   40000dd8 <_vfprintf_r+0x464>
40000a64:	b4 10 00 14 	mov  %l4, %i2
40000a68:	ea 24 20 04 	st  %l5, [ %l0 + 4 ]
40000a6c:	f4 24 00 00 	st  %i2, [ %l0 ]
40000a70:	a0 04 20 08 	add  %l0, 8, %l0
40000a74:	c2 07 bf b0 	ld  [ %fp + -80 ], %g1
40000a78:	c4 07 bf b4 	ld  [ %fp + -76 ], %g2
40000a7c:	82 00 60 01 	inc  %g1
40000a80:	84 00 80 15 	add  %g2, %l5, %g2
40000a84:	c2 27 bf b0 	st  %g1, [ %fp + -80 ]
40000a88:	80 a0 60 07 	cmp  %g1, 7
40000a8c:	14 80 02 c1 	bg  40001590 <_vfprintf_r+0xc1c>
40000a90:	c4 27 bf b4 	st  %g2, [ %fp + -76 ]
40000a94:	c2 0d 00 00 	ldub  [ %l4 ], %g1
40000a98:	b4 10 00 14 	mov  %l4, %i2
40000a9c:	b0 06 00 15 	add  %i0, %l5, %i0
40000aa0:	83 28 60 18 	sll  %g1, 0x18, %g1
40000aa4:	80 a0 60 00 	cmp  %g1, 0
40000aa8:	02 80 05 83 	be  400020b4 <_vfprintf_r+0x1740>
40000aac:	b4 06 a0 01 	inc  %i2
40000ab0:	c0 2f bf ff 	clrb  [ %fp + -1 ]
40000ab4:	ac 10 3f ff 	mov  -1, %l6
40000ab8:	ea 0e 80 00 	ldub  [ %i2 ], %l5
40000abc:	ab 2d 60 18 	sll  %l5, 0x18, %l5
40000ac0:	b8 10 20 00 	clr  %i4
40000ac4:	a8 10 20 00 	clr  %l4
40000ac8:	86 10 20 2b 	mov  0x2b, %g3
40000acc:	88 10 20 20 	mov  0x20, %g4
40000ad0:	ab 3d 60 18 	sra  %l5, 0x18, %l5
40000ad4:	b4 06 a0 01 	inc  %i2
40000ad8:	82 05 7f e0 	add  %l5, -32, %g1
40000adc:	80 a0 60 58 	cmp  %g1, 0x58
40000ae0:	08 80 00 b9 	bleu  40000dc4 <_vfprintf_r+0x450>
40000ae4:	83 28 60 02 	sll  %g1, 2, %g1
40000ae8:	80 a5 60 00 	cmp  %l5, 0
40000aec:	02 80 05 72 	be  400020b4 <_vfprintf_r+0x1740>
40000af0:	82 10 20 01 	mov  1, %g1
40000af4:	ea 2f bd 18 	stb  %l5, [ %fp + -744 ]
40000af8:	c0 2f bf ff 	clrb  [ %fp + -1 ]
40000afc:	c2 27 b9 10 	st  %g1, [ %fp + -1776 ]
40000b00:	c0 27 b9 08 	clr  [ %fp + -1784 ]
40000b04:	ba 10 20 01 	mov  1, %i5
40000b08:	ae 07 bd 18 	add  %fp, -744, %l7
40000b0c:	ac 10 20 00 	clr  %l6
40000b10:	80 8d 20 02 	btst  2, %l4
40000b14:	02 80 01 1a 	be  40000f7c <_vfprintf_r+0x608>
40000b18:	82 8d 20 84 	andcc  %l4, 0x84, %g1
40000b1c:	da 07 b9 10 	ld  [ %fp + -1776 ], %o5
40000b20:	9a 03 60 02 	add  %o5, 2, %o5
40000b24:	da 27 b9 10 	st  %o5, [ %fp + -1776 ]
40000b28:	02 80 01 17 	be  40000f84 <_vfprintf_r+0x610>
40000b2c:	c2 27 b9 0c 	st  %g1, [ %fp + -1780 ]
40000b30:	c2 4f bf ff 	ldsb  [ %fp + -1 ], %g1
40000b34:	80 a0 60 00 	cmp  %g1, 0
40000b38:	02 80 01 52 	be  40001080 <_vfprintf_r+0x70c>
40000b3c:	80 8d 20 02 	btst  2, %l4
40000b40:	82 10 20 01 	mov  1, %g1
40000b44:	c2 24 20 04 	st  %g1, [ %l0 + 4 ]
40000b48:	82 07 bf ff 	add  %fp, -1, %g1
40000b4c:	c2 24 00 00 	st  %g1, [ %l0 ]
40000b50:	c4 07 bf b4 	ld  [ %fp + -76 ], %g2
40000b54:	c2 07 bf b0 	ld  [ %fp + -80 ], %g1
40000b58:	82 00 60 01 	inc  %g1
40000b5c:	84 00 a0 01 	inc  %g2
40000b60:	c2 27 bf b0 	st  %g1, [ %fp + -80 ]
40000b64:	c4 27 bf b4 	st  %g2, [ %fp + -76 ]
40000b68:	80 a0 60 07 	cmp  %g1, 7
40000b6c:	14 80 01 57 	bg  400010c8 <_vfprintf_r+0x754>
40000b70:	a0 04 20 08 	add  %l0, 8, %l0
40000b74:	da 07 b9 0c 	ld  [ %fp + -1780 ], %o5
40000b78:	80 a3 60 80 	cmp  %o5, 0x80
40000b7c:	02 80 01 5d 	be  400010f0 <_vfprintf_r+0x77c>
40000b80:	c4 07 b9 10 	ld  [ %fp + -1776 ], %g2
40000b84:	da 07 b9 08 	ld  [ %fp + -1784 ], %o5
40000b88:	82 23 40 1d 	sub  %o5, %i5, %g1
40000b8c:	80 a0 60 00 	cmp  %g1, 0
40000b90:	04 80 00 38 	ble  40000c70 <_vfprintf_r+0x2fc>
40000b94:	80 a0 60 10 	cmp  %g1, 0x10
40000b98:	04 80 00 24 	ble  40000c28 <_vfprintf_r+0x2b4>
40000b9c:	e2 27 b9 0c 	st  %l1, [ %fp + -1780 ]
40000ba0:	86 10 00 10 	mov  %l0, %g3
40000ba4:	84 10 20 10 	mov  0x10, %g2
40000ba8:	a0 10 00 01 	mov  %g1, %l0
40000bac:	10 80 00 06 	b  40000bc4 <_vfprintf_r+0x250>
40000bb0:	82 10 00 03 	mov  %g3, %g1
40000bb4:	a0 04 3f f0 	add  %l0, -16, %l0
40000bb8:	80 a4 20 10 	cmp  %l0, 0x10
40000bbc:	24 80 00 19 	ble,a   40000c20 <_vfprintf_r+0x2ac>
40000bc0:	84 10 00 01 	mov  %g1, %g2
40000bc4:	c4 20 60 04 	st  %g2, [ %g1 + 4 ]
40000bc8:	e2 20 40 00 	st  %l1, [ %g1 ]
40000bcc:	82 00 60 08 	add  %g1, 8, %g1
40000bd0:	c6 07 bf b0 	ld  [ %fp + -80 ], %g3
40000bd4:	c8 07 bf b4 	ld  [ %fp + -76 ], %g4
40000bd8:	86 00 e0 01 	inc  %g3
40000bdc:	88 01 20 10 	add  %g4, 0x10, %g4
40000be0:	c6 27 bf b0 	st  %g3, [ %fp + -80 ]
40000be4:	80 a0 e0 07 	cmp  %g3, 7
40000be8:	04 bf ff f3 	ble  40000bb4 <_vfprintf_r+0x240>
40000bec:	c8 27 bf b4 	st  %g4, [ %fp + -76 ]
40000bf0:	c4 27 b8 e4 	st  %g2, [ %fp + -1820 ]
40000bf4:	90 10 00 19 	mov  %i1, %o0
40000bf8:	7f ff ff 51 	call  4000093c <__sprint>
40000bfc:	92 07 bf ac 	add  %fp, -84, %o1
40000c00:	80 a2 20 00 	cmp  %o0, 0
40000c04:	12 80 01 cb 	bne  40001330 <_vfprintf_r+0x9bc>
40000c08:	c4 07 b8 e4 	ld  [ %fp + -1820 ], %g2
40000c0c:	a0 04 3f f0 	add  %l0, -16, %l0
40000c10:	80 a4 20 10 	cmp  %l0, 0x10
40000c14:	14 bf ff ec 	bg  40000bc4 <_vfprintf_r+0x250>
40000c18:	82 10 00 13 	mov  %l3, %g1
40000c1c:	84 10 00 01 	mov  %g1, %g2
40000c20:	82 10 00 10 	mov  %l0, %g1
40000c24:	a0 10 00 02 	mov  %g2, %l0
40000c28:	c2 24 20 04 	st  %g1, [ %l0 + 4 ]
40000c2c:	c4 07 b9 0c 	ld  [ %fp + -1780 ], %g2
40000c30:	c4 24 00 00 	st  %g2, [ %l0 ]
40000c34:	c4 07 bf b4 	ld  [ %fp + -76 ], %g2
40000c38:	82 00 80 01 	add  %g2, %g1, %g1
40000c3c:	c2 27 bf b4 	st  %g1, [ %fp + -76 ]
40000c40:	c2 07 bf b0 	ld  [ %fp + -80 ], %g1
40000c44:	82 00 60 01 	inc  %g1
40000c48:	c2 27 bf b0 	st  %g1, [ %fp + -80 ]
40000c4c:	80 a0 60 07 	cmp  %g1, 7
40000c50:	04 80 00 08 	ble  40000c70 <_vfprintf_r+0x2fc>
40000c54:	a0 04 20 08 	add  %l0, 8, %l0
40000c58:	90 10 00 19 	mov  %i1, %o0
40000c5c:	7f ff ff 38 	call  4000093c <__sprint>
40000c60:	92 07 bf ac 	add  %fp, -84, %o1
40000c64:	80 a2 20 00 	cmp  %o0, 0
40000c68:	12 80 01 b2 	bne  40001330 <_vfprintf_r+0x9bc>
40000c6c:	a0 10 00 13 	mov  %l3, %l0
40000c70:	80 8d 21 00 	btst  0x100, %l4
40000c74:	12 80 01 5b 	bne  400011e0 <_vfprintf_r+0x86c>
40000c78:	80 a5 60 65 	cmp  %l5, 0x65
40000c7c:	fa 24 20 04 	st  %i5, [ %l0 + 4 ]
40000c80:	ee 24 00 00 	st  %l7, [ %l0 ]
40000c84:	a0 04 20 08 	add  %l0, 8, %l0
40000c88:	c2 07 bf b4 	ld  [ %fp + -76 ], %g1
40000c8c:	ba 00 40 1d 	add  %g1, %i5, %i5
40000c90:	fa 27 bf b4 	st  %i5, [ %fp + -76 ]
40000c94:	c2 07 bf b0 	ld  [ %fp + -80 ], %g1
40000c98:	82 00 60 01 	inc  %g1
40000c9c:	80 a0 60 07 	cmp  %g1, 7
40000ca0:	14 80 02 34 	bg  40001570 <_vfprintf_r+0xbfc>
40000ca4:	c2 27 bf b0 	st  %g1, [ %fp + -80 ]
40000ca8:	80 8d 20 04 	btst  4, %l4
40000cac:	02 80 00 36 	be  40000d84 <_vfprintf_r+0x410>
40000cb0:	e8 07 bf b4 	ld  [ %fp + -76 ], %l4
40000cb4:	da 07 b9 10 	ld  [ %fp + -1776 ], %o5
40000cb8:	a8 27 00 0d 	sub  %i4, %o5, %l4
40000cbc:	80 a5 20 00 	cmp  %l4, 0
40000cc0:	04 80 00 30 	ble  40000d80 <_vfprintf_r+0x40c>
40000cc4:	80 a5 20 10 	cmp  %l4, 0x10
40000cc8:	04 80 00 1d 	ble  40000d3c <_vfprintf_r+0x3c8>
40000ccc:	e4 27 b9 04 	st  %l2, [ %fp + -1788 ]
40000cd0:	aa 10 20 10 	mov  0x10, %l5
40000cd4:	10 80 00 06 	b  40000cec <_vfprintf_r+0x378>
40000cd8:	ae 07 bf ac 	add  %fp, -84, %l7
40000cdc:	a8 05 3f f0 	add  %l4, -16, %l4
40000ce0:	80 a5 20 10 	cmp  %l4, 0x10
40000ce4:	24 80 00 17 	ble,a   40000d40 <_vfprintf_r+0x3cc>
40000ce8:	e8 24 20 04 	st  %l4, [ %l0 + 4 ]
40000cec:	ea 24 20 04 	st  %l5, [ %l0 + 4 ]
40000cf0:	e4 24 00 00 	st  %l2, [ %l0 ]
40000cf4:	a0 04 20 08 	add  %l0, 8, %l0
40000cf8:	c2 07 bf b0 	ld  [ %fp + -80 ], %g1
40000cfc:	c4 07 bf b4 	ld  [ %fp + -76 ], %g2
40000d00:	82 00 60 01 	inc  %g1
40000d04:	84 00 a0 10 	add  %g2, 0x10, %g2
40000d08:	c2 27 bf b0 	st  %g1, [ %fp + -80 ]
40000d0c:	80 a0 60 07 	cmp  %g1, 7
40000d10:	04 bf ff f3 	ble  40000cdc <_vfprintf_r+0x368>
40000d14:	c4 27 bf b4 	st  %g2, [ %fp + -76 ]
40000d18:	90 10 00 19 	mov  %i1, %o0
40000d1c:	7f ff ff 08 	call  4000093c <__sprint>
40000d20:	92 10 00 17 	mov  %l7, %o1
40000d24:	80 a2 20 00 	cmp  %o0, 0
40000d28:	12 80 01 82 	bne  40001330 <_vfprintf_r+0x9bc>
40000d2c:	a8 05 3f f0 	add  %l4, -16, %l4
40000d30:	80 a5 20 10 	cmp  %l4, 0x10
40000d34:	14 bf ff ee 	bg  40000cec <_vfprintf_r+0x378>
40000d38:	a0 10 00 13 	mov  %l3, %l0
40000d3c:	e8 24 20 04 	st  %l4, [ %l0 + 4 ]
40000d40:	c2 07 b9 04 	ld  [ %fp + -1788 ], %g1
40000d44:	c2 24 00 00 	st  %g1, [ %l0 ]
40000d48:	c2 07 bf b4 	ld  [ %fp + -76 ], %g1
40000d4c:	a8 05 00 01 	add  %l4, %g1, %l4
40000d50:	c2 07 bf b0 	ld  [ %fp + -80 ], %g1
40000d54:	82 00 60 01 	inc  %g1
40000d58:	e8 27 bf b4 	st  %l4, [ %fp + -76 ]
40000d5c:	80 a0 60 07 	cmp  %g1, 7
40000d60:	04 80 00 09 	ble  40000d84 <_vfprintf_r+0x410>
40000d64:	c2 27 bf b0 	st  %g1, [ %fp + -80 ]
40000d68:	90 10 00 19 	mov  %i1, %o0
40000d6c:	7f ff fe f4 	call  4000093c <__sprint>
40000d70:	92 07 bf ac 	add  %fp, -84, %o1
40000d74:	80 a2 20 00 	cmp  %o0, 0
40000d78:	12 80 01 6f 	bne  40001334 <_vfprintf_r+0x9c0>
40000d7c:	80 a5 a0 00 	cmp  %l6, 0
40000d80:	e8 07 bf b4 	ld  [ %fp + -76 ], %l4
40000d84:	c4 07 b9 10 	ld  [ %fp + -1776 ], %g2
40000d88:	80 a7 00 02 	cmp  %i4, %g2
40000d8c:	26 80 00 02 	bl,a   40000d94 <_vfprintf_r+0x420>
40000d90:	b8 10 00 02 	mov  %g2, %i4
40000d94:	80 a5 20 00 	cmp  %l4, 0
40000d98:	12 80 01 60 	bne  40001318 <_vfprintf_r+0x9a4>
40000d9c:	b0 06 00 1c 	add  %i0, %i4, %i0
40000da0:	c0 27 bf b0 	clr  [ %fp + -80 ]
40000da4:	80 a5 a0 00 	cmp  %l6, 0
40000da8:	02 bf ff 1e 	be  40000a20 <_vfprintf_r+0xac>
40000dac:	a0 10 00 13 	mov  %l3, %l0
40000db0:	d0 07 a0 44 	ld  [ %fp + 0x44 ], %o0
40000db4:	40 00 0f b5 	call  40004c88 <_free_r>
40000db8:	92 10 00 16 	mov  %l6, %o1
40000dbc:	10 bf ff 1a 	b  40000a24 <_vfprintf_r+0xb0>
40000dc0:	c4 4e 80 00 	ldsb  [ %i2 ], %g2
40000dc4:	05 10 00 01 	sethi  %hi(0x40000400), %g2
40000dc8:	84 10 a3 d8 	or  %g2, 0x3d8, %g2	! 400007d8 <putchar+0x1c>
40000dcc:	c2 00 80 01 	ld  [ %g2 + %g1 ], %g1
40000dd0:	81 c0 40 00 	jmp  %g1
40000dd4:	01 00 00 00 	nop 
40000dd8:	10 bf ff 32 	b  40000aa0 <_vfprintf_r+0x12c>
40000ddc:	c2 0d 00 00 	ldub  [ %l4 ], %g1
40000de0:	a8 15 20 10 	or  %l4, 0x10, %l4
40000de4:	80 8d 20 10 	btst  0x10, %l4
40000de8:	32 80 00 2d 	bne,a   40000e9c <_vfprintf_r+0x528>
40000dec:	fa 06 c0 00 	ld  [ %i3 ], %i5
40000df0:	80 8d 20 40 	btst  0x40, %l4
40000df4:	22 80 00 2a 	be,a   40000e9c <_vfprintf_r+0x528>
40000df8:	fa 06 c0 00 	ld  [ %i3 ], %i5
40000dfc:	fa 16 e0 02 	lduh  [ %i3 + 2 ], %i5
40000e00:	80 a0 00 1d 	cmp  %g0, %i5
40000e04:	b6 06 e0 04 	add  %i3, 4, %i3
40000e08:	84 40 20 00 	addx  %g0, 0, %g2
40000e0c:	82 10 20 01 	mov  1, %g1
40000e10:	c0 2f bf ff 	clrb  [ %fp + -1 ]
40000e14:	80 a5 a0 00 	cmp  %l6, 0
40000e18:	36 80 00 02 	bge,a   40000e20 <_vfprintf_r+0x4ac>
40000e1c:	a8 0d 3f 7f 	and  %l4, -129, %l4
40000e20:	86 07 be 74 	add  %fp, -396, %g3
40000e24:	80 a5 a0 00 	cmp  %l6, 0
40000e28:	12 80 00 05 	bne  40000e3c <_vfprintf_r+0x4c8>
40000e2c:	c6 27 b8 dc 	st  %g3, [ %fp + -1828 ]
40000e30:	80 88 a0 ff 	btst  0xff, %g2
40000e34:	02 80 00 3d 	be  40000f28 <_vfprintf_r+0x5b4>
40000e38:	80 88 60 ff 	btst  0xff, %g1
40000e3c:	82 08 60 ff 	and  %g1, 0xff, %g1
40000e40:	80 a0 60 01 	cmp  %g1, 1
40000e44:	02 80 03 37 	be  40001b20 <_vfprintf_r+0x11ac>
40000e48:	80 a0 60 02 	cmp  %g1, 2
40000e4c:	02 80 03 2a 	be  40001af4 <_vfprintf_r+0x1180>
40000e50:	ae 07 be 74 	add  %fp, -396, %l7
40000e54:	82 0f 60 07 	and  %i5, 7, %g1
40000e58:	ae 05 ff ff 	add  %l7, -1, %l7
40000e5c:	82 00 60 30 	add  %g1, 0x30, %g1
40000e60:	bb 37 60 03 	srl  %i5, 3, %i5
40000e64:	80 a7 60 00 	cmp  %i5, 0
40000e68:	12 bf ff fb 	bne  40000e54 <_vfprintf_r+0x4e0>
40000e6c:	c2 2d c0 00 	stb  %g1, [ %l7 ]
40000e70:	da 07 b8 dc 	ld  [ %fp + -1828 ], %o5
40000e74:	80 8d 20 01 	btst  1, %l4
40000e78:	02 80 00 33 	be  40000f44 <_vfprintf_r+0x5d0>
40000e7c:	ba 23 40 17 	sub  %o5, %l7, %i5
40000e80:	80 a0 60 30 	cmp  %g1, 0x30
40000e84:	02 80 00 30 	be  40000f44 <_vfprintf_r+0x5d0>
40000e88:	82 10 20 30 	mov  0x30, %g1
40000e8c:	ae 05 ff ff 	add  %l7, -1, %l7
40000e90:	ba 23 40 17 	sub  %o5, %l7, %i5
40000e94:	10 80 00 2c 	b  40000f44 <_vfprintf_r+0x5d0>
40000e98:	c2 2d c0 00 	stb  %g1, [ %l7 ]
40000e9c:	80 a0 00 1d 	cmp  %g0, %i5
40000ea0:	b6 06 e0 04 	add  %i3, 4, %i3
40000ea4:	84 40 20 00 	addx  %g0, 0, %g2
40000ea8:	10 bf ff da 	b  40000e10 <_vfprintf_r+0x49c>
40000eac:	82 10 20 01 	mov  1, %g1
40000eb0:	a8 15 20 10 	or  %l4, 0x10, %l4
40000eb4:	80 8d 20 10 	btst  0x10, %l4
40000eb8:	32 80 00 0b 	bne,a   40000ee4 <_vfprintf_r+0x570>
40000ebc:	fa 06 c0 00 	ld  [ %i3 ], %i5
40000ec0:	80 8d 20 40 	btst  0x40, %l4
40000ec4:	22 80 00 08 	be,a   40000ee4 <_vfprintf_r+0x570>
40000ec8:	fa 06 c0 00 	ld  [ %i3 ], %i5
40000ecc:	fa 16 e0 02 	lduh  [ %i3 + 2 ], %i5
40000ed0:	80 a0 00 1d 	cmp  %g0, %i5
40000ed4:	b6 06 e0 04 	add  %i3, 4, %i3
40000ed8:	84 40 20 00 	addx  %g0, 0, %g2
40000edc:	10 bf ff cd 	b  40000e10 <_vfprintf_r+0x49c>
40000ee0:	82 10 20 00 	clr  %g1
40000ee4:	80 a0 00 1d 	cmp  %g0, %i5
40000ee8:	b6 06 e0 04 	add  %i3, 4, %i3
40000eec:	84 40 20 00 	addx  %g0, 0, %g2
40000ef0:	10 bf ff c8 	b  40000e10 <_vfprintf_r+0x49c>
40000ef4:	82 10 20 00 	clr  %g1
40000ef8:	a8 15 20 10 	or  %l4, 0x10, %l4
40000efc:	80 8d 20 10 	btst  0x10, %l4
40000f00:	02 80 02 0f 	be  4000173c <_vfprintf_r+0xdc8>
40000f04:	80 8d 20 40 	btst  0x40, %l4
40000f08:	fa 06 c0 00 	ld  [ %i3 ], %i5
40000f0c:	b6 06 e0 04 	add  %i3, 4, %i3
40000f10:	80 a7 60 00 	cmp  %i5, 0
40000f14:	06 80 03 56 	bl  40001c6c <_vfprintf_r+0x12f8>
40000f18:	80 a0 00 1d 	cmp  %g0, %i5
40000f1c:	82 10 20 01 	mov  1, %g1
40000f20:	10 bf ff bd 	b  40000e14 <_vfprintf_r+0x4a0>
40000f24:	84 40 20 00 	addx  %g0, 0, %g2
40000f28:	12 80 00 06 	bne  40000f40 <_vfprintf_r+0x5cc>
40000f2c:	ae 07 be 74 	add  %fp, -396, %l7
40000f30:	80 8d 20 01 	btst  1, %l4
40000f34:	12 80 01 de 	bne  400016ac <_vfprintf_r+0xd38>
40000f38:	82 10 20 30 	mov  0x30, %g1
40000f3c:	ae 07 be 74 	add  %fp, -396, %l7
40000f40:	ba 10 20 00 	clr  %i5
40000f44:	80 a7 40 16 	cmp  %i5, %l6
40000f48:	16 80 00 03 	bge  40000f54 <_vfprintf_r+0x5e0>
40000f4c:	fa 27 b9 10 	st  %i5, [ %fp + -1776 ]
40000f50:	ec 27 b9 10 	st  %l6, [ %fp + -1776 ]
40000f54:	ec 27 b9 08 	st  %l6, [ %fp + -1784 ]
40000f58:	ac 10 20 00 	clr  %l6
40000f5c:	c2 4f bf ff 	ldsb  [ %fp + -1 ], %g1
40000f60:	80 a0 60 00 	cmp  %g1, 0
40000f64:	02 bf fe ec 	be  40000b14 <_vfprintf_r+0x1a0>
40000f68:	80 8d 20 02 	btst  2, %l4
40000f6c:	c6 07 b9 10 	ld  [ %fp + -1776 ], %g3
40000f70:	86 00 e0 01 	inc  %g3
40000f74:	c6 27 b9 10 	st  %g3, [ %fp + -1776 ]
40000f78:	82 8d 20 84 	andcc  %l4, 0x84, %g1
40000f7c:	12 bf fe ed 	bne  40000b30 <_vfprintf_r+0x1bc>
40000f80:	c2 27 b9 0c 	st  %g1, [ %fp + -1780 ]
40000f84:	c4 07 b9 10 	ld  [ %fp + -1776 ], %g2
40000f88:	82 27 00 02 	sub  %i4, %g2, %g1
40000f8c:	80 a0 60 00 	cmp  %g1, 0
40000f90:	04 bf fe e8 	ble  40000b30 <_vfprintf_r+0x1bc>
40000f94:	80 a0 60 10 	cmp  %g1, 0x10
40000f98:	04 80 00 24 	ble  40001028 <_vfprintf_r+0x6b4>
40000f9c:	e4 27 b9 04 	st  %l2, [ %fp + -1788 ]
40000fa0:	86 10 00 10 	mov  %l0, %g3
40000fa4:	84 10 20 10 	mov  0x10, %g2
40000fa8:	a0 10 00 01 	mov  %g1, %l0
40000fac:	10 80 00 06 	b  40000fc4 <_vfprintf_r+0x650>
40000fb0:	82 10 00 03 	mov  %g3, %g1
40000fb4:	a0 04 3f f0 	add  %l0, -16, %l0
40000fb8:	80 a4 20 10 	cmp  %l0, 0x10
40000fbc:	24 80 00 19 	ble,a   40001020 <_vfprintf_r+0x6ac>
40000fc0:	84 10 00 01 	mov  %g1, %g2
40000fc4:	c4 20 60 04 	st  %g2, [ %g1 + 4 ]
40000fc8:	e4 20 40 00 	st  %l2, [ %g1 ]
40000fcc:	82 00 60 08 	add  %g1, 8, %g1
40000fd0:	c6 07 bf b0 	ld  [ %fp + -80 ], %g3
40000fd4:	c8 07 bf b4 	ld  [ %fp + -76 ], %g4
40000fd8:	86 00 e0 01 	inc  %g3
40000fdc:	88 01 20 10 	add  %g4, 0x10, %g4
40000fe0:	c6 27 bf b0 	st  %g3, [ %fp + -80 ]
40000fe4:	80 a0 e0 07 	cmp  %g3, 7
40000fe8:	04 bf ff f3 	ble  40000fb4 <_vfprintf_r+0x640>
40000fec:	c8 27 bf b4 	st  %g4, [ %fp + -76 ]
40000ff0:	c4 27 b8 e4 	st  %g2, [ %fp + -1820 ]
40000ff4:	90 10 00 19 	mov  %i1, %o0
40000ff8:	7f ff fe 51 	call  4000093c <__sprint>
40000ffc:	92 07 bf ac 	add  %fp, -84, %o1
40001000:	80 a2 20 00 	cmp  %o0, 0
40001004:	12 80 00 cb 	bne  40001330 <_vfprintf_r+0x9bc>
40001008:	c4 07 b8 e4 	ld  [ %fp + -1820 ], %g2
4000100c:	a0 04 3f f0 	add  %l0, -16, %l0
40001010:	80 a4 20 10 	cmp  %l0, 0x10
40001014:	14 bf ff ec 	bg  40000fc4 <_vfprintf_r+0x650>
40001018:	82 10 00 13 	mov  %l3, %g1
4000101c:	84 10 00 01 	mov  %g1, %g2
40001020:	82 10 00 10 	mov  %l0, %g1
40001024:	a0 10 00 02 	mov  %g2, %l0
40001028:	c2 24 20 04 	st  %g1, [ %l0 + 4 ]
4000102c:	c6 07 b9 04 	ld  [ %fp + -1788 ], %g3
40001030:	c6 24 00 00 	st  %g3, [ %l0 ]
40001034:	c4 07 bf b4 	ld  [ %fp + -76 ], %g2
40001038:	82 00 80 01 	add  %g2, %g1, %g1
4000103c:	c2 27 bf b4 	st  %g1, [ %fp + -76 ]
40001040:	c2 07 bf b0 	ld  [ %fp + -80 ], %g1
40001044:	82 00 60 01 	inc  %g1
40001048:	c2 27 bf b0 	st  %g1, [ %fp + -80 ]
4000104c:	80 a0 60 07 	cmp  %g1, 7
40001050:	04 bf fe b8 	ble  40000b30 <_vfprintf_r+0x1bc>
40001054:	a0 04 20 08 	add  %l0, 8, %l0
40001058:	90 10 00 19 	mov  %i1, %o0
4000105c:	7f ff fe 38 	call  4000093c <__sprint>
40001060:	92 07 bf ac 	add  %fp, -84, %o1
40001064:	80 a2 20 00 	cmp  %o0, 0
40001068:	12 80 00 b2 	bne  40001330 <_vfprintf_r+0x9bc>
4000106c:	c2 4f bf ff 	ldsb  [ %fp + -1 ], %g1
40001070:	80 a0 60 00 	cmp  %g1, 0
40001074:	12 bf fe b3 	bne  40000b40 <_vfprintf_r+0x1cc>
40001078:	a0 10 00 13 	mov  %l3, %l0
4000107c:	80 8d 20 02 	btst  2, %l4
40001080:	02 bf fe be 	be  40000b78 <_vfprintf_r+0x204>
40001084:	da 07 b9 0c 	ld  [ %fp + -1780 ], %o5
40001088:	ea 2f bf f9 	stb  %l5, [ %fp + -7 ]
4000108c:	82 10 20 30 	mov  0x30, %g1
40001090:	c2 2f bf f8 	stb  %g1, [ %fp + -8 ]
40001094:	82 10 20 02 	mov  2, %g1
40001098:	c2 24 20 04 	st  %g1, [ %l0 + 4 ]
4000109c:	82 07 bf f8 	add  %fp, -8, %g1
400010a0:	c2 24 00 00 	st  %g1, [ %l0 ]
400010a4:	c4 07 bf b4 	ld  [ %fp + -76 ], %g2
400010a8:	c2 07 bf b0 	ld  [ %fp + -80 ], %g1
400010ac:	82 00 60 01 	inc  %g1
400010b0:	84 00 a0 02 	add  %g2, 2, %g2
400010b4:	c2 27 bf b0 	st  %g1, [ %fp + -80 ]
400010b8:	c4 27 bf b4 	st  %g2, [ %fp + -76 ]
400010bc:	80 a0 60 07 	cmp  %g1, 7
400010c0:	04 bf fe ad 	ble  40000b74 <_vfprintf_r+0x200>
400010c4:	a0 04 20 08 	add  %l0, 8, %l0
400010c8:	90 10 00 19 	mov  %i1, %o0
400010cc:	7f ff fe 1c 	call  4000093c <__sprint>
400010d0:	92 07 bf ac 	add  %fp, -84, %o1
400010d4:	80 a2 20 00 	cmp  %o0, 0
400010d8:	12 80 00 96 	bne  40001330 <_vfprintf_r+0x9bc>
400010dc:	da 07 b9 0c 	ld  [ %fp + -1780 ], %o5
400010e0:	80 a3 60 80 	cmp  %o5, 0x80
400010e4:	12 bf fe a8 	bne  40000b84 <_vfprintf_r+0x210>
400010e8:	a0 10 00 13 	mov  %l3, %l0
400010ec:	c4 07 b9 10 	ld  [ %fp + -1776 ], %g2
400010f0:	82 27 00 02 	sub  %i4, %g2, %g1
400010f4:	80 a0 60 00 	cmp  %g1, 0
400010f8:	04 bf fe a3 	ble  40000b84 <_vfprintf_r+0x210>
400010fc:	80 a0 60 10 	cmp  %g1, 0x10
40001100:	04 80 00 24 	ble  40001190 <_vfprintf_r+0x81c>
40001104:	e2 27 b9 0c 	st  %l1, [ %fp + -1780 ]
40001108:	86 10 00 10 	mov  %l0, %g3
4000110c:	84 10 20 10 	mov  0x10, %g2
40001110:	a0 10 00 01 	mov  %g1, %l0
40001114:	10 80 00 06 	b  4000112c <_vfprintf_r+0x7b8>
40001118:	82 10 00 03 	mov  %g3, %g1
4000111c:	a0 04 3f f0 	add  %l0, -16, %l0
40001120:	80 a4 20 10 	cmp  %l0, 0x10
40001124:	24 80 00 19 	ble,a   40001188 <_vfprintf_r+0x814>
40001128:	84 10 00 01 	mov  %g1, %g2
4000112c:	c4 20 60 04 	st  %g2, [ %g1 + 4 ]
40001130:	e2 20 40 00 	st  %l1, [ %g1 ]
40001134:	82 00 60 08 	add  %g1, 8, %g1
40001138:	c6 07 bf b0 	ld  [ %fp + -80 ], %g3
4000113c:	c8 07 bf b4 	ld  [ %fp + -76 ], %g4
40001140:	86 00 e0 01 	inc  %g3
40001144:	88 01 20 10 	add  %g4, 0x10, %g4
40001148:	c6 27 bf b0 	st  %g3, [ %fp + -80 ]
4000114c:	80 a0 e0 07 	cmp  %g3, 7
40001150:	04 bf ff f3 	ble  4000111c <_vfprintf_r+0x7a8>
40001154:	c8 27 bf b4 	st  %g4, [ %fp + -76 ]
40001158:	c4 27 b8 e4 	st  %g2, [ %fp + -1820 ]
4000115c:	90 10 00 19 	mov  %i1, %o0
40001160:	7f ff fd f7 	call  4000093c <__sprint>
40001164:	92 07 bf ac 	add  %fp, -84, %o1
40001168:	80 a2 20 00 	cmp  %o0, 0
4000116c:	12 80 00 71 	bne  40001330 <_vfprintf_r+0x9bc>
40001170:	c4 07 b8 e4 	ld  [ %fp + -1820 ], %g2
40001174:	a0 04 3f f0 	add  %l0, -16, %l0
40001178:	80 a4 20 10 	cmp  %l0, 0x10
4000117c:	14 bf ff ec 	bg  4000112c <_vfprintf_r+0x7b8>
40001180:	82 10 00 13 	mov  %l3, %g1
40001184:	84 10 00 01 	mov  %g1, %g2
40001188:	82 10 00 10 	mov  %l0, %g1
4000118c:	a0 10 00 02 	mov  %g2, %l0
40001190:	c2 24 20 04 	st  %g1, [ %l0 + 4 ]
40001194:	c6 07 b9 0c 	ld  [ %fp + -1780 ], %g3
40001198:	c6 24 00 00 	st  %g3, [ %l0 ]
4000119c:	c4 07 bf b4 	ld  [ %fp + -76 ], %g2
400011a0:	82 00 80 01 	add  %g2, %g1, %g1
400011a4:	c2 27 bf b4 	st  %g1, [ %fp + -76 ]
400011a8:	c2 07 bf b0 	ld  [ %fp + -80 ], %g1
400011ac:	82 00 60 01 	inc  %g1
400011b0:	c2 27 bf b0 	st  %g1, [ %fp + -80 ]
400011b4:	80 a0 60 07 	cmp  %g1, 7
400011b8:	04 bf fe 73 	ble  40000b84 <_vfprintf_r+0x210>
400011bc:	a0 04 20 08 	add  %l0, 8, %l0
400011c0:	90 10 00 19 	mov  %i1, %o0
400011c4:	7f ff fd de 	call  4000093c <__sprint>
400011c8:	92 07 bf ac 	add  %fp, -84, %o1
400011cc:	80 a2 20 00 	cmp  %o0, 0
400011d0:	12 80 00 58 	bne  40001330 <_vfprintf_r+0x9bc>
400011d4:	a0 10 00 13 	mov  %l3, %l0
400011d8:	10 bf fe 6c 	b  40000b88 <_vfprintf_r+0x214>
400011dc:	da 07 b9 08 	ld  [ %fp + -1784 ], %o5
400011e0:	04 80 00 ac 	ble  40001490 <_vfprintf_r+0xb1c>
400011e4:	da 07 b8 f8 	ld  [ %fp + -1800 ], %o5
400011e8:	07 10 00 2d 	sethi  %hi(0x4000b400), %g3
400011ec:	d0 07 b9 00 	ld  [ %fp + -1792 ], %o0
400011f0:	d4 18 e3 90 	ldd  [ %g3 + 0x390 ], %o2
400011f4:	40 00 1f 1c 	call  40008e64 <__eqdf2>
400011f8:	d2 07 b8 fc 	ld  [ %fp + -1796 ], %o1
400011fc:	80 a2 20 00 	cmp  %o0, 0
40001200:	12 80 00 f8 	bne  400015e0 <_vfprintf_r+0xc6c>
40001204:	c2 07 bf f4 	ld  [ %fp + -12 ], %g1
40001208:	82 10 20 01 	mov  1, %g1
4000120c:	c2 24 20 04 	st  %g1, [ %l0 + 4 ]
40001210:	03 10 00 2d 	sethi  %hi(0x4000b400), %g1
40001214:	82 10 63 78 	or  %g1, 0x378, %g1	! 4000b778 <___DTOR_END__+0x48>
40001218:	c4 07 bf b4 	ld  [ %fp + -76 ], %g2
4000121c:	c2 24 00 00 	st  %g1, [ %l0 ]
40001220:	c2 07 bf b0 	ld  [ %fp + -80 ], %g1
40001224:	82 00 60 01 	inc  %g1
40001228:	84 00 a0 01 	inc  %g2
4000122c:	c2 27 bf b0 	st  %g1, [ %fp + -80 ]
40001230:	c4 27 bf b4 	st  %g2, [ %fp + -76 ]
40001234:	80 a0 60 07 	cmp  %g1, 7
40001238:	14 80 03 20 	bg  40001eb8 <_vfprintf_r+0x1544>
4000123c:	a0 04 20 08 	add  %l0, 8, %l0
40001240:	c2 07 bf f4 	ld  [ %fp + -12 ], %g1
40001244:	da 07 b8 f8 	ld  [ %fp + -1800 ], %o5
40001248:	80 a0 40 0d 	cmp  %g1, %o5
4000124c:	06 80 00 06 	bl  40001264 <_vfprintf_r+0x8f0>
40001250:	82 10 20 01 	mov  1, %g1
40001254:	80 8d 20 01 	btst  1, %l4
40001258:	02 bf fe 95 	be  40000cac <_vfprintf_r+0x338>
4000125c:	80 8d 20 04 	btst  4, %l4
40001260:	82 10 20 01 	mov  1, %g1
40001264:	c2 24 20 04 	st  %g1, [ %l0 + 4 ]
40001268:	c2 07 b8 ec 	ld  [ %fp + -1812 ], %g1
4000126c:	c2 24 00 00 	st  %g1, [ %l0 ]
40001270:	c4 07 bf b4 	ld  [ %fp + -76 ], %g2
40001274:	c2 07 bf b0 	ld  [ %fp + -80 ], %g1
40001278:	82 00 60 01 	inc  %g1
4000127c:	84 00 a0 01 	inc  %g2
40001280:	c2 27 bf b0 	st  %g1, [ %fp + -80 ]
40001284:	c4 27 bf b4 	st  %g2, [ %fp + -76 ]
40001288:	80 a0 60 07 	cmp  %g1, 7
4000128c:	14 80 04 1c 	bg  400022fc <_vfprintf_r+0x1988>
40001290:	a0 04 20 08 	add  %l0, 8, %l0
40001294:	c4 07 b8 f8 	ld  [ %fp + -1800 ], %g2
40001298:	aa 00 bf ff 	add  %g2, -1, %l5
4000129c:	80 a5 60 00 	cmp  %l5, 0
400012a0:	04 bf fe 82 	ble  40000ca8 <_vfprintf_r+0x334>
400012a4:	80 a5 60 10 	cmp  %l5, 0x10
400012a8:	04 80 02 78 	ble  40001c88 <_vfprintf_r+0x1314>
400012ac:	e2 27 b9 0c 	st  %l1, [ %fp + -1780 ]
400012b0:	ae 10 20 10 	mov  0x10, %l7
400012b4:	10 80 00 06 	b  400012cc <_vfprintf_r+0x958>
400012b8:	ba 07 bf ac 	add  %fp, -84, %i5
400012bc:	aa 05 7f f0 	add  %l5, -16, %l5
400012c0:	80 a5 60 10 	cmp  %l5, 0x10
400012c4:	24 80 02 72 	ble,a   40001c8c <_vfprintf_r+0x1318>
400012c8:	ea 24 20 04 	st  %l5, [ %l0 + 4 ]
400012cc:	ee 24 20 04 	st  %l7, [ %l0 + 4 ]
400012d0:	e2 24 00 00 	st  %l1, [ %l0 ]
400012d4:	a0 04 20 08 	add  %l0, 8, %l0
400012d8:	c2 07 bf b0 	ld  [ %fp + -80 ], %g1
400012dc:	c4 07 bf b4 	ld  [ %fp + -76 ], %g2
400012e0:	82 00 60 01 	inc  %g1
400012e4:	84 00 a0 10 	add  %g2, 0x10, %g2
400012e8:	c2 27 bf b0 	st  %g1, [ %fp + -80 ]
400012ec:	80 a0 60 07 	cmp  %g1, 7
400012f0:	04 bf ff f3 	ble  400012bc <_vfprintf_r+0x948>
400012f4:	c4 27 bf b4 	st  %g2, [ %fp + -76 ]
400012f8:	90 10 00 19 	mov  %i1, %o0
400012fc:	7f ff fd 90 	call  4000093c <__sprint>
40001300:	92 10 00 1d 	mov  %i5, %o1
40001304:	80 a2 20 00 	cmp  %o0, 0
40001308:	12 80 00 0a 	bne  40001330 <_vfprintf_r+0x9bc>
4000130c:	a0 10 00 13 	mov  %l3, %l0
40001310:	10 bf ff ec 	b  400012c0 <_vfprintf_r+0x94c>
40001314:	aa 05 7f f0 	add  %l5, -16, %l5
40001318:	90 10 00 19 	mov  %i1, %o0
4000131c:	7f ff fd 88 	call  4000093c <__sprint>
40001320:	92 07 bf ac 	add  %fp, -84, %o1
40001324:	80 a2 20 00 	cmp  %o0, 0
40001328:	22 bf fe 9f 	be,a   40000da4 <_vfprintf_r+0x430>
4000132c:	c0 27 bf b0 	clr  [ %fp + -80 ]
40001330:	80 a5 a0 00 	cmp  %l6, 0
40001334:	22 80 00 06 	be,a   4000134c <_vfprintf_r+0x9d8>
40001338:	c2 16 60 0c 	lduh  [ %i1 + 0xc ], %g1
4000133c:	d0 07 a0 44 	ld  [ %fp + 0x44 ], %o0
40001340:	40 00 0e 52 	call  40004c88 <_free_r>
40001344:	92 10 00 16 	mov  %l6, %o1
40001348:	c2 16 60 0c 	lduh  [ %i1 + 0xc ], %g1
4000134c:	83 28 60 10 	sll  %g1, 0x10, %g1
40001350:	83 30 60 10 	srl  %g1, 0x10, %g1
40001354:	80 88 62 00 	btst  0x200, %g1
40001358:	02 80 00 9e 	be  400015d0 <_vfprintf_r+0xc5c>
4000135c:	01 00 00 00 	nop 
40001360:	80 88 60 40 	btst  0x40, %g1
40001364:	12 80 00 04 	bne  40001374 <_vfprintf_r+0xa00>
40001368:	01 00 00 00 	nop 
4000136c:	81 c7 e0 08 	ret 
40001370:	81 e8 00 00 	restore 
40001374:	81 c7 e0 08 	ret 
40001378:	91 e8 3f ff 	restore  %g0, -1, %o0
4000137c:	40 00 06 b4 	call  40002e4c <__swsetup>
40001380:	90 10 00 19 	mov  %i1, %o0
40001384:	80 a2 20 00 	cmp  %o0, 0
40001388:	32 80 04 34 	bne,a   40002458 <_vfprintf_r+0x1ae4>
4000138c:	c2 16 60 0c 	lduh  [ %i1 + 0xc ], %g1
40001390:	c6 16 60 0c 	lduh  [ %i1 + 0xc ], %g3
40001394:	82 10 00 03 	mov  %g3, %g1
40001398:	84 08 e0 1a 	and  %g3, 0x1a, %g2
4000139c:	80 a0 a0 0a 	cmp  %g2, 0xa
400013a0:	12 bf fd 93 	bne  400009ec <_vfprintf_r+0x78>
400013a4:	a6 07 bf 40 	add  %fp, -192, %l3
400013a8:	c4 56 60 0e 	ldsh  [ %i1 + 0xe ], %g2
400013ac:	80 a0 a0 00 	cmp  %g2, 0
400013b0:	06 bf fd 8e 	bl  400009e8 <_vfprintf_r+0x74>
400013b4:	c4 16 60 0e 	lduh  [ %i1 + 0xe ], %g2
400013b8:	80 88 62 00 	btst  0x200, %g1
400013bc:	02 80 00 e5 	be  40001750 <_vfprintf_r+0xddc>
400013c0:	01 00 00 00 	nop 
400013c4:	86 08 ff fd 	and  %g3, -3, %g3
400013c8:	c2 06 60 24 	ld  [ %i1 + 0x24 ], %g1
400013cc:	c2 27 be 98 	st  %g1, [ %fp + -360 ]
400013d0:	82 07 b9 18 	add  %fp, -1768, %g1
400013d4:	c8 06 60 1c 	ld  [ %i1 + 0x1c ], %g4
400013d8:	c2 27 be 84 	st  %g1, [ %fp + -380 ]
400013dc:	c2 27 be 74 	st  %g1, [ %fp + -396 ]
400013e0:	82 10 24 00 	mov  0x400, %g1
400013e4:	c6 37 be 80 	sth  %g3, [ %fp + -384 ]
400013e8:	c4 37 be 82 	sth  %g2, [ %fp + -382 ]
400013ec:	c8 27 be 90 	st  %g4, [ %fp + -368 ]
400013f0:	a2 07 bf 80 	add  %fp, -128, %l1
400013f4:	c2 27 be 88 	st  %g1, [ %fp + -376 ]
400013f8:	c2 27 be 7c 	st  %g1, [ %fp + -388 ]
400013fc:	90 10 00 11 	mov  %l1, %o0
40001400:	40 00 22 51 	call  40009d44 <___st_pthread_mutexattr_init>
40001404:	c0 27 be 8c 	clr  [ %fp + -372 ]
40001408:	90 10 00 11 	mov  %l1, %o0
4000140c:	40 00 22 64 	call  40009d9c <___st_pthread_mutexattr_settype>
40001410:	92 10 20 01 	mov  1, %o1
40001414:	92 10 00 11 	mov  %l1, %o1
40001418:	a0 07 be cc 	add  %fp, -308, %l0
4000141c:	40 00 22 11 	call  40009c60 <___st_pthread_mutex_init>
40001420:	90 10 00 10 	mov  %l0, %o0
40001424:	40 00 22 53 	call  40009d70 <___st_pthread_mutexattr_destroy>
40001428:	90 10 00 11 	mov  %l1, %o0
4000142c:	d0 07 a0 44 	ld  [ %fp + 0x44 ], %o0
40001430:	a2 07 be 74 	add  %fp, -396, %l1
40001434:	94 10 00 1a 	mov  %i2, %o2
40001438:	92 10 00 11 	mov  %l1, %o1
4000143c:	7f ff fd 4e 	call  40000974 <_vfprintf_r>
40001440:	96 10 00 1b 	mov  %i3, %o3
40001444:	b0 92 20 00 	orcc  %o0, 0, %i0
40001448:	06 80 00 08 	bl  40001468 <_vfprintf_r+0xaf4>
4000144c:	c2 17 be 80 	lduh  [ %fp + -384 ], %g1
40001450:	40 00 0c a8 	call  400046f0 <fflush>
40001454:	90 10 00 11 	mov  %l1, %o0
40001458:	80 a2 20 00 	cmp  %o0, 0
4000145c:	32 80 00 02 	bne,a   40001464 <_vfprintf_r+0xaf0>
40001460:	b0 10 3f ff 	mov  -1, %i0
40001464:	c2 17 be 80 	lduh  [ %fp + -384 ], %g1
40001468:	80 88 60 40 	btst  0x40, %g1
4000146c:	02 80 00 05 	be  40001480 <_vfprintf_r+0xb0c>
40001470:	01 00 00 00 	nop 
40001474:	c2 16 60 0c 	lduh  [ %i1 + 0xc ], %g1
40001478:	82 10 60 40 	or  %g1, 0x40, %g1
4000147c:	c2 36 60 0c 	sth  %g1, [ %i1 + 0xc ]
40001480:	40 00 22 05 	call  40009c94 <___st_pthread_mutex_destroy>
40001484:	90 10 00 10 	mov  %l0, %o0
40001488:	81 c7 e0 08 	ret 
4000148c:	81 e8 00 00 	restore 
40001490:	80 a3 60 01 	cmp  %o5, 1
40001494:	04 80 01 ba 	ble  40001b7c <_vfprintf_r+0x1208>
40001498:	80 8d 20 01 	btst  1, %l4
4000149c:	c2 0d c0 00 	ldub  [ %l7 ], %g1
400014a0:	c2 2f bf f8 	stb  %g1, [ %fp + -8 ]
400014a4:	82 10 20 2e 	mov  0x2e, %g1
400014a8:	c2 2f bf f9 	stb  %g1, [ %fp + -7 ]
400014ac:	82 10 20 02 	mov  2, %g1
400014b0:	c2 24 20 04 	st  %g1, [ %l0 + 4 ]
400014b4:	82 07 bf f8 	add  %fp, -8, %g1
400014b8:	c2 24 00 00 	st  %g1, [ %l0 ]
400014bc:	c4 07 bf b4 	ld  [ %fp + -76 ], %g2
400014c0:	c2 07 bf b0 	ld  [ %fp + -80 ], %g1
400014c4:	82 00 60 01 	inc  %g1
400014c8:	84 00 a0 02 	add  %g2, 2, %g2
400014cc:	c2 27 bf b0 	st  %g1, [ %fp + -80 ]
400014d0:	c4 27 bf b4 	st  %g2, [ %fp + -76 ]
400014d4:	80 a0 60 07 	cmp  %g1, 7
400014d8:	14 80 01 bf 	bg  40001bd4 <_vfprintf_r+0x1260>
400014dc:	a0 04 20 08 	add  %l0, 8, %l0
400014e0:	03 10 00 2d 	sethi  %hi(0x4000b400), %g1
400014e4:	d0 07 b9 00 	ld  [ %fp + -1792 ], %o0
400014e8:	d4 18 63 90 	ldd  [ %g1 + 0x390 ], %o2
400014ec:	40 00 1e 77 	call  40008ec8 <__nedf2>
400014f0:	d2 07 b8 fc 	ld  [ %fp + -1796 ], %o1
400014f4:	80 a2 20 00 	cmp  %o0, 0
400014f8:	02 80 00 71 	be  400016bc <_vfprintf_r+0xd48>
400014fc:	c6 07 b8 f8 	ld  [ %fp + -1800 ], %g3
40001500:	c4 07 b8 f8 	ld  [ %fp + -1800 ], %g2
40001504:	82 00 bf ff 	add  %g2, -1, %g1
40001508:	c2 24 20 04 	st  %g1, [ %l0 + 4 ]
4000150c:	ae 05 e0 01 	inc  %l7
40001510:	ee 24 00 00 	st  %l7, [ %l0 ]
40001514:	c4 07 bf b4 	ld  [ %fp + -76 ], %g2
40001518:	82 00 80 01 	add  %g2, %g1, %g1
4000151c:	c2 27 bf b4 	st  %g1, [ %fp + -76 ]
40001520:	c2 07 bf b0 	ld  [ %fp + -80 ], %g1
40001524:	82 00 60 01 	inc  %g1
40001528:	c2 27 bf b0 	st  %g1, [ %fp + -80 ]
4000152c:	80 a0 60 07 	cmp  %g1, 7
40001530:	14 80 01 a1 	bg  40001bb4 <_vfprintf_r+0x1240>
40001534:	a0 04 20 08 	add  %l0, 8, %l0
40001538:	c2 07 b8 f4 	ld  [ %fp + -1804 ], %g1
4000153c:	c2 24 20 04 	st  %g1, [ %l0 + 4 ]
40001540:	82 07 bf e0 	add  %fp, -32, %g1
40001544:	c6 07 b8 f4 	ld  [ %fp + -1804 ], %g3
40001548:	c2 24 00 00 	st  %g1, [ %l0 ]
4000154c:	c4 07 bf b4 	ld  [ %fp + -76 ], %g2
40001550:	c2 07 bf b0 	ld  [ %fp + -80 ], %g1
40001554:	82 00 60 01 	inc  %g1
40001558:	84 00 80 03 	add  %g2, %g3, %g2
4000155c:	c2 27 bf b0 	st  %g1, [ %fp + -80 ]
40001560:	c4 27 bf b4 	st  %g2, [ %fp + -76 ]
40001564:	80 a0 60 07 	cmp  %g1, 7
40001568:	04 bf fd d0 	ble  40000ca8 <_vfprintf_r+0x334>
4000156c:	a0 04 20 08 	add  %l0, 8, %l0
40001570:	90 10 00 19 	mov  %i1, %o0
40001574:	7f ff fc f2 	call  4000093c <__sprint>
40001578:	92 07 bf ac 	add  %fp, -84, %o1
4000157c:	80 a2 20 00 	cmp  %o0, 0
40001580:	12 bf ff 6c 	bne  40001330 <_vfprintf_r+0x9bc>
40001584:	a0 10 00 13 	mov  %l3, %l0
40001588:	10 bf fd c9 	b  40000cac <_vfprintf_r+0x338>
4000158c:	80 8d 20 04 	btst  4, %l4
40001590:	90 10 00 19 	mov  %i1, %o0
40001594:	7f ff fc ea 	call  4000093c <__sprint>
40001598:	92 07 bf ac 	add  %fp, -84, %o1
4000159c:	80 a2 20 00 	cmp  %o0, 0
400015a0:	12 bf ff 6a 	bne  40001348 <_vfprintf_r+0x9d4>
400015a4:	a0 10 00 13 	mov  %l3, %l0
400015a8:	10 bf fd 3c 	b  40000a98 <_vfprintf_r+0x124>
400015ac:	c2 0d 00 00 	ldub  [ %l4 ], %g1
400015b0:	40 00 21 c4 	call  40009cc0 <___st_pthread_mutex_lock>
400015b4:	90 06 60 58 	add  %i1, 0x58, %o0
400015b8:	10 bf fc f9 	b  4000099c <_vfprintf_r+0x28>
400015bc:	03 10 00 2f 	sethi  %hi(0x4000bc00), %g1
400015c0:	40 00 0d 01 	call  400049c4 <__sinit>
400015c4:	01 00 00 00 	nop 
400015c8:	10 bf fc fe 	b  400009c0 <_vfprintf_r+0x4c>
400015cc:	c2 16 60 0c 	lduh  [ %i1 + 0xc ], %g1
400015d0:	40 00 21 d2 	call  40009d18 <___st_pthread_mutex_unlock>
400015d4:	90 06 60 58 	add  %i1, 0x58, %o0
400015d8:	10 bf ff 62 	b  40001360 <_vfprintf_r+0x9ec>
400015dc:	c2 16 60 0c 	lduh  [ %i1 + 0xc ], %g1
400015e0:	80 a0 60 00 	cmp  %g1, 0
400015e4:	04 80 02 46 	ble  40001efc <_vfprintf_r+0x1588>
400015e8:	da 07 b8 f8 	ld  [ %fp + -1800 ], %o5
400015ec:	80 a0 40 0d 	cmp  %g1, %o5
400015f0:	26 80 01 e4 	bl,a   40001d80 <_vfprintf_r+0x140c>
400015f4:	c2 24 20 04 	st  %g1, [ %l0 + 4 ]
400015f8:	da 24 20 04 	st  %o5, [ %l0 + 4 ]
400015fc:	ee 24 00 00 	st  %l7, [ %l0 ]
40001600:	a0 04 20 08 	add  %l0, 8, %l0
40001604:	c2 07 bf b0 	ld  [ %fp + -80 ], %g1
40001608:	c4 07 bf b4 	ld  [ %fp + -76 ], %g2
4000160c:	82 00 60 01 	inc  %g1
40001610:	84 00 80 0d 	add  %g2, %o5, %g2
40001614:	c2 27 bf b0 	st  %g1, [ %fp + -80 ]
40001618:	80 a0 60 07 	cmp  %g1, 7
4000161c:	14 80 02 7d 	bg  40002010 <_vfprintf_r+0x169c>
40001620:	c4 27 bf b4 	st  %g2, [ %fp + -76 ]
40001624:	ea 07 bf f4 	ld  [ %fp + -12 ], %l5
40001628:	c2 07 b8 f8 	ld  [ %fp + -1800 ], %g1
4000162c:	aa 25 40 01 	sub  %l5, %g1, %l5
40001630:	80 a5 60 00 	cmp  %l5, 0
40001634:	04 80 02 09 	ble  40001e58 <_vfprintf_r+0x14e4>
40001638:	80 a5 60 10 	cmp  %l5, 0x10
4000163c:	04 80 01 f5 	ble  40001e10 <_vfprintf_r+0x149c>
40001640:	e2 27 b9 0c 	st  %l1, [ %fp + -1780 ]
40001644:	ae 10 20 10 	mov  0x10, %l7
40001648:	10 80 00 06 	b  40001660 <_vfprintf_r+0xcec>
4000164c:	ba 07 bf ac 	add  %fp, -84, %i5
40001650:	aa 05 7f f0 	add  %l5, -16, %l5
40001654:	80 a5 60 10 	cmp  %l5, 0x10
40001658:	24 80 01 ef 	ble,a   40001e14 <_vfprintf_r+0x14a0>
4000165c:	ea 24 20 04 	st  %l5, [ %l0 + 4 ]
40001660:	ee 24 20 04 	st  %l7, [ %l0 + 4 ]
40001664:	e2 24 00 00 	st  %l1, [ %l0 ]
40001668:	a0 04 20 08 	add  %l0, 8, %l0
4000166c:	c2 07 bf b0 	ld  [ %fp + -80 ], %g1
40001670:	c4 07 bf b4 	ld  [ %fp + -76 ], %g2
40001674:	82 00 60 01 	inc  %g1
40001678:	84 00 a0 10 	add  %g2, 0x10, %g2
4000167c:	c2 27 bf b0 	st  %g1, [ %fp + -80 ]
40001680:	80 a0 60 07 	cmp  %g1, 7
40001684:	04 bf ff f3 	ble  40001650 <_vfprintf_r+0xcdc>
40001688:	c4 27 bf b4 	st  %g2, [ %fp + -76 ]
4000168c:	90 10 00 19 	mov  %i1, %o0
40001690:	7f ff fc ab 	call  4000093c <__sprint>
40001694:	92 10 00 1d 	mov  %i5, %o1
40001698:	80 a2 20 00 	cmp  %o0, 0
4000169c:	12 bf ff 25 	bne  40001330 <_vfprintf_r+0x9bc>
400016a0:	a0 10 00 13 	mov  %l3, %l0
400016a4:	10 bf ff ec 	b  40001654 <_vfprintf_r+0xce0>
400016a8:	aa 05 7f f0 	add  %l5, -16, %l5
400016ac:	ae 07 be 73 	add  %fp, -397, %l7
400016b0:	c2 2f be 73 	stb  %g1, [ %fp + -397 ]
400016b4:	10 bf fe 24 	b  40000f44 <_vfprintf_r+0x5d0>
400016b8:	ba 10 20 01 	mov  1, %i5
400016bc:	aa 00 ff ff 	add  %g3, -1, %l5
400016c0:	80 a5 60 00 	cmp  %l5, 0
400016c4:	04 bf ff 9d 	ble  40001538 <_vfprintf_r+0xbc4>
400016c8:	80 a5 60 10 	cmp  %l5, 0x10
400016cc:	04 80 01 4a 	ble  40001bf4 <_vfprintf_r+0x1280>
400016d0:	e2 27 b9 0c 	st  %l1, [ %fp + -1780 ]
400016d4:	ae 10 20 10 	mov  0x10, %l7
400016d8:	10 80 00 06 	b  400016f0 <_vfprintf_r+0xd7c>
400016dc:	ba 07 bf ac 	add  %fp, -84, %i5
400016e0:	aa 05 7f f0 	add  %l5, -16, %l5
400016e4:	80 a5 60 10 	cmp  %l5, 0x10
400016e8:	24 80 01 44 	ble,a   40001bf8 <_vfprintf_r+0x1284>
400016ec:	ea 24 20 04 	st  %l5, [ %l0 + 4 ]
400016f0:	ee 24 20 04 	st  %l7, [ %l0 + 4 ]
400016f4:	e2 24 00 00 	st  %l1, [ %l0 ]
400016f8:	a0 04 20 08 	add  %l0, 8, %l0
400016fc:	c2 07 bf b0 	ld  [ %fp + -80 ], %g1
40001700:	c4 07 bf b4 	ld  [ %fp + -76 ], %g2
40001704:	82 00 60 01 	inc  %g1
40001708:	84 00 a0 10 	add  %g2, 0x10, %g2
4000170c:	c2 27 bf b0 	st  %g1, [ %fp + -80 ]
40001710:	80 a0 60 07 	cmp  %g1, 7
40001714:	04 bf ff f3 	ble  400016e0 <_vfprintf_r+0xd6c>
40001718:	c4 27 bf b4 	st  %g2, [ %fp + -76 ]
4000171c:	90 10 00 19 	mov  %i1, %o0
40001720:	7f ff fc 87 	call  4000093c <__sprint>
40001724:	92 10 00 1d 	mov  %i5, %o1
40001728:	80 a2 20 00 	cmp  %o0, 0
4000172c:	12 bf ff 01 	bne  40001330 <_vfprintf_r+0x9bc>
40001730:	a0 10 00 13 	mov  %l3, %l0
40001734:	10 bf ff ec 	b  400016e4 <_vfprintf_r+0xd70>
40001738:	aa 05 7f f0 	add  %l5, -16, %l5
4000173c:	22 bf fd f4 	be,a   40000f0c <_vfprintf_r+0x598>
40001740:	fa 06 c0 00 	ld  [ %i3 ], %i5
40001744:	fa 56 e0 02 	ldsh  [ %i3 + 2 ], %i5
40001748:	10 bf fd f2 	b  40000f10 <_vfprintf_r+0x59c>
4000174c:	b6 06 e0 04 	add  %i3, 4, %i3
40001750:	40 00 21 72 	call  40009d18 <___st_pthread_mutex_unlock>
40001754:	90 06 60 58 	add  %i1, 0x58, %o0
40001758:	c6 16 60 0c 	lduh  [ %i1 + 0xc ], %g3
4000175c:	10 bf ff 1a 	b  400013c4 <_vfprintf_r+0xa50>
40001760:	c4 16 60 0e 	lduh  [ %i1 + 0xe ], %g2
40001764:	f8 06 c0 00 	ld  [ %i3 ], %i4
40001768:	80 a7 20 00 	cmp  %i4, 0
4000176c:	16 80 00 26 	bge  40001804 <_vfprintf_r+0xe90>
40001770:	b6 06 e0 04 	add  %i3, 4, %i3
40001774:	b8 20 00 1c 	neg  %i4
40001778:	ea 0e 80 00 	ldub  [ %i2 ], %l5
4000177c:	a8 15 20 04 	or  %l4, 4, %l4
40001780:	10 bf fc d4 	b  40000ad0 <_vfprintf_r+0x15c>
40001784:	ab 2d 60 18 	sll  %l5, 0x18, %l5
40001788:	80 a5 60 43 	cmp  %l5, 0x43
4000178c:	02 80 01 28 	be  40001c2c <_vfprintf_r+0x12b8>
40001790:	80 8d 20 10 	btst  0x10, %l4
40001794:	32 80 01 27 	bne,a   40001c30 <_vfprintf_r+0x12bc>
40001798:	ac 07 bf d8 	add  %fp, -40, %l6
4000179c:	c2 06 c0 00 	ld  [ %i3 ], %g1
400017a0:	ba 10 20 01 	mov  1, %i5
400017a4:	b6 06 e0 04 	add  %i3, 4, %i3
400017a8:	ae 07 bd 18 	add  %fp, -744, %l7
400017ac:	c2 2f bd 18 	stb  %g1, [ %fp + -744 ]
400017b0:	82 38 00 1d 	xnor  %g0, %i5, %g1
400017b4:	c0 2f bf ff 	clrb  [ %fp + -1 ]
400017b8:	83 38 60 1f 	sra  %g1, 0x1f, %g1
400017bc:	ac 10 20 00 	clr  %l6
400017c0:	82 0f 40 01 	and  %i5, %g1, %g1
400017c4:	c0 27 b9 08 	clr  [ %fp + -1784 ]
400017c8:	10 bf fc d2 	b  40000b10 <_vfprintf_r+0x19c>
400017cc:	c2 27 b9 10 	st  %g1, [ %fp + -1776 ]
400017d0:	80 8d 20 10 	btst  0x10, %l4
400017d4:	12 80 00 c5 	bne  40001ae8 <_vfprintf_r+0x1174>
400017d8:	c2 06 c0 00 	ld  [ %i3 ], %g1
400017dc:	80 8d 20 40 	btst  0x40, %l4
400017e0:	02 80 00 c2 	be  40001ae8 <_vfprintf_r+0x1174>
400017e4:	01 00 00 00 	nop 
400017e8:	b6 06 e0 04 	add  %i3, 4, %i3
400017ec:	10 bf fc 8d 	b  40000a20 <_vfprintf_r+0xac>
400017f0:	f0 30 40 00 	sth  %i0, [ %g1 ]
400017f4:	ea 0e 80 00 	ldub  [ %i2 ], %l5
400017f8:	a8 15 20 01 	or  %l4, 1, %l4
400017fc:	10 bf fc b5 	b  40000ad0 <_vfprintf_r+0x15c>
40001800:	ab 2d 60 18 	sll  %l5, 0x18, %l5
40001804:	ea 0e 80 00 	ldub  [ %i2 ], %l5
40001808:	10 bf fc b2 	b  40000ad0 <_vfprintf_r+0x15c>
4000180c:	ab 2d 60 18 	sll  %l5, 0x18, %l5
40001810:	c6 2f bf ff 	stb  %g3, [ %fp + -1 ]
40001814:	ea 0e 80 00 	ldub  [ %i2 ], %l5
40001818:	10 bf fc ae 	b  40000ad0 <_vfprintf_r+0x15c>
4000181c:	ab 2d 60 18 	sll  %l5, 0x18, %l5
40001820:	ea 0e 80 00 	ldub  [ %i2 ], %l5
40001824:	a8 15 20 80 	or  %l4, 0x80, %l4
40001828:	10 bf fc aa 	b  40000ad0 <_vfprintf_r+0x15c>
4000182c:	ab 2d 60 18 	sll  %l5, 0x18, %l5
40001830:	82 05 7f d0 	add  %l5, -48, %g1
40001834:	b8 10 20 00 	clr  %i4
40001838:	ea 4e 80 00 	ldsb  [ %i2 ], %l5
4000183c:	85 2f 20 03 	sll  %i4, 3, %g2
40001840:	b9 2f 20 01 	sll  %i4, 1, %i4
40001844:	b8 07 00 02 	add  %i4, %g2, %i4
40001848:	b8 00 40 1c 	add  %g1, %i4, %i4
4000184c:	82 05 7f d0 	add  %l5, -48, %g1
40001850:	80 a0 60 09 	cmp  %g1, 9
40001854:	08 bf ff f9 	bleu  40001838 <_vfprintf_r+0xec4>
40001858:	b4 06 a0 01 	inc  %i2
4000185c:	10 bf fc a0 	b  40000adc <_vfprintf_r+0x168>
40001860:	82 05 7f e0 	add  %l5, -32, %g1
40001864:	fa 06 c0 00 	ld  [ %i3 ], %i5
40001868:	80 a0 00 1d 	cmp  %g0, %i5
4000186c:	07 10 00 2d 	sethi  %hi(0x4000b400), %g3
40001870:	b6 06 e0 04 	add  %i3, 4, %i3
40001874:	86 10 e3 58 	or  %g3, 0x358, %g3
40001878:	84 40 20 00 	addx  %g0, 0, %g2
4000187c:	a8 15 20 02 	or  %l4, 2, %l4
40001880:	c6 27 b8 f0 	st  %g3, [ %fp + -1808 ]
40001884:	82 10 20 02 	mov  2, %g1
40001888:	10 bf fd 62 	b  40000e10 <_vfprintf_r+0x49c>
4000188c:	aa 10 20 78 	mov  0x78, %l5
40001890:	ea 0e 80 00 	ldub  [ %i2 ], %l5
40001894:	a8 15 20 10 	or  %l4, 0x10, %l4
40001898:	10 bf fc 8e 	b  40000ad0 <_vfprintf_r+0x15c>
4000189c:	ab 2d 60 18 	sll  %l5, 0x18, %l5
400018a0:	ea 0e 80 00 	ldub  [ %i2 ], %l5
400018a4:	ab 2d 60 18 	sll  %l5, 0x18, %l5
400018a8:	83 3d 60 18 	sra  %l5, 0x18, %g1
400018ac:	80 a0 60 6c 	cmp  %g1, 0x6c
400018b0:	22 80 02 12 	be,a   400020f8 <_vfprintf_r+0x1784>
400018b4:	b4 06 a0 01 	inc  %i2
400018b8:	10 bf fc 86 	b  40000ad0 <_vfprintf_r+0x15c>
400018bc:	a8 15 20 10 	or  %l4, 0x10, %l4
400018c0:	1b 10 00 2d 	sethi  %hi(0x4000b400), %o5
400018c4:	9a 13 63 58 	or  %o5, 0x358, %o5	! 4000b758 <___DTOR_END__+0x28>
400018c8:	80 8d 20 10 	btst  0x10, %l4
400018cc:	12 80 00 4e 	bne  40001a04 <_vfprintf_r+0x1090>
400018d0:	da 27 b8 f0 	st  %o5, [ %fp + -1808 ]
400018d4:	80 8d 20 40 	btst  0x40, %l4
400018d8:	22 80 00 4c 	be,a   40001a08 <_vfprintf_r+0x1094>
400018dc:	fa 06 c0 00 	ld  [ %i3 ], %i5
400018e0:	fa 16 e0 02 	lduh  [ %i3 + 2 ], %i5
400018e4:	b6 06 e0 04 	add  %i3, 4, %i3
400018e8:	80 a0 00 1d 	cmp  %g0, %i5
400018ec:	84 40 20 00 	addx  %g0, 0, %g2
400018f0:	80 a0 a0 00 	cmp  %g2, 0
400018f4:	02 bf fd 47 	be  40000e10 <_vfprintf_r+0x49c>
400018f8:	82 10 20 02 	mov  2, %g1
400018fc:	80 8d 20 01 	btst  1, %l4
40001900:	22 bf fd 45 	be,a   40000e14 <_vfprintf_r+0x4a0>
40001904:	c0 2f bf ff 	clrb  [ %fp + -1 ]
40001908:	a8 15 20 02 	or  %l4, 2, %l4
4000190c:	10 bf fd 41 	b  40000e10 <_vfprintf_r+0x49c>
40001910:	84 10 20 01 	mov  1, %g2
40001914:	ea 4e 80 00 	ldsb  [ %i2 ], %l5
40001918:	80 a5 60 2a 	cmp  %l5, 0x2a
4000191c:	02 80 03 5f 	be  40002698 <_vfprintf_r+0x1d24>
40001920:	b4 06 a0 01 	inc  %i2
40001924:	82 05 7f d0 	add  %l5, -48, %g1
40001928:	84 10 20 00 	clr  %g2
4000192c:	80 a0 60 09 	cmp  %g1, 9
40001930:	18 bf fc 6a 	bgu  40000ad8 <_vfprintf_r+0x164>
40001934:	ac 10 20 00 	clr  %l6
40001938:	ea 4e 80 00 	ldsb  [ %i2 ], %l5
4000193c:	9b 28 a0 03 	sll  %g2, 3, %o5
40001940:	85 28 a0 01 	sll  %g2, 1, %g2
40001944:	84 00 80 0d 	add  %g2, %o5, %g2
40001948:	84 00 80 01 	add  %g2, %g1, %g2
4000194c:	82 05 7f d0 	add  %l5, -48, %g1
40001950:	80 a0 60 09 	cmp  %g1, 9
40001954:	08 bf ff f9 	bleu  40001938 <_vfprintf_r+0xfc4>
40001958:	b4 06 a0 01 	inc  %i2
4000195c:	ac 90 a0 00 	orcc  %g2, 0, %l6
40001960:	26 bf fc 5e 	bl,a   40000ad8 <_vfprintf_r+0x164>
40001964:	ac 10 3f ff 	mov  -1, %l6
40001968:	10 bf fc 5d 	b  40000adc <_vfprintf_r+0x168>
4000196c:	82 05 7f e0 	add  %l5, -32, %g1
40001970:	ea 0e 80 00 	ldub  [ %i2 ], %l5
40001974:	a8 15 20 40 	or  %l4, 0x40, %l4
40001978:	10 bf fc 56 	b  40000ad0 <_vfprintf_r+0x15c>
4000197c:	ab 2d 60 18 	sll  %l5, 0x18, %l5
40001980:	c0 2f bf ff 	clrb  [ %fp + -1 ]
40001984:	ee 06 c0 00 	ld  [ %i3 ], %l7
40001988:	80 a5 e0 00 	cmp  %l7, 0
4000198c:	02 80 02 8a 	be  400023b4 <_vfprintf_r+0x1a40>
40001990:	b6 06 e0 04 	add  %i3, 4, %i3
40001994:	80 a5 60 53 	cmp  %l5, 0x53
40001998:	02 80 00 cf 	be  40001cd4 <_vfprintf_r+0x1360>
4000199c:	80 8d 20 10 	btst  0x10, %l4
400019a0:	32 80 00 ce 	bne,a   40001cd8 <_vfprintf_r+0x1364>
400019a4:	ee 27 bf f0 	st  %l7, [ %fp + -16 ]
400019a8:	80 a5 a0 00 	cmp  %l6, 0
400019ac:	06 80 01 b9 	bl  40002090 <_vfprintf_r+0x171c>
400019b0:	90 10 00 17 	mov  %l7, %o0
400019b4:	92 10 20 00 	clr  %o1
400019b8:	40 00 11 1c 	call  40005e28 <memchr>
400019bc:	94 10 00 16 	mov  %l6, %o2
400019c0:	80 a2 20 00 	cmp  %o0, 0
400019c4:	22 80 00 07 	be,a   400019e0 <_vfprintf_r+0x106c>
400019c8:	ec 27 b9 10 	st  %l6, [ %fp + -1776 ]
400019cc:	ba 22 00 17 	sub  %o0, %l7, %i5
400019d0:	80 a7 40 16 	cmp  %i5, %l6
400019d4:	04 80 02 52 	ble  4000231c <_vfprintf_r+0x19a8>
400019d8:	82 38 00 1d 	xnor  %g0, %i5, %g1
400019dc:	ec 27 b9 10 	st  %l6, [ %fp + -1776 ]
400019e0:	c0 27 b9 08 	clr  [ %fp + -1784 ]
400019e4:	ac 10 20 00 	clr  %l6
400019e8:	10 bf fd 5d 	b  40000f5c <_vfprintf_r+0x5e8>
400019ec:	fa 07 b9 10 	ld  [ %fp + -1776 ], %i5
400019f0:	07 10 00 2d 	sethi  %hi(0x4000b400), %g3
400019f4:	86 10 e3 38 	or  %g3, 0x338, %g3	! 4000b738 <___DTOR_END__+0x8>
400019f8:	80 8d 20 10 	btst  0x10, %l4
400019fc:	02 bf ff b6 	be  400018d4 <_vfprintf_r+0xf60>
40001a00:	c6 27 b8 f0 	st  %g3, [ %fp + -1808 ]
40001a04:	fa 06 c0 00 	ld  [ %i3 ], %i5
40001a08:	10 bf ff b8 	b  400018e8 <_vfprintf_r+0xf74>
40001a0c:	b6 06 e0 04 	add  %i3, 4, %i3
40001a10:	c2 4f bf ff 	ldsb  [ %fp + -1 ], %g1
40001a14:	80 a0 60 00 	cmp  %g1, 0
40001a18:	32 bf ff 7c 	bne,a   40001808 <_vfprintf_r+0xe94>
40001a1c:	ea 0e 80 00 	ldub  [ %i2 ], %l5
40001a20:	c8 2f bf ff 	stb  %g4, [ %fp + -1 ]
40001a24:	ea 0e 80 00 	ldub  [ %i2 ], %l5
40001a28:	10 bf fc 2a 	b  40000ad0 <_vfprintf_r+0x15c>
40001a2c:	ab 2d 60 18 	sll  %l5, 0x18, %l5
40001a30:	ea 0e 80 00 	ldub  [ %i2 ], %l5
40001a34:	a8 15 20 08 	or  %l4, 8, %l4
40001a38:	10 bf fc 26 	b  40000ad0 <_vfprintf_r+0x15c>
40001a3c:	ab 2d 60 18 	sll  %l5, 0x18, %l5
40001a40:	80 a5 bf ff 	cmp  %l6, -1
40001a44:	02 80 01 ab 	be  400020f0 <_vfprintf_r+0x177c>
40001a48:	80 a5 60 47 	cmp  %l5, 0x47
40001a4c:	02 80 01 16 	be  40001ea4 <_vfprintf_r+0x1530>
40001a50:	80 a5 60 67 	cmp  %l5, 0x67
40001a54:	02 80 01 15 	be  40001ea8 <_vfprintf_r+0x1534>
40001a58:	80 a5 a0 00 	cmp  %l6, 0
40001a5c:	80 8d 20 08 	btst  8, %l4
40001a60:	02 80 00 92 	be  40001ca8 <_vfprintf_r+0x1334>
40001a64:	92 10 00 1b 	mov  %i3, %o1
40001a68:	90 07 bf c8 	add  %fp, -56, %o0
40001a6c:	40 00 11 2b 	call  40005f18 <memcpy>
40001a70:	94 10 20 08 	mov  8, %o2
40001a74:	da 07 bf c8 	ld  [ %fp + -56 ], %o5
40001a78:	c2 07 bf cc 	ld  [ %fp + -52 ], %g1
40001a7c:	da 27 b9 00 	st  %o5, [ %fp + -1792 ]
40001a80:	c2 27 b8 fc 	st  %g1, [ %fp + -1796 ]
40001a84:	b6 06 e0 08 	add  %i3, 8, %i3
40001a88:	ba 10 00 0d 	mov  %o5, %i5
40001a8c:	92 10 00 01 	mov  %g1, %o1
40001a90:	c2 27 b8 e8 	st  %g1, [ %fp + -1816 ]
40001a94:	40 00 16 d0 	call  400075d4 <isinf>
40001a98:	90 10 00 1d 	mov  %i5, %o0
40001a9c:	80 a2 20 00 	cmp  %o0, 0
40001aa0:	02 80 01 9a 	be  40002108 <_vfprintf_r+0x1794>
40001aa4:	c2 07 b8 e8 	ld  [ %fp + -1816 ], %g1
40001aa8:	1b 10 00 2d 	sethi  %hi(0x4000b400), %o5
40001aac:	d4 1b 63 90 	ldd  [ %o5 + 0x390 ], %o2	! 4000b790 <___DTOR_END__+0x60>
40001ab0:	90 10 00 1d 	mov  %i5, %o0
40001ab4:	40 00 1d 50 	call  40008ff4 <__ltdf2>
40001ab8:	92 10 00 01 	mov  %g1, %o1
40001abc:	80 a2 20 00 	cmp  %o0, 0
40001ac0:	06 80 01 06 	bl  40001ed8 <_vfprintf_r+0x1564>
40001ac4:	82 10 20 2d 	mov  0x2d, %g1
40001ac8:	82 10 20 03 	mov  3, %g1
40001acc:	2f 10 00 2d 	sethi  %hi(0x4000b400), %l7
40001ad0:	c2 27 b9 10 	st  %g1, [ %fp + -1776 ]
40001ad4:	ac 10 20 00 	clr  %l6
40001ad8:	ba 10 20 03 	mov  3, %i5
40001adc:	c0 27 b9 08 	clr  [ %fp + -1784 ]
40001ae0:	10 bf fd 1f 	b  40000f5c <_vfprintf_r+0x5e8>
40001ae4:	ae 15 e3 50 	or  %l7, 0x350, %l7
40001ae8:	b6 06 e0 04 	add  %i3, 4, %i3
40001aec:	10 bf fb cd 	b  40000a20 <_vfprintf_r+0xac>
40001af0:	f0 20 40 00 	st  %i0, [ %g1 ]
40001af4:	c4 07 b8 f0 	ld  [ %fp + -1808 ], %g2
40001af8:	82 0f 60 0f 	and  %i5, 0xf, %g1
40001afc:	c2 08 80 01 	ldub  [ %g2 + %g1 ], %g1
40001b00:	ae 05 ff ff 	add  %l7, -1, %l7
40001b04:	bb 37 60 04 	srl  %i5, 4, %i5
40001b08:	80 a7 60 00 	cmp  %i5, 0
40001b0c:	12 bf ff fb 	bne  40001af8 <_vfprintf_r+0x1184>
40001b10:	c2 2d c0 00 	stb  %g1, [ %l7 ]
40001b14:	da 07 b8 dc 	ld  [ %fp + -1828 ], %o5
40001b18:	10 bf fd 0b 	b  40000f44 <_vfprintf_r+0x5d0>
40001b1c:	ba 23 40 17 	sub  %o5, %l7, %i5
40001b20:	80 a7 60 09 	cmp  %i5, 9
40001b24:	08 80 00 10 	bleu  40001b64 <_vfprintf_r+0x11f0>
40001b28:	84 07 be 74 	add  %fp, -396, %g2
40001b2c:	ae 10 00 02 	mov  %g2, %l7
40001b30:	90 10 00 1d 	mov  %i5, %o0
40001b34:	92 10 20 0a 	mov  0xa, %o1
40001b38:	40 00 19 9a 	call  400081a0 <.urem>
40001b3c:	ae 05 ff ff 	add  %l7, -1, %l7
40001b40:	82 02 20 30 	add  %o0, 0x30, %g1
40001b44:	92 10 20 0a 	mov  0xa, %o1
40001b48:	90 10 00 1d 	mov  %i5, %o0
40001b4c:	40 00 18 e9 	call  40007ef0 <.udiv>
40001b50:	c2 2d c0 00 	stb  %g1, [ %l7 ]
40001b54:	80 a2 20 09 	cmp  %o0, 9
40001b58:	18 bf ff f6 	bgu  40001b30 <_vfprintf_r+0x11bc>
40001b5c:	ba 10 00 08 	mov  %o0, %i5
40001b60:	84 10 00 17 	mov  %l7, %g2
40001b64:	82 07 60 30 	add  %i5, 0x30, %g1
40001b68:	c6 07 b8 dc 	ld  [ %fp + -1828 ], %g3
40001b6c:	ae 00 bf ff 	add  %g2, -1, %l7
40001b70:	c2 28 bf ff 	stb  %g1, [ %g2 + -1 ]
40001b74:	10 bf fc f4 	b  40000f44 <_vfprintf_r+0x5d0>
40001b78:	ba 20 c0 17 	sub  %g3, %l7, %i5
40001b7c:	32 bf fe 49 	bne,a   400014a0 <_vfprintf_r+0xb2c>
40001b80:	c2 0d c0 00 	ldub  [ %l7 ], %g1
40001b84:	82 10 20 01 	mov  1, %g1
40001b88:	c2 24 20 04 	st  %g1, [ %l0 + 4 ]
40001b8c:	ee 24 00 00 	st  %l7, [ %l0 ]
40001b90:	a0 04 20 08 	add  %l0, 8, %l0
40001b94:	c2 07 bf b0 	ld  [ %fp + -80 ], %g1
40001b98:	c4 07 bf b4 	ld  [ %fp + -76 ], %g2
40001b9c:	82 00 60 01 	inc  %g1
40001ba0:	84 00 a0 01 	inc  %g2
40001ba4:	c2 27 bf b0 	st  %g1, [ %fp + -80 ]
40001ba8:	80 a0 60 07 	cmp  %g1, 7
40001bac:	04 bf fe 63 	ble  40001538 <_vfprintf_r+0xbc4>
40001bb0:	c4 27 bf b4 	st  %g2, [ %fp + -76 ]
40001bb4:	90 10 00 19 	mov  %i1, %o0
40001bb8:	7f ff fb 61 	call  4000093c <__sprint>
40001bbc:	92 07 bf ac 	add  %fp, -84, %o1
40001bc0:	80 a2 20 00 	cmp  %o0, 0
40001bc4:	12 bf fd db 	bne  40001330 <_vfprintf_r+0x9bc>
40001bc8:	a0 10 00 13 	mov  %l3, %l0
40001bcc:	10 bf fe 5c 	b  4000153c <_vfprintf_r+0xbc8>
40001bd0:	c2 07 b8 f4 	ld  [ %fp + -1804 ], %g1
40001bd4:	90 10 00 19 	mov  %i1, %o0
40001bd8:	7f ff fb 59 	call  4000093c <__sprint>
40001bdc:	92 07 bf ac 	add  %fp, -84, %o1
40001be0:	80 a2 20 00 	cmp  %o0, 0
40001be4:	12 bf fd d3 	bne  40001330 <_vfprintf_r+0x9bc>
40001be8:	a0 10 00 13 	mov  %l3, %l0
40001bec:	10 bf fe 3e 	b  400014e4 <_vfprintf_r+0xb70>
40001bf0:	03 10 00 2d 	sethi  %hi(0x4000b400), %g1
40001bf4:	ea 24 20 04 	st  %l5, [ %l0 + 4 ]
40001bf8:	da 07 b9 0c 	ld  [ %fp + -1780 ], %o5
40001bfc:	da 24 00 00 	st  %o5, [ %l0 ]
40001c00:	c2 07 bf b4 	ld  [ %fp + -76 ], %g1
40001c04:	aa 00 40 15 	add  %g1, %l5, %l5
40001c08:	c2 07 bf b0 	ld  [ %fp + -80 ], %g1
40001c0c:	82 00 60 01 	inc  %g1
40001c10:	ea 27 bf b4 	st  %l5, [ %fp + -76 ]
40001c14:	c2 27 bf b0 	st  %g1, [ %fp + -80 ]
40001c18:	80 a0 60 07 	cmp  %g1, 7
40001c1c:	04 bf fe 47 	ble  40001538 <_vfprintf_r+0xbc4>
40001c20:	a0 04 20 08 	add  %l0, 8, %l0
40001c24:	10 bf ff e5 	b  40001bb8 <_vfprintf_r+0x1244>
40001c28:	90 10 00 19 	mov  %i1, %o0
40001c2c:	ac 07 bf d8 	add  %fp, -40, %l6
40001c30:	92 10 20 00 	clr  %o1
40001c34:	94 10 20 08 	mov  8, %o2
40001c38:	40 00 11 4b 	call  40006164 <memset>
40001c3c:	90 10 00 16 	mov  %l6, %o0
40001c40:	d4 06 c0 00 	ld  [ %i3 ], %o2
40001c44:	d0 07 a0 44 	ld  [ %fp + 0x44 ], %o0
40001c48:	96 10 00 16 	mov  %l6, %o3
40001c4c:	ae 07 bd 18 	add  %fp, -744, %l7
40001c50:	40 00 03 04 	call  40002860 <_wcrtomb_r>
40001c54:	92 10 00 17 	mov  %l7, %o1
40001c58:	80 a2 3f ff 	cmp  %o0, -1
40001c5c:	02 80 02 3c 	be  4000254c <_vfprintf_r+0x1bd8>
40001c60:	ba 10 00 08 	mov  %o0, %i5
40001c64:	10 bf fe d3 	b  400017b0 <_vfprintf_r+0xe3c>
40001c68:	b6 06 e0 04 	add  %i3, 4, %i3
40001c6c:	82 10 20 2d 	mov  0x2d, %g1
40001c70:	ba 20 00 1d 	neg  %i5
40001c74:	c2 2f bf ff 	stb  %g1, [ %fp + -1 ]
40001c78:	80 a0 00 1d 	cmp  %g0, %i5
40001c7c:	82 10 20 01 	mov  1, %g1
40001c80:	10 bf fc 65 	b  40000e14 <_vfprintf_r+0x4a0>
40001c84:	84 40 20 00 	addx  %g0, 0, %g2
40001c88:	ea 24 20 04 	st  %l5, [ %l0 + 4 ]
40001c8c:	c6 07 b9 0c 	ld  [ %fp + -1780 ], %g3
40001c90:	c6 24 00 00 	st  %g3, [ %l0 ]
40001c94:	c2 07 bf b4 	ld  [ %fp + -76 ], %g1
40001c98:	aa 00 40 15 	add  %g1, %l5, %l5
40001c9c:	a0 04 20 08 	add  %l0, 8, %l0
40001ca0:	10 bf fb fd 	b  40000c94 <_vfprintf_r+0x320>
40001ca4:	ea 27 bf b4 	st  %l5, [ %fp + -76 ]
40001ca8:	90 07 bf c0 	add  %fp, -64, %o0
40001cac:	40 00 10 9b 	call  40005f18 <memcpy>
40001cb0:	94 10 20 08 	mov  8, %o2
40001cb4:	c4 07 bf c0 	ld  [ %fp + -64 ], %g2
40001cb8:	c6 07 bf c4 	ld  [ %fp + -60 ], %g3
40001cbc:	c4 27 b9 00 	st  %g2, [ %fp + -1792 ]
40001cc0:	c6 27 b8 fc 	st  %g3, [ %fp + -1796 ]
40001cc4:	b6 06 e0 08 	add  %i3, 8, %i3
40001cc8:	ba 10 00 02 	mov  %g2, %i5
40001ccc:	10 bf ff 70 	b  40001a8c <_vfprintf_r+0x1118>
40001cd0:	82 10 00 03 	mov  %g3, %g1
40001cd4:	ee 27 bf f0 	st  %l7, [ %fp + -16 ]
40001cd8:	92 10 20 00 	clr  %o1
40001cdc:	90 07 bf d0 	add  %fp, -48, %o0
40001ce0:	40 00 11 21 	call  40006164 <memset>
40001ce4:	94 10 20 08 	mov  8, %o2
40001ce8:	80 a5 a0 00 	cmp  %l6, 0
40001cec:	06 80 02 05 	bl  40002500 <_vfprintf_r+0x1b8c>
40001cf0:	ba 10 20 00 	clr  %i5
40001cf4:	82 10 20 00 	clr  %g1
40001cf8:	f6 27 b9 10 	st  %i3, [ %fp + -1776 ]
40001cfc:	b6 10 00 15 	mov  %l5, %i3
40001d00:	aa 10 00 10 	mov  %l0, %l5
40001d04:	a0 10 00 1d 	mov  %i5, %l0
40001d08:	ba 10 00 16 	mov  %l6, %i5
40001d0c:	10 80 00 03 	b  40001d18 <_vfprintf_r+0x13a4>
40001d10:	ac 10 00 01 	mov  %g1, %l6
40001d14:	a0 10 00 01 	mov  %g1, %l0
40001d18:	c2 07 bf f0 	ld  [ %fp + -16 ], %g1
40001d1c:	d4 00 40 16 	ld  [ %g1 + %l6 ], %o2
40001d20:	80 a2 a0 00 	cmp  %o2, 0
40001d24:	02 80 01 d4 	be  40002474 <_vfprintf_r+0x1b00>
40001d28:	d0 07 a0 44 	ld  [ %fp + 0x44 ], %o0
40001d2c:	92 07 bd 18 	add  %fp, -744, %o1
40001d30:	40 00 02 cc 	call  40002860 <_wcrtomb_r>
40001d34:	96 07 bf d0 	add  %fp, -48, %o3
40001d38:	80 a2 3f ff 	cmp  %o0, -1
40001d3c:	22 80 02 05 	be,a   40002550 <_vfprintf_r+0x1bdc>
40001d40:	c4 16 60 0c 	lduh  [ %i1 + 0xc ], %g2
40001d44:	82 02 00 10 	add  %o0, %l0, %g1
40001d48:	80 a0 40 1d 	cmp  %g1, %i5
40001d4c:	14 80 01 ca 	bg  40002474 <_vfprintf_r+0x1b00>
40001d50:	80 a7 40 01 	cmp  %i5, %g1
40001d54:	12 bf ff f0 	bne  40001d14 <_vfprintf_r+0x13a0>
40001d58:	ac 05 a0 04 	add  %l6, 4, %l6
40001d5c:	a0 10 00 15 	mov  %l5, %l0
40001d60:	aa 10 00 1b 	mov  %i3, %l5
40001d64:	f6 07 b9 10 	ld  [ %fp + -1776 ], %i3
40001d68:	80 a7 60 00 	cmp  %i5, 0
40001d6c:	12 80 01 a2 	bne  400023f4 <_vfprintf_r+0x1a80>
40001d70:	ac 10 20 00 	clr  %l6
40001d74:	c0 27 b9 10 	clr  [ %fp + -1776 ]
40001d78:	10 bf fc 79 	b  40000f5c <_vfprintf_r+0x5e8>
40001d7c:	c0 27 b9 08 	clr  [ %fp + -1784 ]
40001d80:	ee 24 00 00 	st  %l7, [ %l0 ]
40001d84:	a0 04 20 08 	add  %l0, 8, %l0
40001d88:	c4 07 bf b4 	ld  [ %fp + -76 ], %g2
40001d8c:	82 00 80 01 	add  %g2, %g1, %g1
40001d90:	c2 27 bf b4 	st  %g1, [ %fp + -76 ]
40001d94:	c2 07 bf b0 	ld  [ %fp + -80 ], %g1
40001d98:	82 00 60 01 	inc  %g1
40001d9c:	80 a0 60 07 	cmp  %g1, 7
40001da0:	14 80 00 ac 	bg  40002050 <_vfprintf_r+0x16dc>
40001da4:	c2 27 bf b0 	st  %g1, [ %fp + -80 ]
40001da8:	82 10 20 01 	mov  1, %g1
40001dac:	ea 07 bf f4 	ld  [ %fp + -12 ], %l5
40001db0:	c2 24 20 04 	st  %g1, [ %l0 + 4 ]
40001db4:	1b 10 00 2d 	sethi  %hi(0x4000b400), %o5
40001db8:	9a 13 63 80 	or  %o5, 0x380, %o5	! 4000b780 <___DTOR_END__+0x50>
40001dbc:	c2 07 bf b0 	ld  [ %fp + -80 ], %g1
40001dc0:	c4 07 bf b4 	ld  [ %fp + -76 ], %g2
40001dc4:	82 00 60 01 	inc  %g1
40001dc8:	da 24 00 00 	st  %o5, [ %l0 ]
40001dcc:	84 00 a0 01 	inc  %g2
40001dd0:	c2 27 bf b0 	st  %g1, [ %fp + -80 ]
40001dd4:	c4 27 bf b4 	st  %g2, [ %fp + -76 ]
40001dd8:	80 a0 60 07 	cmp  %g1, 7
40001ddc:	14 80 00 95 	bg  40002030 <_vfprintf_r+0x16bc>
40001de0:	a0 04 20 08 	add  %l0, 8, %l0
40001de4:	c2 07 bf f4 	ld  [ %fp + -12 ], %g1
40001de8:	c6 07 b8 f8 	ld  [ %fp + -1800 ], %g3
40001dec:	84 20 c0 01 	sub  %g3, %g1, %g2
40001df0:	c4 24 20 04 	st  %g2, [ %l0 + 4 ]
40001df4:	aa 05 c0 15 	add  %l7, %l5, %l5
40001df8:	ea 24 00 00 	st  %l5, [ %l0 ]
40001dfc:	c4 07 bf b4 	ld  [ %fp + -76 ], %g2
40001e00:	84 20 80 01 	sub  %g2, %g1, %g2
40001e04:	c2 07 bf b0 	ld  [ %fp + -80 ], %g1
40001e08:	10 bf fd d4 	b  40001558 <_vfprintf_r+0xbe4>
40001e0c:	82 00 60 01 	inc  %g1
40001e10:	ea 24 20 04 	st  %l5, [ %l0 + 4 ]
40001e14:	c4 07 b9 0c 	ld  [ %fp + -1780 ], %g2
40001e18:	c4 24 00 00 	st  %g2, [ %l0 ]
40001e1c:	c2 07 bf b4 	ld  [ %fp + -76 ], %g1
40001e20:	aa 00 40 15 	add  %g1, %l5, %l5
40001e24:	c2 07 bf b0 	ld  [ %fp + -80 ], %g1
40001e28:	82 00 60 01 	inc  %g1
40001e2c:	ea 27 bf b4 	st  %l5, [ %fp + -76 ]
40001e30:	c2 27 bf b0 	st  %g1, [ %fp + -80 ]
40001e34:	80 a0 60 07 	cmp  %g1, 7
40001e38:	04 80 00 08 	ble  40001e58 <_vfprintf_r+0x14e4>
40001e3c:	a0 04 20 08 	add  %l0, 8, %l0
40001e40:	90 10 00 19 	mov  %i1, %o0
40001e44:	7f ff fa be 	call  4000093c <__sprint>
40001e48:	92 07 bf ac 	add  %fp, -84, %o1
40001e4c:	80 a2 20 00 	cmp  %o0, 0
40001e50:	12 bf fd 38 	bne  40001330 <_vfprintf_r+0x9bc>
40001e54:	a0 10 00 13 	mov  %l3, %l0
40001e58:	80 8d 20 01 	btst  1, %l4
40001e5c:	02 bf fb 94 	be  40000cac <_vfprintf_r+0x338>
40001e60:	80 8d 20 04 	btst  4, %l4
40001e64:	82 10 20 01 	mov  1, %g1
40001e68:	c2 24 20 04 	st  %g1, [ %l0 + 4 ]
40001e6c:	07 10 00 2d 	sethi  %hi(0x4000b400), %g3
40001e70:	86 10 e3 80 	or  %g3, 0x380, %g3	! 4000b780 <___DTOR_END__+0x50>
40001e74:	c2 07 bf b0 	ld  [ %fp + -80 ], %g1
40001e78:	c4 07 bf b4 	ld  [ %fp + -76 ], %g2
40001e7c:	82 00 60 01 	inc  %g1
40001e80:	c6 24 00 00 	st  %g3, [ %l0 ]
40001e84:	84 00 a0 01 	inc  %g2
40001e88:	c2 27 bf b0 	st  %g1, [ %fp + -80 ]
40001e8c:	c4 27 bf b4 	st  %g2, [ %fp + -76 ]
40001e90:	80 a0 60 07 	cmp  %g1, 7
40001e94:	04 bf fb 85 	ble  40000ca8 <_vfprintf_r+0x334>
40001e98:	a0 04 20 08 	add  %l0, 8, %l0
40001e9c:	10 bf fd b6 	b  40001574 <_vfprintf_r+0xc00>
40001ea0:	90 10 00 19 	mov  %i1, %o0
40001ea4:	80 a5 a0 00 	cmp  %l6, 0
40001ea8:	22 bf fe ed 	be,a   40001a5c <_vfprintf_r+0x10e8>
40001eac:	ac 10 20 01 	mov  1, %l6
40001eb0:	10 bf fe ec 	b  40001a60 <_vfprintf_r+0x10ec>
40001eb4:	80 8d 20 08 	btst  8, %l4
40001eb8:	90 10 00 19 	mov  %i1, %o0
40001ebc:	7f ff fa a0 	call  4000093c <__sprint>
40001ec0:	92 07 bf ac 	add  %fp, -84, %o1
40001ec4:	80 a2 20 00 	cmp  %o0, 0
40001ec8:	12 bf fd 1a 	bne  40001330 <_vfprintf_r+0x9bc>
40001ecc:	a0 10 00 13 	mov  %l3, %l0
40001ed0:	10 bf fc dd 	b  40001244 <_vfprintf_r+0x8d0>
40001ed4:	c2 07 bf f4 	ld  [ %fp + -12 ], %g1
40001ed8:	84 10 20 04 	mov  4, %g2
40001edc:	2f 10 00 2d 	sethi  %hi(0x4000b400), %l7
40001ee0:	c2 2f bf ff 	stb  %g1, [ %fp + -1 ]
40001ee4:	c4 27 b9 10 	st  %g2, [ %fp + -1776 ]
40001ee8:	ba 10 20 03 	mov  3, %i5
40001eec:	ae 15 e3 50 	or  %l7, 0x350, %l7
40001ef0:	ac 10 20 00 	clr  %l6
40001ef4:	10 bf fc 21 	b  40000f78 <_vfprintf_r+0x604>
40001ef8:	c0 27 b9 08 	clr  [ %fp + -1784 ]
40001efc:	82 10 20 01 	mov  1, %g1
40001f00:	c2 24 20 04 	st  %g1, [ %l0 + 4 ]
40001f04:	03 10 00 2d 	sethi  %hi(0x4000b400), %g1
40001f08:	82 10 63 78 	or  %g1, 0x378, %g1	! 4000b778 <___DTOR_END__+0x48>
40001f0c:	c4 07 bf b4 	ld  [ %fp + -76 ], %g2
40001f10:	c2 24 00 00 	st  %g1, [ %l0 ]
40001f14:	c2 07 bf b0 	ld  [ %fp + -80 ], %g1
40001f18:	82 00 60 01 	inc  %g1
40001f1c:	84 00 a0 01 	inc  %g2
40001f20:	c2 27 bf b0 	st  %g1, [ %fp + -80 ]
40001f24:	c4 27 bf b4 	st  %g2, [ %fp + -76 ]
40001f28:	80 a0 60 07 	cmp  %g1, 7
40001f2c:	14 80 00 51 	bg  40002070 <_vfprintf_r+0x16fc>
40001f30:	a0 04 20 08 	add  %l0, 8, %l0
40001f34:	c2 07 bf f4 	ld  [ %fp + -12 ], %g1
40001f38:	80 a0 60 00 	cmp  %g1, 0
40001f3c:	02 80 00 30 	be  40001ffc <_vfprintf_r+0x1688>
40001f40:	da 07 b8 f8 	ld  [ %fp + -1800 ], %o5
40001f44:	82 10 20 01 	mov  1, %g1
40001f48:	c2 24 20 04 	st  %g1, [ %l0 + 4 ]
40001f4c:	c2 07 b8 ec 	ld  [ %fp + -1812 ], %g1
40001f50:	c2 24 00 00 	st  %g1, [ %l0 ]
40001f54:	c4 07 bf b0 	ld  [ %fp + -80 ], %g2
40001f58:	c6 07 bf b4 	ld  [ %fp + -76 ], %g3
40001f5c:	84 00 a0 01 	inc  %g2
40001f60:	86 00 e0 01 	inc  %g3
40001f64:	c4 27 bf b0 	st  %g2, [ %fp + -80 ]
40001f68:	c6 27 bf b4 	st  %g3, [ %fp + -76 ]
40001f6c:	80 a0 a0 07 	cmp  %g2, 7
40001f70:	14 80 01 6f 	bg  4000252c <_vfprintf_r+0x1bb8>
40001f74:	82 04 20 08 	add  %l0, 8, %g1
40001f78:	ea 07 bf f4 	ld  [ %fp + -12 ], %l5
40001f7c:	aa 20 00 15 	neg  %l5
40001f80:	80 a5 60 00 	cmp  %l5, 0
40001f84:	04 80 00 fe 	ble  4000237c <_vfprintf_r+0x1a08>
40001f88:	80 a5 60 10 	cmp  %l5, 0x10
40001f8c:	04 80 00 ea 	ble  40002334 <_vfprintf_r+0x19c0>
40001f90:	e2 27 b9 0c 	st  %l1, [ %fp + -1780 ]
40001f94:	ba 10 20 10 	mov  0x10, %i5
40001f98:	10 80 00 06 	b  40001fb0 <_vfprintf_r+0x163c>
40001f9c:	a0 07 bf ac 	add  %fp, -84, %l0
40001fa0:	aa 05 7f f0 	add  %l5, -16, %l5
40001fa4:	80 a5 60 10 	cmp  %l5, 0x10
40001fa8:	24 80 00 e4 	ble,a   40002338 <_vfprintf_r+0x19c4>
40001fac:	ea 20 60 04 	st  %l5, [ %g1 + 4 ]
40001fb0:	fa 20 60 04 	st  %i5, [ %g1 + 4 ]
40001fb4:	e2 20 40 00 	st  %l1, [ %g1 ]
40001fb8:	82 00 60 08 	add  %g1, 8, %g1
40001fbc:	c4 07 bf b0 	ld  [ %fp + -80 ], %g2
40001fc0:	c6 07 bf b4 	ld  [ %fp + -76 ], %g3
40001fc4:	84 00 a0 01 	inc  %g2
40001fc8:	86 00 e0 10 	add  %g3, 0x10, %g3
40001fcc:	c4 27 bf b0 	st  %g2, [ %fp + -80 ]
40001fd0:	80 a0 a0 07 	cmp  %g2, 7
40001fd4:	04 bf ff f3 	ble  40001fa0 <_vfprintf_r+0x162c>
40001fd8:	c6 27 bf b4 	st  %g3, [ %fp + -76 ]
40001fdc:	90 10 00 19 	mov  %i1, %o0
40001fe0:	7f ff fa 57 	call  4000093c <__sprint>
40001fe4:	92 10 00 10 	mov  %l0, %o1
40001fe8:	80 a2 20 00 	cmp  %o0, 0
40001fec:	12 bf fc d1 	bne  40001330 <_vfprintf_r+0x9bc>
40001ff0:	82 10 00 13 	mov  %l3, %g1
40001ff4:	10 bf ff ec 	b  40001fa4 <_vfprintf_r+0x1630>
40001ff8:	aa 05 7f f0 	add  %l5, -16, %l5
40001ffc:	80 a3 60 00 	cmp  %o5, 0
40002000:	02 bf fb 2b 	be  40000cac <_vfprintf_r+0x338>
40002004:	80 8d 20 04 	btst  4, %l4
40002008:	10 bf ff d0 	b  40001f48 <_vfprintf_r+0x15d4>
4000200c:	82 10 20 01 	mov  1, %g1
40002010:	90 10 00 19 	mov  %i1, %o0
40002014:	7f ff fa 4a 	call  4000093c <__sprint>
40002018:	92 07 bf ac 	add  %fp, -84, %o1
4000201c:	80 a2 20 00 	cmp  %o0, 0
40002020:	12 bf fc c4 	bne  40001330 <_vfprintf_r+0x9bc>
40002024:	a0 10 00 13 	mov  %l3, %l0
40002028:	10 bf fd 80 	b  40001628 <_vfprintf_r+0xcb4>
4000202c:	ea 07 bf f4 	ld  [ %fp + -12 ], %l5
40002030:	90 10 00 19 	mov  %i1, %o0
40002034:	7f ff fa 42 	call  4000093c <__sprint>
40002038:	92 07 bf ac 	add  %fp, -84, %o1
4000203c:	80 a2 20 00 	cmp  %o0, 0
40002040:	12 bf fc bc 	bne  40001330 <_vfprintf_r+0x9bc>
40002044:	a0 10 00 13 	mov  %l3, %l0
40002048:	10 bf ff 68 	b  40001de8 <_vfprintf_r+0x1474>
4000204c:	c2 07 bf f4 	ld  [ %fp + -12 ], %g1
40002050:	90 10 00 19 	mov  %i1, %o0
40002054:	7f ff fa 3a 	call  4000093c <__sprint>
40002058:	92 07 bf ac 	add  %fp, -84, %o1
4000205c:	80 a2 20 00 	cmp  %o0, 0
40002060:	12 bf fc b4 	bne  40001330 <_vfprintf_r+0x9bc>
40002064:	a0 10 00 13 	mov  %l3, %l0
40002068:	10 bf ff 51 	b  40001dac <_vfprintf_r+0x1438>
4000206c:	82 10 20 01 	mov  1, %g1
40002070:	90 10 00 19 	mov  %i1, %o0
40002074:	7f ff fa 32 	call  4000093c <__sprint>
40002078:	92 07 bf ac 	add  %fp, -84, %o1
4000207c:	80 a2 20 00 	cmp  %o0, 0
40002080:	12 bf fc ac 	bne  40001330 <_vfprintf_r+0x9bc>
40002084:	a0 10 00 13 	mov  %l3, %l0
40002088:	10 bf ff ac 	b  40001f38 <_vfprintf_r+0x15c4>
4000208c:	c2 07 bf f4 	ld  [ %fp + -12 ], %g1
40002090:	c0 27 b9 08 	clr  [ %fp + -1784 ]
40002094:	40 00 15 e8 	call  40007834 <strlen>
40002098:	ac 10 20 00 	clr  %l6
4000209c:	82 38 00 08 	xnor  %g0, %o0, %g1
400020a0:	ba 10 00 08 	mov  %o0, %i5
400020a4:	83 38 60 1f 	sra  %g1, 0x1f, %g1
400020a8:	82 0a 00 01 	and  %o0, %g1, %g1
400020ac:	10 bf fb ac 	b  40000f5c <_vfprintf_r+0x5e8>
400020b0:	c2 27 b9 10 	st  %g1, [ %fp + -1776 ]
400020b4:	c2 07 bf b4 	ld  [ %fp + -76 ], %g1
400020b8:	80 a0 60 00 	cmp  %g1, 0
400020bc:	12 80 00 05 	bne  400020d0 <_vfprintf_r+0x175c>
400020c0:	90 10 00 19 	mov  %i1, %o0
400020c4:	c0 27 bf b0 	clr  [ %fp + -80 ]
400020c8:	10 bf fc a1 	b  4000134c <_vfprintf_r+0x9d8>
400020cc:	c2 16 60 0c 	lduh  [ %i1 + 0xc ], %g1
400020d0:	7f ff fa 1b 	call  4000093c <__sprint>
400020d4:	92 07 bf ac 	add  %fp, -84, %o1
400020d8:	80 a2 20 00 	cmp  %o0, 0
400020dc:	32 bf fc 9c 	bne,a   4000134c <_vfprintf_r+0x9d8>
400020e0:	c2 16 60 0c 	lduh  [ %i1 + 0xc ], %g1
400020e4:	c0 27 bf b0 	clr  [ %fp + -80 ]
400020e8:	10 bf fc 99 	b  4000134c <_vfprintf_r+0x9d8>
400020ec:	c2 16 60 0c 	lduh  [ %i1 + 0xc ], %g1
400020f0:	10 bf fe 5b 	b  40001a5c <_vfprintf_r+0x10e8>
400020f4:	ac 10 20 06 	mov  6, %l6
400020f8:	ea 0e 80 00 	ldub  [ %i2 ], %l5
400020fc:	a8 15 20 10 	or  %l4, 0x10, %l4
40002100:	10 bf fa 74 	b  40000ad0 <_vfprintf_r+0x15c>
40002104:	ab 2d 60 18 	sll  %l5, 0x18, %l5
40002108:	92 10 00 01 	mov  %g1, %o1
4000210c:	c2 27 b8 e8 	st  %g1, [ %fp + -1816 ]
40002110:	40 00 15 3e 	call  40007608 <isnan>
40002114:	90 10 00 1d 	mov  %i5, %o0
40002118:	80 a2 20 00 	cmp  %o0, 0
4000211c:	12 80 00 ae 	bne  400023d4 <_vfprintf_r+0x1a60>
40002120:	c2 07 b8 e8 	ld  [ %fp + -1816 ], %g1
40002124:	ec 27 b9 08 	st  %l6, [ %fp + -1784 ]
40002128:	a8 15 21 00 	or  %l4, 0x100, %l4
4000212c:	80 a5 60 66 	cmp  %l5, 0x66
40002130:	02 80 00 07 	be  4000214c <_vfprintf_r+0x17d8>
40002134:	96 10 20 03 	mov  3, %o3
40002138:	80 a5 60 45 	cmp  %l5, 0x45
4000213c:	02 80 01 09 	be  40002560 <_vfprintf_r+0x1bec>
40002140:	80 a5 60 65 	cmp  %l5, 0x65
40002144:	02 80 01 07 	be  40002560 <_vfprintf_r+0x1bec>
40002148:	96 10 20 02 	mov  2, %o3
4000214c:	98 10 00 1d 	mov  %i5, %o4
40002150:	9a 10 00 01 	mov  %g1, %o5
40002154:	c0 2f b9 0c 	clrb  [ %fp + -1780 ]
40002158:	d8 3f bf b8 	std  %o4, [ %fp + -72 ]
4000215c:	c4 07 bf b8 	ld  [ %fp + -72 ], %g2
40002160:	80 a0 a0 00 	cmp  %g2, 0
40002164:	06 80 01 26 	bl  400025fc <_vfprintf_r+0x1c88>
40002168:	05 20 00 00 	sethi  %hi(0x80000000), %g2
4000216c:	fa 27 b9 10 	st  %i5, [ %fp + -1776 ]
40002170:	c2 27 b9 14 	st  %g1, [ %fp + -1772 ]
40002174:	84 07 bf ec 	add  %fp, -20, %g2
40002178:	c4 23 a0 5c 	st  %g2, [ %sp + 0x5c ]
4000217c:	84 07 bf e8 	add  %fp, -24, %g2
40002180:	d0 07 a0 44 	ld  [ %fp + 0x44 ], %o0
40002184:	c4 23 a0 60 	st  %g2, [ %sp + 0x60 ]
40002188:	d8 07 b9 08 	ld  [ %fp + -1784 ], %o4
4000218c:	c2 27 b8 e8 	st  %g1, [ %fp + -1816 ]
40002190:	c4 1f b9 10 	ldd  [ %fp + -1776 ], %g2
40002194:	9a 07 bf f4 	add  %fp, -12, %o5
40002198:	92 10 00 02 	mov  %g2, %o1
4000219c:	40 00 04 4a 	call  400032c4 <_dtoa_r>
400021a0:	94 10 00 03 	mov  %g3, %o2
400021a4:	80 a5 60 47 	cmp  %l5, 0x47
400021a8:	ae 10 00 08 	mov  %o0, %l7
400021ac:	02 80 00 c4 	be  400024bc <_vfprintf_r+0x1b48>
400021b0:	c2 07 b8 e8 	ld  [ %fp + -1816 ], %g1
400021b4:	80 a5 60 67 	cmp  %l5, 0x67
400021b8:	02 80 00 c2 	be  400024c0 <_vfprintf_r+0x1b4c>
400021bc:	80 8d 20 01 	btst  1, %l4
400021c0:	c6 07 b9 08 	ld  [ %fp + -1784 ], %g3
400021c4:	80 a5 60 66 	cmp  %l5, 0x66
400021c8:	02 80 01 11 	be  4000260c <_vfprintf_r+0x1c98>
400021cc:	84 05 c0 03 	add  %l7, %g3, %g2
400021d0:	92 10 00 01 	mov  %g1, %o1
400021d4:	03 10 00 2d 	sethi  %hi(0x4000b400), %g1
400021d8:	d4 18 63 90 	ldd  [ %g1 + 0x390 ], %o2	! 4000b790 <___DTOR_END__+0x60>
400021dc:	c4 27 b8 e4 	st  %g2, [ %fp + -1820 ]
400021e0:	40 00 1b 21 	call  40008e64 <__eqdf2>
400021e4:	90 10 00 1d 	mov  %i5, %o0
400021e8:	80 a2 20 00 	cmp  %o0, 0
400021ec:	12 80 00 b9 	bne  400024d0 <_vfprintf_r+0x1b5c>
400021f0:	c4 07 b8 e4 	ld  [ %fp + -1820 ], %g2
400021f4:	c4 27 bf e8 	st  %g2, [ %fp + -24 ]
400021f8:	82 1d 60 67 	xor  %l5, 0x67, %g1
400021fc:	84 20 80 17 	sub  %g2, %l7, %g2
40002200:	80 a0 00 01 	cmp  %g0, %g1
40002204:	82 60 3f ff 	subx  %g0, -1, %g1
40002208:	80 a5 60 47 	cmp  %l5, 0x47
4000220c:	02 80 00 05 	be  40002220 <_vfprintf_r+0x18ac>
40002210:	c4 27 b8 f8 	st  %g2, [ %fp + -1800 ]
40002214:	80 a0 60 00 	cmp  %g1, 0
40002218:	02 80 00 9c 	be  40002488 <_vfprintf_r+0x1b14>
4000221c:	80 a5 60 65 	cmp  %l5, 0x65
40002220:	fa 07 bf f4 	ld  [ %fp + -12 ], %i5
40002224:	80 a7 7f fd 	cmp  %i5, -3
40002228:	06 80 00 06 	bl  40002240 <_vfprintf_r+0x18cc>
4000222c:	80 a0 60 00 	cmp  %g1, 0
40002230:	80 a5 80 1d 	cmp  %l6, %i5
40002234:	16 80 00 9a 	bge  4000249c <_vfprintf_r+0x1b28>
40002238:	da 07 b8 f8 	ld  [ %fp + -1800 ], %o5
4000223c:	80 a0 60 00 	cmp  %g1, 0
40002240:	aa 10 20 45 	mov  0x45, %l5
40002244:	02 80 00 04 	be  40002254 <_vfprintf_r+0x18e0>
40002248:	82 10 20 45 	mov  0x45, %g1
4000224c:	82 10 20 65 	mov  0x65, %g1
40002250:	aa 10 20 65 	mov  0x65, %l5
40002254:	ba 07 7f ff 	add  %i5, -1, %i5
40002258:	c2 2f bf e0 	stb  %g1, [ %fp + -32 ]
4000225c:	80 a7 60 00 	cmp  %i5, 0
40002260:	06 80 01 0a 	bl  40002688 <_vfprintf_r+0x1d14>
40002264:	fa 27 bf f4 	st  %i5, [ %fp + -12 ]
40002268:	82 10 20 2b 	mov  0x2b, %g1
4000226c:	c2 2f bf e1 	stb  %g1, [ %fp + -31 ]
40002270:	80 a7 60 09 	cmp  %i5, 9
40002274:	14 80 00 bf 	bg  40002570 <_vfprintf_r+0x1bfc>
40002278:	82 07 bf a8 	add  %fp, -88, %g1
4000227c:	ba 07 60 30 	add  %i5, 0x30, %i5
40002280:	82 10 20 30 	mov  0x30, %g1
40002284:	c2 2f bf e2 	stb  %g1, [ %fp + -30 ]
40002288:	fa 2f bf e3 	stb  %i5, [ %fp + -29 ]
4000228c:	84 07 bf e4 	add  %fp, -28, %g2
40002290:	c6 07 b8 f8 	ld  [ %fp + -1800 ], %g3
40002294:	82 07 bf e0 	add  %fp, -32, %g1
40002298:	82 20 80 01 	sub  %g2, %g1, %g1
4000229c:	c2 27 b8 f4 	st  %g1, [ %fp + -1804 ]
400022a0:	80 a0 e0 01 	cmp  %g3, 1
400022a4:	04 80 00 11 	ble  400022e8 <_vfprintf_r+0x1974>
400022a8:	ba 00 40 03 	add  %g1, %g3, %i5
400022ac:	ba 07 60 01 	inc  %i5
400022b0:	c4 0f b9 0c 	ldub  [ %fp + -1780 ], %g2
400022b4:	80 88 a0 ff 	btst  0xff, %g2
400022b8:	02 80 00 19 	be  4000231c <_vfprintf_r+0x19a8>
400022bc:	82 38 00 1d 	xnor  %g0, %i5, %g1
400022c0:	82 10 20 2d 	mov  0x2d, %g1
400022c4:	ac 10 20 00 	clr  %l6
400022c8:	c2 2f bf ff 	stb  %g1, [ %fp + -1 ]
400022cc:	c0 27 b9 08 	clr  [ %fp + -1784 ]
400022d0:	82 38 00 1d 	xnor  %g0, %i5, %g1
400022d4:	83 38 60 1f 	sra  %g1, 0x1f, %g1
400022d8:	82 0f 40 01 	and  %i5, %g1, %g1
400022dc:	82 00 60 01 	inc  %g1
400022e0:	10 bf fb 26 	b  40000f78 <_vfprintf_r+0x604>
400022e4:	c2 27 b9 10 	st  %g1, [ %fp + -1776 ]
400022e8:	80 8d 20 01 	btst  1, %l4
400022ec:	02 bf ff f2 	be  400022b4 <_vfprintf_r+0x1940>
400022f0:	c4 0f b9 0c 	ldub  [ %fp + -1780 ], %g2
400022f4:	10 bf ff f0 	b  400022b4 <_vfprintf_r+0x1940>
400022f8:	ba 07 60 01 	inc  %i5
400022fc:	90 10 00 19 	mov  %i1, %o0
40002300:	7f ff f9 8f 	call  4000093c <__sprint>
40002304:	92 07 bf ac 	add  %fp, -84, %o1
40002308:	80 a2 20 00 	cmp  %o0, 0
4000230c:	12 bf fc 09 	bne  40001330 <_vfprintf_r+0x9bc>
40002310:	a0 10 00 13 	mov  %l3, %l0
40002314:	10 bf fb e1 	b  40001298 <_vfprintf_r+0x924>
40002318:	c4 07 b8 f8 	ld  [ %fp + -1800 ], %g2
4000231c:	ac 10 20 00 	clr  %l6
40002320:	83 38 60 1f 	sra  %g1, 0x1f, %g1
40002324:	c0 27 b9 08 	clr  [ %fp + -1784 ]
40002328:	82 0f 40 01 	and  %i5, %g1, %g1
4000232c:	10 bf fb 0c 	b  40000f5c <_vfprintf_r+0x5e8>
40002330:	c2 27 b9 10 	st  %g1, [ %fp + -1776 ]
40002334:	ea 20 60 04 	st  %l5, [ %g1 + 4 ]
40002338:	c4 07 b9 0c 	ld  [ %fp + -1780 ], %g2
4000233c:	c4 20 40 00 	st  %g2, [ %g1 ]
40002340:	c4 07 bf b4 	ld  [ %fp + -76 ], %g2
40002344:	aa 00 80 15 	add  %g2, %l5, %l5
40002348:	c4 07 bf b0 	ld  [ %fp + -80 ], %g2
4000234c:	84 00 a0 01 	inc  %g2
40002350:	ea 27 bf b4 	st  %l5, [ %fp + -76 ]
40002354:	c4 27 bf b0 	st  %g2, [ %fp + -80 ]
40002358:	80 a0 a0 07 	cmp  %g2, 7
4000235c:	04 80 00 08 	ble  4000237c <_vfprintf_r+0x1a08>
40002360:	82 00 60 08 	add  %g1, 8, %g1
40002364:	90 10 00 19 	mov  %i1, %o0
40002368:	7f ff f9 75 	call  4000093c <__sprint>
4000236c:	92 07 bf ac 	add  %fp, -84, %o1
40002370:	80 a2 20 00 	cmp  %o0, 0
40002374:	12 bf fb ef 	bne  40001330 <_vfprintf_r+0x9bc>
40002378:	82 10 00 13 	mov  %l3, %g1
4000237c:	c6 07 b8 f8 	ld  [ %fp + -1800 ], %g3
40002380:	c6 20 60 04 	st  %g3, [ %g1 + 4 ]
40002384:	ee 20 40 00 	st  %l7, [ %g1 ]
40002388:	a0 00 60 08 	add  %g1, 8, %l0
4000238c:	c4 07 bf b4 	ld  [ %fp + -76 ], %g2
40002390:	c2 07 bf b0 	ld  [ %fp + -80 ], %g1
40002394:	82 00 60 01 	inc  %g1
40002398:	84 00 80 03 	add  %g2, %g3, %g2
4000239c:	c2 27 bf b0 	st  %g1, [ %fp + -80 ]
400023a0:	80 a0 60 07 	cmp  %g1, 7
400023a4:	04 bf fa 41 	ble  40000ca8 <_vfprintf_r+0x334>
400023a8:	c4 27 bf b4 	st  %g2, [ %fp + -76 ]
400023ac:	10 bf fc 72 	b  40001574 <_vfprintf_r+0xc00>
400023b0:	90 10 00 19 	mov  %i1, %o0
400023b4:	86 10 20 06 	mov  6, %g3
400023b8:	2f 10 00 2d 	sethi  %hi(0x4000b400), %l7
400023bc:	c6 27 b9 10 	st  %g3, [ %fp + -1776 ]
400023c0:	ba 10 20 06 	mov  6, %i5
400023c4:	ae 15 e3 88 	or  %l7, 0x388, %l7
400023c8:	ac 10 20 00 	clr  %l6
400023cc:	10 bf f9 d1 	b  40000b10 <_vfprintf_r+0x19c>
400023d0:	c0 27 b9 08 	clr  [ %fp + -1784 ]
400023d4:	84 10 20 03 	mov  3, %g2
400023d8:	2f 10 00 2d 	sethi  %hi(0x4000b400), %l7
400023dc:	c4 27 b9 10 	st  %g2, [ %fp + -1776 ]
400023e0:	ac 10 20 00 	clr  %l6
400023e4:	ba 10 20 03 	mov  3, %i5
400023e8:	c0 27 b9 08 	clr  [ %fp + -1784 ]
400023ec:	10 bf fa dc 	b  40000f5c <_vfprintf_r+0x5e8>
400023f0:	ae 15 e3 70 	or  %l7, 0x370, %l7
400023f4:	d0 07 a0 44 	ld  [ %fp + 0x44 ], %o0
400023f8:	40 00 0c d6 	call  40005750 <_malloc_r>
400023fc:	92 07 60 01 	add  %i5, 1, %o1
40002400:	ac 92 20 00 	orcc  %o0, 0, %l6
40002404:	02 80 00 52 	be  4000254c <_vfprintf_r+0x1bd8>
40002408:	94 10 20 08 	mov  8, %o2
4000240c:	92 10 20 00 	clr  %o1
40002410:	40 00 0f 55 	call  40006164 <memset>
40002414:	90 07 bf d0 	add  %fp, -48, %o0
40002418:	d0 07 a0 44 	ld  [ %fp + 0x44 ], %o0
4000241c:	92 10 00 16 	mov  %l6, %o1
40002420:	98 07 bf d0 	add  %fp, -48, %o4
40002424:	94 07 bf f0 	add  %fp, -16, %o2
40002428:	40 00 01 31 	call  400028ec <_wcsrtombs_r>
4000242c:	96 10 00 1d 	mov  %i5, %o3
40002430:	80 a7 40 08 	cmp  %i5, %o0
40002434:	12 80 00 b7 	bne  40002710 <_vfprintf_r+0x1d9c>
40002438:	82 38 00 1d 	xnor  %g0, %i5, %g1
4000243c:	c0 2d 80 1d 	clrb  [ %l6 + %i5 ]
40002440:	ae 10 00 16 	mov  %l6, %l7
40002444:	83 38 60 1f 	sra  %g1, 0x1f, %g1
40002448:	c0 27 b9 08 	clr  [ %fp + -1784 ]
4000244c:	82 0f 40 01 	and  %i5, %g1, %g1
40002450:	10 bf fa c3 	b  40000f5c <_vfprintf_r+0x5e8>
40002454:	c2 27 b9 10 	st  %g1, [ %fp + -1776 ]
40002458:	80 88 62 00 	btst  0x200, %g1
4000245c:	12 bf fb c6 	bne  40001374 <_vfprintf_r+0xa00>
40002460:	90 06 60 58 	add  %i1, 0x58, %o0
40002464:	40 00 1e 2d 	call  40009d18 <___st_pthread_mutex_unlock>
40002468:	b0 10 3f ff 	mov  -1, %i0
4000246c:	81 c7 e0 08 	ret 
40002470:	81 e8 00 00 	restore 
40002474:	ba 10 00 10 	mov  %l0, %i5
40002478:	a0 10 00 15 	mov  %l5, %l0
4000247c:	aa 10 00 1b 	mov  %i3, %l5
40002480:	10 bf fe 3a 	b  40001d68 <_vfprintf_r+0x13f4>
40002484:	f6 07 b9 10 	ld  [ %fp + -1776 ], %i3
40002488:	04 80 00 5a 	ble  400025f0 <_vfprintf_r+0x1c7c>
4000248c:	80 a5 60 66 	cmp  %l5, 0x66
40002490:	02 80 00 8a 	be  400026b8 <_vfprintf_r+0x1d44>
40002494:	fa 07 bf f4 	ld  [ %fp + -12 ], %i5
40002498:	da 07 b8 f8 	ld  [ %fp + -1800 ], %o5
4000249c:	80 a3 40 1d 	cmp  %o5, %i5
400024a0:	14 80 00 72 	bg  40002668 <_vfprintf_r+0x1cf4>
400024a4:	80 a7 60 00 	cmp  %i5, 0
400024a8:	80 8d 20 01 	btst  1, %l4
400024ac:	02 bf ff 81 	be  400022b0 <_vfprintf_r+0x193c>
400024b0:	aa 10 20 67 	mov  0x67, %l5
400024b4:	10 bf ff 7f 	b  400022b0 <_vfprintf_r+0x193c>
400024b8:	ba 07 60 01 	inc  %i5
400024bc:	80 8d 20 01 	btst  1, %l4
400024c0:	12 bf ff 41 	bne  400021c4 <_vfprintf_r+0x1850>
400024c4:	c6 07 b9 08 	ld  [ %fp + -1784 ], %g3
400024c8:	10 bf ff 4c 	b  400021f8 <_vfprintf_r+0x1884>
400024cc:	c4 07 bf e8 	ld  [ %fp + -24 ], %g2
400024d0:	c8 07 bf e8 	ld  [ %fp + -24 ], %g4
400024d4:	80 a0 80 04 	cmp  %g2, %g4
400024d8:	82 10 00 04 	mov  %g4, %g1
400024dc:	08 80 00 8b 	bleu  40002708 <_vfprintf_r+0x1d94>
400024e0:	86 10 20 30 	mov  0x30, %g3
400024e4:	c6 28 40 00 	stb  %g3, [ %g1 ]
400024e8:	82 00 60 01 	inc  %g1
400024ec:	80 a0 80 01 	cmp  %g2, %g1
400024f0:	18 bf ff fd 	bgu  400024e4 <_vfprintf_r+0x1b70>
400024f4:	c2 27 bf e8 	st  %g1, [ %fp + -24 ]
400024f8:	10 bf ff 41 	b  400021fc <_vfprintf_r+0x1888>
400024fc:	82 1d 60 67 	xor  %l5, 0x67, %g1
40002500:	d0 07 a0 44 	ld  [ %fp + 0x44 ], %o0
40002504:	92 10 20 00 	clr  %o1
40002508:	94 07 bf f0 	add  %fp, -16, %o2
4000250c:	96 10 20 00 	clr  %o3
40002510:	40 00 00 f7 	call  400028ec <_wcsrtombs_r>
40002514:	98 07 bf d0 	add  %fp, -48, %o4
40002518:	80 a2 3f ff 	cmp  %o0, -1
4000251c:	02 80 00 0c 	be  4000254c <_vfprintf_r+0x1bd8>
40002520:	ba 10 00 08 	mov  %o0, %i5
40002524:	10 bf fe 11 	b  40001d68 <_vfprintf_r+0x13f4>
40002528:	ee 27 bf f0 	st  %l7, [ %fp + -16 ]
4000252c:	90 10 00 19 	mov  %i1, %o0
40002530:	7f ff f9 03 	call  4000093c <__sprint>
40002534:	92 07 bf ac 	add  %fp, -84, %o1
40002538:	80 a2 20 00 	cmp  %o0, 0
4000253c:	12 bf fb 7d 	bne  40001330 <_vfprintf_r+0x9bc>
40002540:	82 10 00 13 	mov  %l3, %g1
40002544:	10 bf fe 8e 	b  40001f7c <_vfprintf_r+0x1608>
40002548:	ea 07 bf f4 	ld  [ %fp + -12 ], %l5
4000254c:	c4 16 60 0c 	lduh  [ %i1 + 0xc ], %g2
40002550:	84 10 a0 40 	or  %g2, 0x40, %g2
40002554:	82 10 00 02 	mov  %g2, %g1
40002558:	10 bf fb 7d 	b  4000134c <_vfprintf_r+0x9d8>
4000255c:	c4 36 60 0c 	sth  %g2, [ %i1 + 0xc ]
40002560:	86 05 a0 01 	add  %l6, 1, %g3
40002564:	96 10 20 02 	mov  2, %o3
40002568:	10 bf fe f9 	b  4000214c <_vfprintf_r+0x17d8>
4000256c:	c6 27 b9 08 	st  %g3, [ %fp + -1784 ]
40002570:	ac 10 00 01 	mov  %g1, %l6
40002574:	c2 27 b8 e8 	st  %g1, [ %fp + -1816 ]
40002578:	90 10 00 1d 	mov  %i5, %o0
4000257c:	92 10 20 0a 	mov  0xa, %o1
40002580:	40 00 17 0a 	call  400081a8 <.rem>
40002584:	ac 05 bf ff 	add  %l6, -1, %l6
40002588:	84 02 20 30 	add  %o0, 0x30, %g2
4000258c:	92 10 20 0a 	mov  0xa, %o1
40002590:	90 10 00 1d 	mov  %i5, %o0
40002594:	40 00 16 59 	call  40007ef8 <.div>
40002598:	c4 2d 80 00 	stb  %g2, [ %l6 ]
4000259c:	c2 07 b8 e8 	ld  [ %fp + -1816 ], %g1
400025a0:	80 a2 20 09 	cmp  %o0, 9
400025a4:	14 bf ff f4 	bg  40002574 <_vfprintf_r+0x1c00>
400025a8:	ba 10 00 08 	mov  %o0, %i5
400025ac:	88 02 20 30 	add  %o0, 0x30, %g4
400025b0:	84 05 bf ff 	add  %l6, -1, %g2
400025b4:	86 10 00 16 	mov  %l6, %g3
400025b8:	c8 2d bf ff 	stb  %g4, [ %l6 + -1 ]
400025bc:	80 a0 40 02 	cmp  %g1, %g2
400025c0:	18 80 00 06 	bgu  400025d8 <_vfprintf_r+0x1c64>
400025c4:	84 07 bf e2 	add  %fp, -30, %g2
400025c8:	10 bf ff 33 	b  40002294 <_vfprintf_r+0x1920>
400025cc:	c6 07 b8 f8 	ld  [ %fp + -1800 ], %g3
400025d0:	c8 08 c0 00 	ldub  [ %g3 ], %g4
400025d4:	86 00 e0 01 	inc  %g3
400025d8:	c8 28 80 00 	stb  %g4, [ %g2 ]
400025dc:	80 a0 40 03 	cmp  %g1, %g3
400025e0:	18 bf ff fc 	bgu  400025d0 <_vfprintf_r+0x1c5c>
400025e4:	84 00 a0 01 	inc  %g2
400025e8:	10 bf ff 2b 	b  40002294 <_vfprintf_r+0x1920>
400025ec:	c6 07 b8 f8 	ld  [ %fp + -1800 ], %g3
400025f0:	fa 07 bf f4 	ld  [ %fp + -12 ], %i5
400025f4:	10 bf ff 18 	b  40002254 <_vfprintf_r+0x18e0>
400025f8:	82 10 00 15 	mov  %l5, %g1
400025fc:	9a 10 20 2d 	mov  0x2d, %o5
40002600:	ba 1f 40 02 	xor  %i5, %g2, %i5
40002604:	10 bf fe da 	b  4000216c <_vfprintf_r+0x17f8>
40002608:	da 2f b9 0c 	stb  %o5, [ %fp + -1780 ]
4000260c:	c8 4d c0 00 	ldsb  [ %l7 ], %g4
40002610:	80 a1 20 30 	cmp  %g4, 0x30
40002614:	02 80 00 05 	be  40002628 <_vfprintf_r+0x1cb4>
40002618:	1b 10 00 2d 	sethi  %hi(0x4000b400), %o5
4000261c:	c6 07 bf f4 	ld  [ %fp + -12 ], %g3
40002620:	10 bf fe ec 	b  400021d0 <_vfprintf_r+0x185c>
40002624:	84 00 80 03 	add  %g2, %g3, %g2
40002628:	d4 1b 63 90 	ldd  [ %o5 + 0x390 ], %o2
4000262c:	92 10 00 01 	mov  %g1, %o1
40002630:	c2 27 b8 e8 	st  %g1, [ %fp + -1816 ]
40002634:	c4 27 b8 e4 	st  %g2, [ %fp + -1820 ]
40002638:	40 00 1a 24 	call  40008ec8 <__nedf2>
4000263c:	90 10 00 1d 	mov  %i5, %o0
40002640:	c2 07 b8 e8 	ld  [ %fp + -1816 ], %g1
40002644:	80 a2 20 00 	cmp  %o0, 0
40002648:	02 bf ff f5 	be  4000261c <_vfprintf_r+0x1ca8>
4000264c:	c4 07 b8 e4 	ld  [ %fp + -1820 ], %g2
40002650:	da 07 b9 08 	ld  [ %fp + -1784 ], %o5
40002654:	88 10 20 01 	mov  1, %g4
40002658:	86 21 00 0d 	sub  %g4, %o5, %g3
4000265c:	c6 27 bf f4 	st  %g3, [ %fp + -12 ]
40002660:	10 bf fe dc 	b  400021d0 <_vfprintf_r+0x185c>
40002664:	84 00 80 03 	add  %g2, %g3, %g2
40002668:	82 10 20 02 	mov  2, %g1
4000266c:	04 80 00 03 	ble  40002678 <_vfprintf_r+0x1d04>
40002670:	ba 20 40 1d 	sub  %g1, %i5, %i5
40002674:	ba 10 20 01 	mov  1, %i5
40002678:	c2 07 b8 f8 	ld  [ %fp + -1800 ], %g1
4000267c:	ba 07 40 01 	add  %i5, %g1, %i5
40002680:	10 bf ff 0c 	b  400022b0 <_vfprintf_r+0x193c>
40002684:	aa 10 20 67 	mov  0x67, %l5
40002688:	82 10 20 2d 	mov  0x2d, %g1
4000268c:	ba 20 00 1d 	neg  %i5
40002690:	10 bf fe f8 	b  40002270 <_vfprintf_r+0x18fc>
40002694:	c2 2f bf e1 	stb  %g1, [ %fp + -31 ]
40002698:	ec 06 c0 00 	ld  [ %i3 ], %l6
4000269c:	80 a5 a0 00 	cmp  %l6, 0
400026a0:	16 bf fc 59 	bge  40001804 <_vfprintf_r+0xe90>
400026a4:	b6 06 e0 04 	add  %i3, 4, %i3
400026a8:	ea 0e 80 00 	ldub  [ %i2 ], %l5
400026ac:	ab 2d 60 18 	sll  %l5, 0x18, %l5
400026b0:	10 bf f9 08 	b  40000ad0 <_vfprintf_r+0x15c>
400026b4:	ac 10 3f ff 	mov  -1, %l6
400026b8:	80 a7 60 00 	cmp  %i5, 0
400026bc:	04 80 00 0b 	ble  400026e8 <_vfprintf_r+0x1d74>
400026c0:	80 a5 a0 00 	cmp  %l6, 0
400026c4:	32 80 00 06 	bne,a   400026dc <_vfprintf_r+0x1d68>
400026c8:	ba 07 60 01 	inc  %i5
400026cc:	80 8d 20 01 	btst  1, %l4
400026d0:	02 bf fe f9 	be  400022b4 <_vfprintf_r+0x1940>
400026d4:	c4 0f b9 0c 	ldub  [ %fp + -1780 ], %g2
400026d8:	ba 07 60 01 	inc  %i5
400026dc:	aa 10 20 66 	mov  0x66, %l5
400026e0:	10 bf fe f4 	b  400022b0 <_vfprintf_r+0x193c>
400026e4:	ba 07 40 16 	add  %i5, %l6, %i5
400026e8:	12 80 00 06 	bne  40002700 <_vfprintf_r+0x1d8c>
400026ec:	ba 05 a0 02 	add  %l6, 2, %i5
400026f0:	80 8d 20 01 	btst  1, %l4
400026f4:	02 bf fe ef 	be  400022b0 <_vfprintf_r+0x193c>
400026f8:	ba 10 20 01 	mov  1, %i5
400026fc:	ba 05 a0 02 	add  %l6, 2, %i5
40002700:	10 bf fe ec 	b  400022b0 <_vfprintf_r+0x193c>
40002704:	aa 10 20 66 	mov  0x66, %l5
40002708:	10 bf fe bc 	b  400021f8 <_vfprintf_r+0x1884>
4000270c:	84 10 00 04 	mov  %g4, %g2
40002710:	c2 16 60 0c 	lduh  [ %i1 + 0xc ], %g1
40002714:	82 10 60 40 	or  %g1, 0x40, %g1
40002718:	10 bf fb 09 	b  4000133c <_vfprintf_r+0x9c8>
4000271c:	c2 36 60 0c 	sth  %g1, [ %i1 + 0xc ]

40002720 <vfprintf>:
40002720:	03 10 00 2f 	sethi  %hi(0x4000bc00), %g1
40002724:	84 10 00 08 	mov  %o0, %g2
40002728:	d0 00 60 d8 	ld  [ %g1 + 0xd8 ], %o0
4000272c:	82 10 00 09 	mov  %o1, %g1
40002730:	96 10 00 0a 	mov  %o2, %o3
40002734:	92 10 00 02 	mov  %g2, %o1
40002738:	94 10 00 01 	mov  %g1, %o2
4000273c:	82 13 c0 00 	mov  %o7, %g1
40002740:	7f ff f8 8d 	call  40000974 <_vfprintf_r>
40002744:	9e 10 40 00 	mov  %g1, %o7
40002748:	01 00 00 00 	nop 

4000274c <__swbuf>:
4000274c:	9d e3 bf a0 	save  %sp, -96, %sp
40002750:	03 10 00 2f 	sethi  %hi(0x4000bc00), %g1
40002754:	d0 00 60 d8 	ld  [ %g1 + 0xd8 ], %o0	! 4000bcd8 <_impure_ptr>
40002758:	80 a2 20 00 	cmp  %o0, 0
4000275c:	22 80 00 07 	be,a   40002778 <__swbuf+0x2c>
40002760:	c2 06 60 18 	ld  [ %i1 + 0x18 ], %g1
40002764:	c2 02 20 38 	ld  [ %o0 + 0x38 ], %g1
40002768:	80 a0 60 00 	cmp  %g1, 0
4000276c:	02 80 00 2b 	be  40002818 <__swbuf+0xcc>
40002770:	01 00 00 00 	nop 
40002774:	c2 06 60 18 	ld  [ %i1 + 0x18 ], %g1
40002778:	c2 26 60 08 	st  %g1, [ %i1 + 8 ]
4000277c:	c2 16 60 0c 	lduh  [ %i1 + 0xc ], %g1
40002780:	80 88 60 08 	btst  8, %g1
40002784:	02 80 00 29 	be  40002828 <__swbuf+0xdc>
40002788:	01 00 00 00 	nop 
4000278c:	c4 06 60 10 	ld  [ %i1 + 0x10 ], %g2
40002790:	80 a0 a0 00 	cmp  %g2, 0
40002794:	02 80 00 25 	be  40002828 <__swbuf+0xdc>
40002798:	01 00 00 00 	nop 
4000279c:	c2 06 40 00 	ld  [ %i1 ], %g1
400027a0:	c6 06 60 14 	ld  [ %i1 + 0x14 ], %g3
400027a4:	84 20 40 02 	sub  %g1, %g2, %g2
400027a8:	80 a0 80 03 	cmp  %g2, %g3
400027ac:	16 80 00 26 	bge  40002844 <__swbuf+0xf8>
400027b0:	84 00 a0 01 	inc  %g2
400027b4:	c6 06 60 08 	ld  [ %i1 + 8 ], %g3
400027b8:	86 00 ff ff 	add  %g3, -1, %g3
400027bc:	c6 26 60 08 	st  %g3, [ %i1 + 8 ]
400027c0:	f0 28 40 00 	stb  %i0, [ %g1 ]
400027c4:	82 00 60 01 	inc  %g1
400027c8:	c2 26 40 00 	st  %g1, [ %i1 ]
400027cc:	c2 06 60 14 	ld  [ %i1 + 0x14 ], %g1
400027d0:	80 a0 40 02 	cmp  %g1, %g2
400027d4:	02 80 00 0a 	be  400027fc <__swbuf+0xb0>
400027d8:	b0 0e 20 ff 	and  %i0, 0xff, %i0
400027dc:	80 a6 20 0a 	cmp  %i0, 0xa
400027e0:	22 80 00 04 	be,a   400027f0 <__swbuf+0xa4>
400027e4:	c2 16 60 0c 	lduh  [ %i1 + 0xc ], %g1
400027e8:	81 c7 e0 08 	ret 
400027ec:	81 e8 00 00 	restore 
400027f0:	80 88 60 01 	btst  1, %g1
400027f4:	02 bf ff fd 	be  400027e8 <__swbuf+0x9c>
400027f8:	01 00 00 00 	nop 
400027fc:	40 00 07 bd 	call  400046f0 <fflush>
40002800:	90 10 00 19 	mov  %i1, %o0
40002804:	80 a2 20 00 	cmp  %o0, 0
40002808:	02 bf ff f8 	be  400027e8 <__swbuf+0x9c>
4000280c:	01 00 00 00 	nop 
40002810:	81 c7 e0 08 	ret 
40002814:	91 e8 3f ff 	restore  %g0, -1, %o0
40002818:	40 00 08 6b 	call  400049c4 <__sinit>
4000281c:	01 00 00 00 	nop 
40002820:	10 bf ff d6 	b  40002778 <__swbuf+0x2c>
40002824:	c2 06 60 18 	ld  [ %i1 + 0x18 ], %g1
40002828:	40 00 01 89 	call  40002e4c <__swsetup>
4000282c:	90 10 00 19 	mov  %i1, %o0
40002830:	80 a2 20 00 	cmp  %o0, 0
40002834:	12 bf ff f7 	bne  40002810 <__swbuf+0xc4>
40002838:	01 00 00 00 	nop 
4000283c:	10 bf ff d8 	b  4000279c <__swbuf+0x50>
40002840:	c4 06 60 10 	ld  [ %i1 + 0x10 ], %g2
40002844:	40 00 07 ab 	call  400046f0 <fflush>
40002848:	90 10 00 19 	mov  %i1, %o0
4000284c:	80 a2 20 00 	cmp  %o0, 0
40002850:	12 bf ff f0 	bne  40002810 <__swbuf+0xc4>
40002854:	84 10 20 01 	mov  1, %g2
40002858:	10 bf ff d7 	b  400027b4 <__swbuf+0x68>
4000285c:	c2 06 40 00 	ld  [ %i1 ], %g1

40002860 <_wcrtomb_r>:
40002860:	9d e3 bf 90 	save  %sp, -112, %sp
40002864:	80 a6 60 00 	cmp  %i1, 0
40002868:	02 80 00 0f 	be  400028a4 <_wcrtomb_r+0x44>
4000286c:	a0 10 00 18 	mov  %i0, %l0
40002870:	92 10 00 19 	mov  %i1, %o1
40002874:	94 10 00 1a 	mov  %i2, %o2
40002878:	90 10 00 18 	mov  %i0, %o0
4000287c:	40 00 00 77 	call  40002a58 <_wctomb_r>
40002880:	96 10 00 1b 	mov  %i3, %o3
40002884:	80 a2 3f ff 	cmp  %o0, -1
40002888:	12 80 00 05 	bne  4000289c <_wcrtomb_r+0x3c>
4000288c:	b0 10 00 08 	mov  %o0, %i0
40002890:	c0 26 c0 00 	clr  [ %i3 ]
40002894:	82 10 20 8a 	mov  0x8a, %g1
40002898:	c2 24 00 00 	st  %g1, [ %l0 ]
4000289c:	81 c7 e0 08 	ret 
400028a0:	81 e8 00 00 	restore 
400028a4:	90 10 00 18 	mov  %i0, %o0
400028a8:	92 07 bf f0 	add  %fp, -16, %o1
400028ac:	94 10 20 00 	clr  %o2
400028b0:	40 00 00 6a 	call  40002a58 <_wctomb_r>
400028b4:	96 10 00 1b 	mov  %i3, %o3
400028b8:	10 bf ff f4 	b  40002888 <_wcrtomb_r+0x28>
400028bc:	80 a2 3f ff 	cmp  %o0, -1

400028c0 <wcrtomb>:
400028c0:	03 10 00 2f 	sethi  %hi(0x4000bc00), %g1
400028c4:	84 10 00 08 	mov  %o0, %g2
400028c8:	d0 00 60 d8 	ld  [ %g1 + 0xd8 ], %o0
400028cc:	82 10 00 09 	mov  %o1, %g1
400028d0:	96 10 00 0a 	mov  %o2, %o3
400028d4:	92 10 00 02 	mov  %g2, %o1
400028d8:	94 10 00 01 	mov  %g1, %o2
400028dc:	82 13 c0 00 	mov  %o7, %g1
400028e0:	7f ff ff e0 	call  40002860 <_wcrtomb_r>
400028e4:	9e 10 40 00 	mov  %g1, %o7
400028e8:	01 00 00 00 	nop 

400028ec <_wcsrtombs_r>:
400028ec:	9d e3 bf 90 	save  %sp, -112, %sp
400028f0:	80 a6 60 00 	cmp  %i1, 0
400028f4:	02 80 00 49 	be  40002a18 <_wcsrtombs_r+0x12c>
400028f8:	a0 10 00 18 	mov  %i0, %l0
400028fc:	80 a6 e0 00 	cmp  %i3, 0
40002900:	02 80 00 3d 	be  400029f4 <_wcsrtombs_r+0x108>
40002904:	e6 06 80 00 	ld  [ %i2 ], %l3
40002908:	d4 04 c0 00 	ld  [ %l3 ], %o2
4000290c:	a2 07 bf f0 	add  %fp, -16, %l1
40002910:	e8 07 00 00 	ld  [ %i4 ], %l4
40002914:	ea 07 20 04 	ld  [ %i4 + 4 ], %l5
40002918:	90 10 00 10 	mov  %l0, %o0
4000291c:	92 10 00 11 	mov  %l1, %o1
40002920:	96 10 00 1c 	mov  %i4, %o3
40002924:	7f ff ff cf 	call  40002860 <_wcrtomb_r>
40002928:	a4 10 00 19 	mov  %i1, %l2
4000292c:	80 a2 3f ff 	cmp  %o0, -1
40002930:	02 80 00 29 	be  400029d4 <_wcsrtombs_r+0xe8>
40002934:	b0 10 20 00 	clr  %i0
40002938:	82 26 c0 08 	sub  %i3, %o0, %g1
4000293c:	80 a0 40 18 	cmp  %g1, %i0
40002940:	2a 80 00 2a 	bcs,a   400029e8 <_wcsrtombs_r+0xfc>
40002944:	ea 27 20 04 	st  %l5, [ %i4 + 4 ]
40002948:	80 a2 00 1b 	cmp  %o0, %i3
4000294c:	3a 80 00 27 	bcc,a   400029e8 <_wcsrtombs_r+0xfc>
40002950:	ea 27 20 04 	st  %l5, [ %i4 + 4 ]
40002954:	80 a6 60 00 	cmp  %i1, 0
40002958:	02 80 00 0f 	be  40002994 <_wcsrtombs_r+0xa8>
4000295c:	b0 06 00 08 	add  %i0, %o0, %i0
40002960:	80 a2 20 00 	cmp  %o0, 0
40002964:	04 80 00 09 	ble  40002988 <_wcsrtombs_r+0x9c>
40002968:	82 10 20 00 	clr  %g1
4000296c:	c4 0c 40 01 	ldub  [ %l1 + %g1 ], %g2
40002970:	c4 2c 80 01 	stb  %g2, [ %l2 + %g1 ]
40002974:	82 00 60 01 	inc  %g1
40002978:	80 a2 00 01 	cmp  %o0, %g1
4000297c:	32 bf ff fd 	bne,a   40002970 <_wcsrtombs_r+0x84>
40002980:	c4 0c 40 01 	ldub  [ %l1 + %g1 ], %g2
40002984:	a4 04 80 08 	add  %l2, %o0, %l2
40002988:	c2 06 80 00 	ld  [ %i2 ], %g1
4000298c:	82 00 60 04 	add  %g1, 4, %g1
40002990:	c2 26 80 00 	st  %g1, [ %i2 ]
40002994:	c2 04 c0 00 	ld  [ %l3 ], %g1
40002998:	80 a0 60 00 	cmp  %g1, 0
4000299c:	02 80 00 19 	be  40002a00 <_wcsrtombs_r+0x114>
400029a0:	80 a6 00 1b 	cmp  %i0, %i3
400029a4:	1a 80 00 12 	bcc  400029ec <_wcsrtombs_r+0x100>
400029a8:	a6 04 e0 04 	add  %l3, 4, %l3
400029ac:	d4 04 c0 00 	ld  [ %l3 ], %o2
400029b0:	e8 07 00 00 	ld  [ %i4 ], %l4
400029b4:	ea 07 20 04 	ld  [ %i4 + 4 ], %l5
400029b8:	90 10 00 10 	mov  %l0, %o0
400029bc:	92 10 00 11 	mov  %l1, %o1
400029c0:	7f ff ff a8 	call  40002860 <_wcrtomb_r>
400029c4:	96 10 00 1c 	mov  %i4, %o3
400029c8:	80 a2 3f ff 	cmp  %o0, -1
400029cc:	12 bf ff dc 	bne  4000293c <_wcsrtombs_r+0x50>
400029d0:	82 26 c0 08 	sub  %i3, %o0, %g1
400029d4:	82 10 20 8a 	mov  0x8a, %g1
400029d8:	c2 24 00 00 	st  %g1, [ %l0 ]
400029dc:	c0 27 00 00 	clr  [ %i4 ]
400029e0:	81 c7 e0 08 	ret 
400029e4:	91 e8 3f ff 	restore  %g0, -1, %o0
400029e8:	e8 27 00 00 	st  %l4, [ %i4 ]
400029ec:	81 c7 e0 08 	ret 
400029f0:	81 e8 00 00 	restore 
400029f4:	b0 10 20 00 	clr  %i0
400029f8:	81 c7 e0 08 	ret 
400029fc:	81 e8 00 00 	restore 
40002a00:	80 a6 60 00 	cmp  %i1, 0
40002a04:	32 80 00 02 	bne,a   40002a0c <_wcsrtombs_r+0x120>
40002a08:	c0 26 80 00 	clr  [ %i2 ]
40002a0c:	c0 27 00 00 	clr  [ %i4 ]
40002a10:	81 c7 e0 08 	ret 
40002a14:	91 ee 3f ff 	restore  %i0, -1, %o0
40002a18:	e6 06 80 00 	ld  [ %i2 ], %l3
40002a1c:	10 bf ff bb 	b  40002908 <_wcsrtombs_r+0x1c>
40002a20:	b6 10 3f ff 	mov  -1, %i3

40002a24 <wcsrtombs>:
40002a24:	03 10 00 2f 	sethi  %hi(0x4000bc00), %g1
40002a28:	86 10 00 08 	mov  %o0, %g3
40002a2c:	84 10 00 09 	mov  %o1, %g2
40002a30:	d0 00 60 d8 	ld  [ %g1 + 0xd8 ], %o0
40002a34:	82 10 00 0a 	mov  %o2, %g1
40002a38:	98 10 00 0b 	mov  %o3, %o4
40002a3c:	92 10 00 03 	mov  %g3, %o1
40002a40:	94 10 00 02 	mov  %g2, %o2
40002a44:	96 10 00 01 	mov  %g1, %o3
40002a48:	82 13 c0 00 	mov  %o7, %g1
40002a4c:	7f ff ff a8 	call  400028ec <_wcsrtombs_r>
40002a50:	9e 10 40 00 	mov  %g1, %o7
40002a54:	01 00 00 00 	nop 

40002a58 <_wctomb_r>:
40002a58:	9d e3 bf a0 	save  %sp, -96, %sp
40002a5c:	21 10 00 30 	sethi  %hi(0x4000c000), %l0
40002a60:	40 00 13 75 	call  40007834 <strlen>
40002a64:	90 14 22 38 	or  %l0, 0x238, %o0	! 4000c238 <__lc_ctype>
40002a68:	80 a2 20 01 	cmp  %o0, 1
40002a6c:	08 80 00 27 	bleu  40002b08 <_wctomb_r+0xb0>
40002a70:	90 14 22 38 	or  %l0, 0x238, %o0
40002a74:	13 10 00 2d 	sethi  %hi(0x4000b400), %o1
40002a78:	40 00 13 35 	call  4000774c <strcmp>
40002a7c:	92 12 63 b8 	or  %o1, 0x3b8, %o1	! 4000b7b8 <blanks.3054+0x10>
40002a80:	80 a2 20 00 	cmp  %o0, 0
40002a84:	12 80 00 12 	bne  40002acc <_wctomb_r+0x74>
40002a88:	80 a6 60 00 	cmp  %i1, 0
40002a8c:	02 80 00 22 	be  40002b14 <_wctomb_r+0xbc>
40002a90:	80 a6 a0 7f 	cmp  %i2, 0x7f
40002a94:	24 80 00 1b 	ble,a   40002b00 <_wctomb_r+0xa8>
40002a98:	f4 2e 40 00 	stb  %i2, [ %i1 ]
40002a9c:	82 06 bf 80 	add  %i2, -128, %g1
40002aa0:	80 a0 67 7f 	cmp  %g1, 0x77f
40002aa4:	18 80 00 1e 	bgu  40002b1c <_wctomb_r+0xc4>
40002aa8:	82 0e a0 3f 	and  %i2, 0x3f, %g1
40002aac:	b4 0e a7 c0 	and  %i2, 0x7c0, %i2
40002ab0:	82 10 7f 80 	or  %g1, -128, %g1
40002ab4:	b5 3e a0 06 	sra  %i2, 6, %i2
40002ab8:	b4 16 bf c0 	or  %i2, -64, %i2
40002abc:	c2 2e 60 01 	stb  %g1, [ %i1 + 1 ]
40002ac0:	f4 2e 40 00 	stb  %i2, [ %i1 ]
40002ac4:	81 c7 e0 08 	ret 
40002ac8:	91 e8 20 02 	restore  %g0, 2, %o0
40002acc:	90 14 22 38 	or  %l0, 0x238, %o0
40002ad0:	13 10 00 2d 	sethi  %hi(0x4000b400), %o1
40002ad4:	40 00 13 1e 	call  4000774c <strcmp>
40002ad8:	92 12 63 c0 	or  %o1, 0x3c0, %o1	! 4000b7c0 <blanks.3054+0x18>
40002adc:	80 a2 20 00 	cmp  %o0, 0
40002ae0:	12 80 00 58 	bne  40002c40 <_wctomb_r+0x1e8>
40002ae4:	80 a6 60 00 	cmp  %i1, 0
40002ae8:	02 80 00 0b 	be  40002b14 <_wctomb_r+0xbc>
40002aec:	83 3e a0 08 	sra  %i2, 8, %g1
40002af0:	84 88 60 ff 	andcc  %g1, 0xff, %g2
40002af4:	12 80 00 41 	bne  40002bf8 <_wctomb_r+0x1a0>
40002af8:	86 00 60 20 	add  %g1, 0x20, %g3
40002afc:	f4 2e 40 00 	stb  %i2, [ %i1 ]
40002b00:	81 c7 e0 08 	ret 
40002b04:	91 e8 20 01 	restore  %g0, 1, %o0
40002b08:	80 a6 60 00 	cmp  %i1, 0
40002b0c:	32 bf ff fd 	bne,a   40002b00 <_wctomb_r+0xa8>
40002b10:	f4 2e 40 00 	stb  %i2, [ %i1 ]
40002b14:	81 c7 e0 08 	ret 
40002b18:	91 e8 20 00 	restore  %g0, 0, %o0
40002b1c:	84 06 b8 00 	add  %i2, -2048, %g2
40002b20:	03 00 00 3d 	sethi  %hi(0xf400), %g1
40002b24:	82 10 63 ff 	or  %g1, 0x3ff, %g1	! f7ff <_trap_table-0x3fff0801>
40002b28:	80 a0 80 01 	cmp  %g2, %g1
40002b2c:	08 80 00 74 	bleu  40002cfc <_wctomb_r+0x2a4>
40002b30:	05 3f ff c0 	sethi  %hi(0xffff0000), %g2
40002b34:	03 00 07 bf 	sethi  %hi(0x1efc00), %g1
40002b38:	84 06 80 02 	add  %i2, %g2, %g2
40002b3c:	82 10 63 ff 	or  %g1, 0x3ff, %g1
40002b40:	80 a0 80 01 	cmp  %g2, %g1
40002b44:	18 80 00 12 	bgu  40002b8c <_wctomb_r+0x134>
40002b48:	88 0e a0 3f 	and  %i2, 0x3f, %g4
40002b4c:	87 36 a0 12 	srl  %i2, 0x12, %g3
40002b50:	88 11 3f 80 	or  %g4, -128, %g4
40002b54:	86 08 e0 07 	and  %g3, 7, %g3
40002b58:	85 36 a0 0c 	srl  %i2, 0xc, %g2
40002b5c:	86 10 ff f0 	or  %g3, -16, %g3
40002b60:	84 08 a0 3f 	and  %g2, 0x3f, %g2
40002b64:	82 0e af c0 	and  %i2, 0xfc0, %g1
40002b68:	84 10 bf 80 	or  %g2, -128, %g2
40002b6c:	83 38 60 06 	sra  %g1, 6, %g1
40002b70:	82 10 7f 80 	or  %g1, -128, %g1
40002b74:	c8 2e 60 03 	stb  %g4, [ %i1 + 3 ]
40002b78:	c6 2e 40 00 	stb  %g3, [ %i1 ]
40002b7c:	c4 2e 60 01 	stb  %g2, [ %i1 + 1 ]
40002b80:	c2 2e 60 02 	stb  %g1, [ %i1 + 2 ]
40002b84:	81 c7 e0 08 	ret 
40002b88:	91 e8 20 04 	restore  %g0, 4, %o0
40002b8c:	05 3f f8 00 	sethi  %hi(0xffe00000), %g2
40002b90:	03 00 f7 ff 	sethi  %hi(0x3dffc00), %g1
40002b94:	84 06 80 02 	add  %i2, %g2, %g2
40002b98:	82 10 63 ff 	or  %g1, 0x3ff, %g1
40002b9c:	80 a0 80 01 	cmp  %g2, %g1
40002ba0:	18 80 00 6e 	bgu  40002d58 <_wctomb_r+0x300>
40002ba4:	9a 0e a0 3f 	and  %i2, 0x3f, %o5
40002ba8:	89 36 a0 18 	srl  %i2, 0x18, %g4
40002bac:	9a 13 7f 80 	or  %o5, -128, %o5
40002bb0:	88 09 20 03 	and  %g4, 3, %g4
40002bb4:	87 36 a0 12 	srl  %i2, 0x12, %g3
40002bb8:	88 11 3f f8 	or  %g4, -8, %g4
40002bbc:	86 08 e0 3f 	and  %g3, 0x3f, %g3
40002bc0:	85 36 a0 0c 	srl  %i2, 0xc, %g2
40002bc4:	86 10 ff 80 	or  %g3, -128, %g3
40002bc8:	84 08 a0 3f 	and  %g2, 0x3f, %g2
40002bcc:	82 0e af c0 	and  %i2, 0xfc0, %g1
40002bd0:	84 10 bf 80 	or  %g2, -128, %g2
40002bd4:	83 38 60 06 	sra  %g1, 6, %g1
40002bd8:	82 10 7f 80 	or  %g1, -128, %g1
40002bdc:	da 2e 60 04 	stb  %o5, [ %i1 + 4 ]
40002be0:	c8 2e 40 00 	stb  %g4, [ %i1 ]
40002be4:	c6 2e 60 01 	stb  %g3, [ %i1 + 1 ]
40002be8:	c4 2e 60 02 	stb  %g2, [ %i1 + 2 ]
40002bec:	c2 2e 60 03 	stb  %g1, [ %i1 + 3 ]
40002bf0:	81 c7 e0 08 	ret 
40002bf4:	91 e8 20 05 	restore  %g0, 5, %o0
40002bf8:	86 08 e0 ff 	and  %g3, 0xff, %g3
40002bfc:	80 a0 e0 0f 	cmp  %g3, 0xf
40002c00:	38 80 00 50 	bgu,a   40002d40 <_wctomb_r+0x2e8>
40002c04:	82 00 60 7f 	add  %g1, 0x7f, %g1
40002c08:	82 06 bf 80 	add  %i2, -128, %g1
40002c0c:	82 08 60 ff 	and  %g1, 0xff, %g1
40002c10:	80 a0 60 7c 	cmp  %g1, 0x7c
40002c14:	08 80 00 07 	bleu  40002c30 <_wctomb_r+0x1d8>
40002c18:	82 10 00 1a 	mov  %i2, %g1
40002c1c:	86 06 bf c0 	add  %i2, -64, %g3
40002c20:	86 08 e0 ff 	and  %g3, 0xff, %g3
40002c24:	80 a0 e0 3e 	cmp  %g3, 0x3e
40002c28:	38 80 00 33 	bgu,a   40002cf4 <_wctomb_r+0x29c>
40002c2c:	b0 10 3f ff 	mov  -1, %i0
40002c30:	c2 2e 60 01 	stb  %g1, [ %i1 + 1 ]
40002c34:	c4 2e 40 00 	stb  %g2, [ %i1 ]
40002c38:	81 c7 e0 08 	ret 
40002c3c:	91 e8 20 02 	restore  %g0, 2, %o0
40002c40:	90 14 22 38 	or  %l0, 0x238, %o0
40002c44:	13 10 00 2d 	sethi  %hi(0x4000b400), %o1
40002c48:	40 00 12 c1 	call  4000774c <strcmp>
40002c4c:	92 12 63 c8 	or  %o1, 0x3c8, %o1	! 4000b7c8 <blanks.3054+0x20>
40002c50:	80 a2 20 00 	cmp  %o0, 0
40002c54:	12 80 00 0e 	bne  40002c8c <_wctomb_r+0x234>
40002c58:	80 a6 60 00 	cmp  %i1, 0
40002c5c:	02 bf ff ae 	be  40002b14 <_wctomb_r+0xbc>
40002c60:	83 3e a0 08 	sra  %i2, 8, %g1
40002c64:	80 88 60 ff 	btst  0xff, %g1
40002c68:	22 bf ff a6 	be,a   40002b00 <_wctomb_r+0xa8>
40002c6c:	f4 2e 40 00 	stb  %i2, [ %i1 ]
40002c70:	84 00 60 5f 	add  %g1, 0x5f, %g2
40002c74:	84 08 a0 ff 	and  %g2, 0xff, %g2
40002c78:	80 a0 a0 5d 	cmp  %g2, 0x5d
40002c7c:	08 80 00 6c 	bleu  40002e2c <_wctomb_r+0x3d4>
40002c80:	84 06 a0 5f 	add  %i2, 0x5f, %g2
40002c84:	81 c7 e0 08 	ret 
40002c88:	91 e8 3f ff 	restore  %g0, -1, %o0
40002c8c:	90 14 22 38 	or  %l0, 0x238, %o0
40002c90:	13 10 00 2d 	sethi  %hi(0x4000b400), %o1
40002c94:	40 00 12 ae 	call  4000774c <strcmp>
40002c98:	92 12 63 d0 	or  %o1, 0x3d0, %o1	! 4000b7d0 <blanks.3054+0x28>
40002c9c:	80 a2 20 00 	cmp  %o0, 0
40002ca0:	12 bf ff 9b 	bne  40002b0c <_wctomb_r+0xb4>
40002ca4:	80 a6 60 00 	cmp  %i1, 0
40002ca8:	02 80 00 13 	be  40002cf4 <_wctomb_r+0x29c>
40002cac:	b0 10 20 01 	mov  1, %i0
40002cb0:	83 3e a0 08 	sra  %i2, 8, %g1
40002cb4:	86 88 60 ff 	andcc  %g1, 0xff, %g3
40002cb8:	12 80 00 41 	bne  40002dbc <_wctomb_r+0x364>
40002cbc:	84 10 00 1a 	mov  %i2, %g2
40002cc0:	c2 06 c0 00 	ld  [ %i3 ], %g1
40002cc4:	80 a0 60 00 	cmp  %g1, 0
40002cc8:	02 80 00 0a 	be  40002cf0 <_wctomb_r+0x298>
40002ccc:	82 10 20 1b 	mov  0x1b, %g1
40002cd0:	c0 26 c0 00 	clr  [ %i3 ]
40002cd4:	c2 2e 40 00 	stb  %g1, [ %i1 ]
40002cd8:	82 10 20 28 	mov  0x28, %g1
40002cdc:	b0 10 20 04 	mov  4, %i0
40002ce0:	c2 2e 60 01 	stb  %g1, [ %i1 + 1 ]
40002ce4:	82 10 20 42 	mov  0x42, %g1
40002ce8:	c2 2e 60 02 	stb  %g1, [ %i1 + 2 ]
40002cec:	b2 06 60 03 	add  %i1, 3, %i1
40002cf0:	c4 2e 40 00 	stb  %g2, [ %i1 ]
40002cf4:	81 c7 e0 08 	ret 
40002cf8:	81 e8 00 00 	restore 
40002cfc:	03 3f ff ca 	sethi  %hi(0xffff2800), %g1
40002d00:	82 06 80 01 	add  %i2, %g1, %g1
40002d04:	80 a0 67 ff 	cmp  %g1, 0x7ff
40002d08:	08 bf ff df 	bleu  40002c84 <_wctomb_r+0x22c>
40002d0c:	86 0e a0 3f 	and  %i2, 0x3f, %g3
40002d10:	85 36 a0 0c 	srl  %i2, 0xc, %g2
40002d14:	86 10 ff 80 	or  %g3, -128, %g3
40002d18:	84 08 a0 0f 	and  %g2, 0xf, %g2
40002d1c:	82 0e af c0 	and  %i2, 0xfc0, %g1
40002d20:	84 10 bf e0 	or  %g2, -32, %g2
40002d24:	83 38 60 06 	sra  %g1, 6, %g1
40002d28:	82 10 7f 80 	or  %g1, -128, %g1
40002d2c:	c6 2e 60 02 	stb  %g3, [ %i1 + 2 ]
40002d30:	c4 2e 40 00 	stb  %g2, [ %i1 ]
40002d34:	c2 2e 60 01 	stb  %g1, [ %i1 + 1 ]
40002d38:	81 c7 e0 08 	ret 
40002d3c:	91 e8 20 03 	restore  %g0, 3, %o0
40002d40:	82 08 60 ff 	and  %g1, 0xff, %g1
40002d44:	80 a0 60 1e 	cmp  %g1, 0x1e
40002d48:	08 bf ff b1 	bleu  40002c0c <_wctomb_r+0x1b4>
40002d4c:	82 06 bf 80 	add  %i2, -128, %g1
40002d50:	81 c7 e0 08 	ret 
40002d54:	91 e8 3f ff 	restore  %g0, -1, %o0
40002d58:	98 0e a0 3f 	and  %i2, 0x3f, %o4
40002d5c:	9b 36 a0 1e 	srl  %i2, 0x1e, %o5
40002d60:	98 13 3f 80 	or  %o4, -128, %o4
40002d64:	9a 0b 60 01 	and  %o5, 1, %o5
40002d68:	89 36 a0 18 	srl  %i2, 0x18, %g4
40002d6c:	9a 13 7f fc 	or  %o5, -4, %o5
40002d70:	88 09 20 3f 	and  %g4, 0x3f, %g4
40002d74:	87 36 a0 12 	srl  %i2, 0x12, %g3
40002d78:	88 11 3f 80 	or  %g4, -128, %g4
40002d7c:	86 08 e0 3f 	and  %g3, 0x3f, %g3
40002d80:	85 36 a0 0c 	srl  %i2, 0xc, %g2
40002d84:	86 10 ff 80 	or  %g3, -128, %g3
40002d88:	84 08 a0 3f 	and  %g2, 0x3f, %g2
40002d8c:	82 0e af c0 	and  %i2, 0xfc0, %g1
40002d90:	84 10 bf 80 	or  %g2, -128, %g2
40002d94:	83 38 60 06 	sra  %g1, 6, %g1
40002d98:	82 10 7f 80 	or  %g1, -128, %g1
40002d9c:	d8 2e 60 05 	stb  %o4, [ %i1 + 5 ]
40002da0:	da 2e 40 00 	stb  %o5, [ %i1 ]
40002da4:	c8 2e 60 01 	stb  %g4, [ %i1 + 1 ]
40002da8:	c6 2e 60 02 	stb  %g3, [ %i1 + 2 ]
40002dac:	c4 2e 60 03 	stb  %g2, [ %i1 + 3 ]
40002db0:	c2 2e 60 04 	stb  %g1, [ %i1 + 4 ]
40002db4:	81 c7 e0 08 	ret 
40002db8:	91 e8 20 06 	restore  %g0, 6, %o0
40002dbc:	82 00 7f df 	add  %g1, -33, %g1
40002dc0:	82 08 60 ff 	and  %g1, 0xff, %g1
40002dc4:	80 a0 60 5d 	cmp  %g1, 0x5d
40002dc8:	18 bf ff cb 	bgu  40002cf4 <_wctomb_r+0x29c>
40002dcc:	b0 10 3f ff 	mov  -1, %i0
40002dd0:	82 06 bf df 	add  %i2, -33, %g1
40002dd4:	82 08 60 ff 	and  %g1, 0xff, %g1
40002dd8:	80 a0 60 5d 	cmp  %g1, 0x5d
40002ddc:	18 80 00 12 	bgu  40002e24 <_wctomb_r+0x3cc>
40002de0:	01 00 00 00 	nop 
40002de4:	c2 06 c0 00 	ld  [ %i3 ], %g1
40002de8:	80 a0 60 00 	cmp  %g1, 0
40002dec:	12 80 00 0c 	bne  40002e1c <_wctomb_r+0x3c4>
40002df0:	b0 10 20 02 	mov  2, %i0
40002df4:	82 10 20 01 	mov  1, %g1
40002df8:	c2 26 c0 00 	st  %g1, [ %i3 ]
40002dfc:	82 10 20 1b 	mov  0x1b, %g1
40002e00:	c2 2e 40 00 	stb  %g1, [ %i1 ]
40002e04:	82 10 20 24 	mov  0x24, %g1
40002e08:	b0 10 20 05 	mov  5, %i0
40002e0c:	c2 2e 60 01 	stb  %g1, [ %i1 + 1 ]
40002e10:	82 10 20 42 	mov  0x42, %g1
40002e14:	c2 2e 60 02 	stb  %g1, [ %i1 + 2 ]
40002e18:	b2 06 60 03 	add  %i1, 3, %i1
40002e1c:	c4 2e 60 01 	stb  %g2, [ %i1 + 1 ]
40002e20:	c6 2e 40 00 	stb  %g3, [ %i1 ]
40002e24:	81 c7 e0 08 	ret 
40002e28:	81 e8 00 00 	restore 
40002e2c:	84 08 a0 ff 	and  %g2, 0xff, %g2
40002e30:	80 a0 a0 5d 	cmp  %g2, 0x5d
40002e34:	38 bf ff b0 	bgu,a   40002cf4 <_wctomb_r+0x29c>
40002e38:	b0 10 3f ff 	mov  -1, %i0
40002e3c:	f4 2e 60 01 	stb  %i2, [ %i1 + 1 ]
40002e40:	c2 2e 40 00 	stb  %g1, [ %i1 ]
40002e44:	81 c7 e0 08 	ret 
40002e48:	91 e8 20 02 	restore  %g0, 2, %o0

40002e4c <__swsetup>:
40002e4c:	9d e3 bf a0 	save  %sp, -96, %sp
40002e50:	23 10 00 2f 	sethi  %hi(0x4000bc00), %l1
40002e54:	d0 04 60 d8 	ld  [ %l1 + 0xd8 ], %o0	! 4000bcd8 <_impure_ptr>
40002e58:	80 a2 20 00 	cmp  %o0, 0
40002e5c:	02 80 00 06 	be  40002e74 <__swsetup+0x28>
40002e60:	a0 10 00 18 	mov  %i0, %l0
40002e64:	c2 02 20 38 	ld  [ %o0 + 0x38 ], %g1
40002e68:	80 a0 60 00 	cmp  %g1, 0
40002e6c:	02 80 00 20 	be  40002eec <__swsetup+0xa0>
40002e70:	01 00 00 00 	nop 
40002e74:	c2 14 20 0c 	lduh  [ %l0 + 0xc ], %g1
40002e78:	85 28 60 10 	sll  %g1, 0x10, %g2
40002e7c:	85 30 a0 10 	srl  %g2, 0x10, %g2
40002e80:	80 88 a0 08 	btst  8, %g2
40002e84:	02 80 00 22 	be  40002f0c <__swsetup+0xc0>
40002e88:	86 10 00 01 	mov  %g1, %g3
40002e8c:	c4 04 20 10 	ld  [ %l0 + 0x10 ], %g2
40002e90:	80 a0 a0 00 	cmp  %g2, 0
40002e94:	02 80 00 1a 	be  40002efc <__swsetup+0xb0>
40002e98:	01 00 00 00 	nop 
40002e9c:	c2 14 20 0c 	lduh  [ %l0 + 0xc ], %g1
40002ea0:	80 88 60 01 	btst  1, %g1
40002ea4:	12 80 00 0c 	bne  40002ed4 <__swsetup+0x88>
40002ea8:	80 88 60 02 	btst  2, %g1
40002eac:	02 80 00 06 	be  40002ec4 <__swsetup+0x78>
40002eb0:	82 10 20 00 	clr  %g1
40002eb4:	c2 24 20 08 	st  %g1, [ %l0 + 8 ]
40002eb8:	b0 10 20 00 	clr  %i0
40002ebc:	81 c7 e0 08 	ret 
40002ec0:	81 e8 00 00 	restore 
40002ec4:	c2 04 20 14 	ld  [ %l0 + 0x14 ], %g1
40002ec8:	c2 24 20 08 	st  %g1, [ %l0 + 8 ]
40002ecc:	81 c7 e0 08 	ret 
40002ed0:	91 e8 20 00 	restore  %g0, 0, %o0
40002ed4:	c2 04 20 14 	ld  [ %l0 + 0x14 ], %g1
40002ed8:	82 20 00 01 	neg  %g1
40002edc:	c0 24 20 08 	clr  [ %l0 + 8 ]
40002ee0:	c2 24 20 18 	st  %g1, [ %l0 + 0x18 ]
40002ee4:	81 c7 e0 08 	ret 
40002ee8:	91 e8 20 00 	restore  %g0, 0, %o0
40002eec:	40 00 06 b6 	call  400049c4 <__sinit>
40002ef0:	01 00 00 00 	nop 
40002ef4:	10 bf ff e1 	b  40002e78 <__swsetup+0x2c>
40002ef8:	c2 14 20 0c 	lduh  [ %l0 + 0xc ], %g1
40002efc:	40 00 09 af 	call  400055b8 <__smakebuf>
40002f00:	90 10 00 10 	mov  %l0, %o0
40002f04:	10 bf ff e7 	b  40002ea0 <__swsetup+0x54>
40002f08:	c2 14 20 0c 	lduh  [ %l0 + 0xc ], %g1
40002f0c:	80 88 a0 10 	btst  0x10, %g2
40002f10:	02 bf ff eb 	be  40002ebc <__swsetup+0x70>
40002f14:	b0 10 3f ff 	mov  -1, %i0
40002f18:	80 88 a0 04 	btst  4, %g2
40002f1c:	32 80 00 06 	bne,a   40002f34 <__swsetup+0xe8>
40002f20:	d2 04 20 30 	ld  [ %l0 + 0x30 ], %o1
40002f24:	86 10 e0 08 	or  %g3, 8, %g3
40002f28:	c4 04 20 10 	ld  [ %l0 + 0x10 ], %g2
40002f2c:	10 bf ff d9 	b  40002e90 <__swsetup+0x44>
40002f30:	c6 34 20 0c 	sth  %g3, [ %l0 + 0xc ]
40002f34:	80 a2 60 00 	cmp  %o1, 0
40002f38:	02 80 00 0b 	be  40002f64 <__swsetup+0x118>
40002f3c:	86 08 7f db 	and  %g1, -37, %g3
40002f40:	84 04 20 40 	add  %l0, 0x40, %g2
40002f44:	80 a2 40 02 	cmp  %o1, %g2
40002f48:	22 80 00 07 	be,a   40002f64 <__swsetup+0x118>
40002f4c:	c0 24 20 30 	clr  [ %l0 + 0x30 ]
40002f50:	40 00 07 4e 	call  40004c88 <_free_r>
40002f54:	d0 04 60 d8 	ld  [ %l1 + 0xd8 ], %o0
40002f58:	c2 14 20 0c 	lduh  [ %l0 + 0xc ], %g1
40002f5c:	c0 24 20 30 	clr  [ %l0 + 0x30 ]
40002f60:	86 08 7f db 	and  %g1, -37, %g3
40002f64:	c4 04 20 10 	ld  [ %l0 + 0x10 ], %g2
40002f68:	c0 24 20 04 	clr  [ %l0 + 4 ]
40002f6c:	c6 34 20 0c 	sth  %g3, [ %l0 + 0xc ]
40002f70:	86 10 e0 08 	or  %g3, 8, %g3
40002f74:	c4 24 00 00 	st  %g2, [ %l0 ]
40002f78:	10 bf ff c6 	b  40002e90 <__swsetup+0x44>
40002f7c:	c6 34 20 0c 	sth  %g3, [ %l0 + 0xc ]

40002f80 <__register_exitproc>:
40002f80:	9d e3 bf a0 	save  %sp, -96, %sp
40002f84:	21 10 00 31 	sethi  %hi(0x4000c400), %l0
40002f88:	40 00 1b 4e 	call  40009cc0 <___st_pthread_mutex_lock>
40002f8c:	90 14 23 48 	or  %l0, 0x348, %o0	! 4000c748 <lock>
40002f90:	03 10 00 2e 	sethi  %hi(0x4000b800), %g1
40002f94:	e2 00 60 30 	ld  [ %g1 + 0x30 ], %l1	! 4000b830 <_global_impure_ptr>
40002f98:	d0 04 61 48 	ld  [ %l1 + 0x148 ], %o0
40002f9c:	80 a2 20 00 	cmp  %o0, 0
40002fa0:	22 80 00 3d 	be,a   40003094 <__register_exitproc+0x114>
40002fa4:	90 04 61 4c 	add  %l1, 0x14c, %o0
40002fa8:	c2 02 20 04 	ld  [ %o0 + 4 ], %g1
40002fac:	80 a0 60 1f 	cmp  %g1, 0x1f
40002fb0:	14 80 00 1e 	bg  40003028 <__register_exitproc+0xa8>
40002fb4:	01 00 00 00 	nop 
40002fb8:	80 a6 20 00 	cmp  %i0, 0
40002fbc:	02 80 00 12 	be  40003004 <__register_exitproc+0x84>
40002fc0:	84 00 60 02 	add  %g1, 2, %g2
40002fc4:	c4 02 20 04 	ld  [ %o0 + 4 ], %g2
40002fc8:	82 00 60 22 	add  %g1, 0x22, %g1
40002fcc:	86 00 a0 42 	add  %g2, 0x42, %g3
40002fd0:	89 28 60 02 	sll  %g1, 2, %g4
40002fd4:	87 28 e0 02 	sll  %g3, 2, %g3
40002fd8:	c2 02 21 88 	ld  [ %o0 + 0x188 ], %g1
40002fdc:	f4 22 00 04 	st  %i2, [ %o0 + %g4 ]
40002fe0:	f6 22 00 03 	st  %i3, [ %o0 + %g3 ]
40002fe4:	86 10 20 01 	mov  1, %g3
40002fe8:	87 28 c0 02 	sll  %g3, %g2, %g3
40002fec:	82 10 40 03 	or  %g1, %g3, %g1
40002ff0:	c2 22 21 88 	st  %g1, [ %o0 + 0x188 ]
40002ff4:	80 a6 20 02 	cmp  %i0, 2
40002ff8:	02 80 00 19 	be  4000305c <__register_exitproc+0xdc>
40002ffc:	82 10 00 02 	mov  %g2, %g1
40003000:	84 00 60 02 	add  %g1, 2, %g2
40003004:	85 28 a0 02 	sll  %g2, 2, %g2
40003008:	82 00 60 01 	inc  %g1
4000300c:	c2 22 20 04 	st  %g1, [ %o0 + 4 ]
40003010:	f2 22 00 02 	st  %i1, [ %o0 + %g2 ]
40003014:	b0 10 20 00 	clr  %i0
40003018:	40 00 1b 40 	call  40009d18 <___st_pthread_mutex_unlock>
4000301c:	90 14 23 48 	or  %l0, 0x348, %o0
40003020:	81 c7 e0 08 	ret 
40003024:	81 e8 00 00 	restore 
40003028:	40 00 09 c3 	call  40005734 <malloc>
4000302c:	90 10 21 90 	mov  0x190, %o0
40003030:	80 a2 20 00 	cmp  %o0, 0
40003034:	22 80 00 1a 	be,a   4000309c <__register_exitproc+0x11c>
40003038:	90 14 23 48 	or  %l0, 0x348, %o0
4000303c:	c2 04 61 48 	ld  [ %l1 + 0x148 ], %g1
40003040:	c2 22 00 00 	st  %g1, [ %o0 ]
40003044:	d0 24 61 48 	st  %o0, [ %l1 + 0x148 ]
40003048:	c0 22 20 04 	clr  [ %o0 + 4 ]
4000304c:	c0 22 21 88 	clr  [ %o0 + 0x188 ]
40003050:	c0 22 21 8c 	clr  [ %o0 + 0x18c ]
40003054:	10 bf ff d9 	b  40002fb8 <__register_exitproc+0x38>
40003058:	82 10 20 00 	clr  %g1
4000305c:	c2 02 21 8c 	ld  [ %o0 + 0x18c ], %g1
40003060:	86 10 40 03 	or  %g1, %g3, %g3
40003064:	82 10 00 02 	mov  %g2, %g1
40003068:	84 00 60 02 	add  %g1, 2, %g2
4000306c:	85 28 a0 02 	sll  %g2, 2, %g2
40003070:	c6 22 21 8c 	st  %g3, [ %o0 + 0x18c ]
40003074:	82 00 60 01 	inc  %g1
40003078:	f2 22 00 02 	st  %i1, [ %o0 + %g2 ]
4000307c:	c2 22 20 04 	st  %g1, [ %o0 + 4 ]
40003080:	b0 10 20 00 	clr  %i0
40003084:	40 00 1b 25 	call  40009d18 <___st_pthread_mutex_unlock>
40003088:	90 14 23 48 	or  %l0, 0x348, %o0
4000308c:	81 c7 e0 08 	ret 
40003090:	81 e8 00 00 	restore 
40003094:	10 bf ff c5 	b  40002fa8 <__register_exitproc+0x28>
40003098:	d0 24 61 48 	st  %o0, [ %l1 + 0x148 ]
4000309c:	40 00 1b 1f 	call  40009d18 <___st_pthread_mutex_unlock>
400030a0:	b0 10 3f ff 	mov  -1, %i0
400030a4:	81 c7 e0 08 	ret 
400030a8:	81 e8 00 00 	restore 

400030ac <quorem>:
400030ac:	9d e3 bf a0 	save  %sp, -96, %sp
400030b0:	c2 06 20 10 	ld  [ %i0 + 0x10 ], %g1
400030b4:	e6 06 60 10 	ld  [ %i1 + 0x10 ], %l3
400030b8:	a0 10 00 18 	mov  %i0, %l0
400030bc:	80 a4 c0 01 	cmp  %l3, %g1
400030c0:	14 80 00 7f 	bg  400032bc <quorem+0x210>
400030c4:	b0 10 20 00 	clr  %i0
400030c8:	ba 04 e0 03 	add  %l3, 3, %i5
400030cc:	bb 2f 60 02 	sll  %i5, 2, %i5
400030d0:	82 04 00 1d 	add  %l0, %i5, %g1
400030d4:	ba 06 40 1d 	add  %i1, %i5, %i5
400030d8:	f4 00 60 04 	ld  [ %g1 + 4 ], %i2
400030dc:	d2 07 60 04 	ld  [ %i5 + 4 ], %o1
400030e0:	92 02 60 01 	inc  %o1
400030e4:	90 10 00 1a 	mov  %i2, %o0
400030e8:	40 00 13 82 	call  40007ef0 <.udiv>
400030ec:	a6 04 ff ff 	add  %l3, -1, %l3
400030f0:	ba 07 60 04 	add  %i5, 4, %i5
400030f4:	b0 92 20 00 	orcc  %o0, 0, %i0
400030f8:	a2 06 60 14 	add  %i1, 0x14, %l1
400030fc:	02 80 00 3b 	be  400031e8 <quorem+0x13c>
40003100:	b8 04 20 14 	add  %l0, 0x14, %i4
40003104:	2b 00 00 3f 	sethi  %hi(0xfc00), %l5
40003108:	a8 10 00 11 	mov  %l1, %l4
4000310c:	aa 15 63 ff 	or  %l5, 0x3ff, %l5
40003110:	a4 10 00 1c 	mov  %i4, %l2
40003114:	ac 10 20 00 	clr  %l6
40003118:	b6 10 20 00 	clr  %i3
4000311c:	ee 05 00 00 	ld  [ %l4 ], %l7
40003120:	92 0d c0 15 	and  %l7, %l5, %o1
40003124:	40 00 13 39 	call  40007e08 <.umul>
40003128:	90 10 00 18 	mov  %i0, %o0
4000312c:	93 35 e0 10 	srl  %l7, 0x10, %o1
40003130:	ac 05 80 08 	add  %l6, %o0, %l6
40003134:	40 00 13 35 	call  40007e08 <.umul>
40003138:	90 10 00 18 	mov  %i0, %o0
4000313c:	c2 04 80 00 	ld  [ %l2 ], %g1
40003140:	87 30 60 10 	srl  %g1, 0x10, %g3
40003144:	82 08 40 15 	and  %g1, %l5, %g1
40003148:	b6 06 c0 01 	add  %i3, %g1, %i3
4000314c:	84 0d 80 15 	and  %l6, %l5, %g2
40003150:	ad 35 a0 10 	srl  %l6, 0x10, %l6
40003154:	84 26 c0 02 	sub  %i3, %g2, %g2
40003158:	ac 05 80 08 	add  %l6, %o0, %l6
4000315c:	83 38 a0 10 	sra  %g2, 0x10, %g1
40003160:	88 0d 80 15 	and  %l6, %l5, %g4
40003164:	86 20 c0 04 	sub  %g3, %g4, %g3
40003168:	b6 00 c0 01 	add  %g3, %g1, %i3
4000316c:	c4 34 a0 02 	sth  %g2, [ %l2 + 2 ]
40003170:	a8 05 20 04 	add  %l4, 4, %l4
40003174:	f6 34 80 00 	sth  %i3, [ %l2 ]
40003178:	80 a7 40 14 	cmp  %i5, %l4
4000317c:	a4 04 a0 04 	add  %l2, 4, %l2
40003180:	ad 35 a0 10 	srl  %l6, 0x10, %l6
40003184:	1a bf ff e6 	bcc  4000311c <quorem+0x70>
40003188:	b7 3e e0 10 	sra  %i3, 0x10, %i3
4000318c:	80 a6 a0 00 	cmp  %i2, 0
40003190:	12 80 00 17 	bne  400031ec <quorem+0x140>
40003194:	92 10 00 19 	mov  %i1, %o1
40003198:	84 04 e0 04 	add  %l3, 4, %g2
4000319c:	85 28 a0 02 	sll  %g2, 2, %g2
400031a0:	82 04 00 02 	add  %l0, %g2, %g1
400031a4:	80 a7 00 01 	cmp  %i4, %g1
400031a8:	3a 80 00 11 	bcc,a   400031ec <quorem+0x140>
400031ac:	e6 24 20 10 	st  %l3, [ %l0 + 0x10 ]
400031b0:	c4 04 00 02 	ld  [ %l0 + %g2 ], %g2
400031b4:	80 a0 a0 00 	cmp  %g2, 0
400031b8:	02 80 00 08 	be  400031d8 <quorem+0x12c>
400031bc:	82 00 7f fc 	add  %g1, -4, %g1
400031c0:	10 80 00 0b 	b  400031ec <quorem+0x140>
400031c4:	e6 24 20 10 	st  %l3, [ %l0 + 0x10 ]
400031c8:	c4 00 40 00 	ld  [ %g1 ], %g2
400031cc:	80 a0 a0 00 	cmp  %g2, 0
400031d0:	12 80 00 05 	bne  400031e4 <quorem+0x138>
400031d4:	82 00 7f fc 	add  %g1, -4, %g1
400031d8:	80 a7 00 01 	cmp  %i4, %g1
400031dc:	0a bf ff fb 	bcs  400031c8 <quorem+0x11c>
400031e0:	a6 04 ff ff 	add  %l3, -1, %l3
400031e4:	e6 24 20 10 	st  %l3, [ %l0 + 0x10 ]
400031e8:	92 10 00 19 	mov  %i1, %o1
400031ec:	40 00 0c 86 	call  40006404 <__mcmp>
400031f0:	90 10 00 10 	mov  %l0, %o0
400031f4:	80 a2 20 00 	cmp  %o0, 0
400031f8:	06 80 00 31 	bl  400032bc <quorem+0x210>
400031fc:	17 00 00 3f 	sethi  %hi(0xfc00), %o3
40003200:	b0 06 20 01 	inc  %i0
40003204:	96 12 e3 ff 	or  %o3, 0x3ff, %o3
40003208:	82 10 00 1c 	mov  %i4, %g1
4000320c:	98 10 20 00 	clr  %o4
40003210:	c8 04 40 00 	ld  [ %l1 ], %g4
40003214:	da 00 40 00 	ld  [ %g1 ], %o5
40003218:	87 33 60 10 	srl  %o5, 0x10, %g3
4000321c:	85 31 20 10 	srl  %g4, 0x10, %g2
40003220:	88 09 00 0b 	and  %g4, %o3, %g4
40003224:	84 20 c0 02 	sub  %g3, %g2, %g2
40003228:	86 0b 40 0b 	and  %o5, %o3, %g3
4000322c:	86 20 c0 04 	sub  %g3, %g4, %g3
40003230:	86 00 c0 0c 	add  %g3, %o4, %g3
40003234:	89 38 e0 10 	sra  %g3, 0x10, %g4
40003238:	84 00 80 04 	add  %g2, %g4, %g2
4000323c:	c6 30 60 02 	sth  %g3, [ %g1 + 2 ]
40003240:	a2 04 60 04 	add  %l1, 4, %l1
40003244:	c4 30 40 00 	sth  %g2, [ %g1 ]
40003248:	80 a7 40 11 	cmp  %i5, %l1
4000324c:	82 00 60 04 	add  %g1, 4, %g1
40003250:	1a bf ff f0 	bcc  40003210 <quorem+0x164>
40003254:	99 38 a0 10 	sra  %g2, 0x10, %o4
40003258:	84 04 e0 04 	add  %l3, 4, %g2
4000325c:	85 28 a0 02 	sll  %g2, 2, %g2
40003260:	82 04 00 02 	add  %l0, %g2, %g1
40003264:	c6 00 60 04 	ld  [ %g1 + 4 ], %g3
40003268:	80 a0 e0 00 	cmp  %g3, 0
4000326c:	12 80 00 14 	bne  400032bc <quorem+0x210>
40003270:	80 a7 00 01 	cmp  %i4, %g1
40003274:	3a 80 00 12 	bcc,a   400032bc <quorem+0x210>
40003278:	e6 24 20 10 	st  %l3, [ %l0 + 0x10 ]
4000327c:	c4 04 00 02 	ld  [ %l0 + %g2 ], %g2
40003280:	80 a0 a0 00 	cmp  %g2, 0
40003284:	22 80 00 0a 	be,a   400032ac <quorem+0x200>
40003288:	82 00 7f fc 	add  %g1, -4, %g1
4000328c:	e6 24 20 10 	st  %l3, [ %l0 + 0x10 ]
40003290:	81 c7 e0 08 	ret 
40003294:	81 e8 00 00 	restore 
40003298:	c4 00 40 00 	ld  [ %g1 ], %g2
4000329c:	80 a0 a0 00 	cmp  %g2, 0
400032a0:	32 80 00 07 	bne,a   400032bc <quorem+0x210>
400032a4:	e6 24 20 10 	st  %l3, [ %l0 + 0x10 ]
400032a8:	82 00 7f fc 	add  %g1, -4, %g1
400032ac:	80 a7 00 01 	cmp  %i4, %g1
400032b0:	0a bf ff fa 	bcs  40003298 <quorem+0x1ec>
400032b4:	a6 04 ff ff 	add  %l3, -1, %l3
400032b8:	e6 24 20 10 	st  %l3, [ %l0 + 0x10 ]
400032bc:	81 c7 e0 08 	ret 
400032c0:	81 e8 00 00 	restore 

400032c4 <_dtoa_r>:
400032c4:	9d e3 bf 48 	save  %sp, -184, %sp
400032c8:	c2 06 20 40 	ld  [ %i0 + 0x40 ], %g1
400032cc:	80 a0 60 00 	cmp  %g1, 0
400032d0:	a0 10 00 19 	mov  %i1, %l0
400032d4:	a2 10 00 1a 	mov  %i2, %l1
400032d8:	e6 07 a0 5c 	ld  [ %fp + 0x5c ], %l3
400032dc:	02 80 00 0c 	be  4000330c <_dtoa_r+0x48>
400032e0:	e4 07 a0 60 	ld  [ %fp + 0x60 ], %l2
400032e4:	c4 06 20 44 	ld  [ %i0 + 0x44 ], %g2
400032e8:	c4 20 60 04 	st  %g2, [ %g1 + 4 ]
400032ec:	86 10 20 01 	mov  1, %g3
400032f0:	92 10 00 01 	mov  %g1, %o1
400032f4:	c4 06 20 44 	ld  [ %i0 + 0x44 ], %g2
400032f8:	85 28 c0 02 	sll  %g3, %g2, %g2
400032fc:	c4 20 60 08 	st  %g2, [ %g1 + 8 ]
40003300:	40 00 0b dc 	call  40006270 <_Bfree>
40003304:	90 10 00 18 	mov  %i0, %o0
40003308:	c0 26 20 40 	clr  [ %i0 + 0x40 ]
4000330c:	a8 94 20 00 	orcc  %l0, 0, %l4
40003310:	06 80 00 3c 	bl  40003400 <_dtoa_r+0x13c>
40003314:	82 10 20 01 	mov  1, %g1
40003318:	c0 24 c0 00 	clr  [ %l3 ]
4000331c:	03 1f fc 00 	sethi  %hi(0x7ff00000), %g1
40003320:	84 0d 00 01 	and  %l4, %g1, %g2
40003324:	80 a0 80 01 	cmp  %g2, %g1
40003328:	02 80 00 24 	be  400033b8 <_dtoa_r+0xf4>
4000332c:	03 10 00 2d 	sethi  %hi(0x4000b400), %g1
40003330:	d4 18 63 90 	ldd  [ %g1 + 0x390 ], %o2	! 4000b790 <___DTOR_END__+0x60>
40003334:	e0 3f bf f0 	std  %l0, [ %fp + -16 ]
40003338:	90 10 00 10 	mov  %l0, %o0
4000333c:	40 00 16 e3 	call  40008ec8 <__nedf2>
40003340:	92 10 00 11 	mov  %l1, %o1
40003344:	80 a2 20 00 	cmp  %o0, 0
40003348:	12 80 00 33 	bne  40003414 <_dtoa_r+0x150>
4000334c:	82 10 20 01 	mov  1, %g1
40003350:	c2 27 40 00 	st  %g1, [ %i5 ]
40003354:	31 10 00 2d 	sethi  %hi(0x4000b400), %i0
40003358:	80 a4 a0 00 	cmp  %l2, 0
4000335c:	02 80 00 15 	be  400033b0 <_dtoa_r+0xec>
40003360:	b0 16 23 78 	or  %i0, 0x378, %i0
40003364:	31 10 00 2d 	sethi  %hi(0x4000b400), %i0
40003368:	b0 16 23 79 	or  %i0, 0x379, %i0	! 4000b779 <___DTOR_END__+0x49>
4000336c:	f0 24 80 00 	st  %i0, [ %l2 ]
40003370:	81 c7 e0 08 	ret 
40003374:	91 ee 3f ff 	restore  %i0, -1, %o0
40003378:	84 00 a0 01 	inc  %g2
4000337c:	c4 28 40 00 	stb  %g2, [ %g1 ]
40003380:	e8 27 bf e0 	st  %l4, [ %fp + -32 ]
40003384:	90 10 00 18 	mov  %i0, %o0
40003388:	40 00 0b ba 	call  40006270 <_Bfree>
4000338c:	92 10 00 15 	mov  %l5, %o1
40003390:	c0 2c c0 00 	clrb  [ %l3 ]
40003394:	80 a4 a0 00 	cmp  %l2, 0
40003398:	b0 10 00 16 	mov  %l6, %i0
4000339c:	da 07 bf e0 	ld  [ %fp + -32 ], %o5
400033a0:	82 03 60 01 	add  %o5, 1, %g1
400033a4:	02 80 00 03 	be  400033b0 <_dtoa_r+0xec>
400033a8:	c2 27 40 00 	st  %g1, [ %i5 ]
400033ac:	e6 24 80 00 	st  %l3, [ %l2 ]
400033b0:	81 c7 e0 08 	ret 
400033b4:	81 e8 00 00 	restore 
400033b8:	03 00 00 09 	sethi  %hi(0x2400), %g1
400033bc:	82 10 63 0f 	or  %g1, 0x30f, %g1	! 270f <_trap_table-0x3fffd8f1>
400033c0:	80 a4 60 00 	cmp  %l1, 0
400033c4:	02 80 01 12 	be  4000380c <_dtoa_r+0x548>
400033c8:	c2 27 40 00 	st  %g1, [ %i5 ]
400033cc:	31 10 00 2d 	sethi  %hi(0x4000b400), %i0
400033d0:	b0 16 23 70 	or  %i0, 0x370, %i0	! 4000b770 <___DTOR_END__+0x40>
400033d4:	80 a4 a0 00 	cmp  %l2, 0
400033d8:	02 80 00 08 	be  400033f8 <_dtoa_r+0x134>
400033dc:	01 00 00 00 	nop 
400033e0:	c2 4e 20 03 	ldsb  [ %i0 + 3 ], %g1
400033e4:	80 a0 60 00 	cmp  %g1, 0
400033e8:	02 80 00 03 	be  400033f4 <_dtoa_r+0x130>
400033ec:	82 06 20 03 	add  %i0, 3, %g1
400033f0:	82 06 20 08 	add  %i0, 8, %g1
400033f4:	c2 24 80 00 	st  %g1, [ %l2 ]
400033f8:	81 c7 e0 08 	ret 
400033fc:	81 e8 00 00 	restore 
40003400:	c2 24 c0 00 	st  %g1, [ %l3 ]
40003404:	03 20 00 00 	sethi  %hi(0x80000000), %g1
40003408:	a8 2d 00 01 	andn  %l4, %g1, %l4
4000340c:	10 bf ff c4 	b  4000331c <_dtoa_r+0x58>
40003410:	a0 10 00 14 	mov  %l4, %l0
40003414:	d2 07 bf f0 	ld  [ %fp + -16 ], %o1
40003418:	d4 07 bf f4 	ld  [ %fp + -12 ], %o2
4000341c:	90 10 00 18 	mov  %i0, %o0
40003420:	96 07 bf f8 	add  %fp, -8, %o3
40003424:	40 00 0c d6 	call  4000677c <_d2b>
40003428:	98 07 bf fc 	add  %fp, -4, %o4
4000342c:	a7 35 20 14 	srl  %l4, 0x14, %l3
40003430:	a6 8c e7 ff 	andcc  %l3, 0x7ff, %l3
40003434:	12 80 00 fd 	bne  40003828 <_dtoa_r+0x564>
40003438:	aa 10 00 08 	mov  %o0, %l5
4000343c:	ec 07 bf fc 	ld  [ %fp + -4 ], %l6
40003440:	c2 07 bf f8 	ld  [ %fp + -8 ], %g1
40003444:	82 05 80 01 	add  %l6, %g1, %g1
40003448:	a6 00 64 32 	add  %g1, 0x432, %l3
4000344c:	90 20 00 13 	neg  %l3, %o0
40003450:	80 a4 e0 20 	cmp  %l3, 0x20
40003454:	04 80 00 07 	ble  40003470 <_dtoa_r+0x1ac>
40003458:	91 2c 40 08 	sll  %l1, %o0, %o0
4000345c:	82 00 64 12 	add  %g1, 0x412, %g1
40003460:	90 20 00 13 	neg  %l3, %o0
40003464:	83 34 40 01 	srl  %l1, %g1, %g1
40003468:	91 2d 00 08 	sll  %l4, %o0, %o0
4000346c:	90 12 00 01 	or  %o0, %g1, %o0
40003470:	84 10 20 01 	mov  1, %g2
40003474:	40 00 17 66 	call  4000920c <__floatunsidf>
40003478:	c4 27 bf cc 	st  %g2, [ %fp + -52 ]
4000347c:	03 3f 84 00 	sethi  %hi(0xfe100000), %g1
40003480:	a6 04 fb cd 	add  %l3, -1075, %l3
40003484:	90 00 40 08 	add  %g1, %o0, %o0
40003488:	03 10 00 2d 	sethi  %hi(0x4000b400), %g1
4000348c:	40 00 14 e3 	call  40008818 <__subdf3>
40003490:	d4 18 63 e8 	ldd  [ %g1 + 0x3e8 ], %o2	! 4000b7e8 <blanks.3054+0x40>
40003494:	03 10 00 2d 	sethi  %hi(0x4000b400), %g1
40003498:	40 00 15 0b 	call  400088c4 <__muldf3>
4000349c:	d4 18 63 f0 	ldd  [ %g1 + 0x3f0 ], %o2	! 4000b7f0 <blanks.3054+0x48>
400034a0:	03 10 00 2d 	sethi  %hi(0x4000b400), %g1
400034a4:	40 00 14 f4 	call  40008874 <__adddf3>
400034a8:	d4 18 63 f8 	ldd  [ %g1 + 0x3f8 ], %o2	! 4000b7f8 <blanks.3054+0x50>
400034ac:	d0 3f bf e8 	std  %o0, [ %fp + -24 ]
400034b0:	40 00 16 ea 	call  40009058 <__floatsidf>
400034b4:	90 10 00 13 	mov  %l3, %o0
400034b8:	03 10 00 2e 	sethi  %hi(0x4000b800), %g1
400034bc:	40 00 15 02 	call  400088c4 <__muldf3>
400034c0:	d4 18 60 00 	ldd  [ %g1 ], %o2
400034c4:	94 10 00 08 	mov  %o0, %o2
400034c8:	96 10 00 09 	mov  %o1, %o3
400034cc:	40 00 14 ea 	call  40008874 <__adddf3>
400034d0:	d0 1f bf e8 	ldd  [ %fp + -24 ], %o0
400034d4:	40 00 17 17 	call  40009130 <__fixdfsi>
400034d8:	d0 3f bf e8 	std  %o0, [ %fp + -24 ]
400034dc:	07 10 00 2d 	sethi  %hi(0x4000b400), %g3
400034e0:	a8 10 00 08 	mov  %o0, %l4
400034e4:	d4 18 e3 90 	ldd  [ %g3 + 0x390 ], %o2
400034e8:	40 00 16 c3 	call  40008ff4 <__ltdf2>
400034ec:	d0 1f bf e8 	ldd  [ %fp + -24 ], %o0
400034f0:	80 a2 20 00 	cmp  %o0, 0
400034f4:	16 80 00 09 	bge  40003518 <_dtoa_r+0x254>
400034f8:	98 10 20 01 	mov  1, %o4
400034fc:	40 00 16 d7 	call  40009058 <__floatsidf>
40003500:	90 10 00 14 	mov  %l4, %o0
40003504:	40 00 16 71 	call  40008ec8 <__nedf2>
40003508:	d4 1f bf e8 	ldd  [ %fp + -24 ], %o2
4000350c:	80 a0 00 08 	cmp  %g0, %o0
40003510:	a8 65 20 00 	subx  %l4, 0, %l4
40003514:	98 10 20 01 	mov  1, %o4
40003518:	80 a5 20 16 	cmp  %l4, 0x16
4000351c:	18 80 00 0e 	bgu  40003554 <_dtoa_r+0x290>
40003520:	d8 27 bf e4 	st  %o4, [ %fp + -28 ]
40003524:	83 2d 20 03 	sll  %l4, 3, %g1
40003528:	05 10 00 2e 	sethi  %hi(0x4000b800), %g2
4000352c:	d0 1f bf f0 	ldd  [ %fp + -16 ], %o0
40003530:	84 10 a0 88 	or  %g2, 0x88, %g2
40003534:	d4 18 80 01 	ldd  [ %g2 + %g1 ], %o2
40003538:	40 00 16 af 	call  40008ff4 <__ltdf2>
4000353c:	c0 27 bf e4 	clr  [ %fp + -28 ]
40003540:	80 a2 20 00 	cmp  %o0, 0
40003544:	36 80 00 05 	bge,a   40003558 <_dtoa_r+0x294>
40003548:	ac 05 bf ff 	add  %l6, -1, %l6
4000354c:	c0 27 bf e4 	clr  [ %fp + -28 ]
40003550:	a8 05 3f ff 	add  %l4, -1, %l4
40003554:	ac 05 bf ff 	add  %l6, -1, %l6
40003558:	b4 10 20 00 	clr  %i2
4000355c:	a6 25 80 13 	sub  %l6, %l3, %l3
40003560:	80 a4 e0 00 	cmp  %l3, 0
40003564:	06 80 00 04 	bl  40003574 <_dtoa_r+0x2b0>
40003568:	b2 20 00 13 	neg  %l3, %i1
4000356c:	b4 10 00 13 	mov  %l3, %i2
40003570:	b2 10 20 00 	clr  %i1
40003574:	80 a5 20 00 	cmp  %l4, 0
40003578:	06 80 01 ef 	bl  40003d34 <_dtoa_r+0xa70>
4000357c:	9a 20 00 14 	neg  %l4, %o5
40003580:	e8 27 bf d8 	st  %l4, [ %fp + -40 ]
40003584:	c0 27 bf dc 	clr  [ %fp + -36 ]
40003588:	b4 06 80 14 	add  %i2, %l4, %i2
4000358c:	80 a6 e0 09 	cmp  %i3, 9
40003590:	18 80 00 af 	bgu  4000384c <_dtoa_r+0x588>
40003594:	a6 10 20 00 	clr  %l3
40003598:	80 a6 e0 05 	cmp  %i3, 5
4000359c:	04 80 00 04 	ble  400035ac <_dtoa_r+0x2e8>
400035a0:	a6 10 20 01 	mov  1, %l3
400035a4:	b6 06 ff fc 	add  %i3, -4, %i3
400035a8:	a6 10 20 00 	clr  %l3
400035ac:	80 a6 e0 03 	cmp  %i3, 3
400035b0:	22 80 00 0b 	be,a   400035dc <_dtoa_r+0x318>
400035b4:	c0 27 bf d4 	clr  [ %fp + -44 ]
400035b8:	04 80 01 f0 	ble  40003d78 <_dtoa_r+0xab4>
400035bc:	80 a6 e0 02 	cmp  %i3, 2
400035c0:	80 a6 e0 04 	cmp  %i3, 4
400035c4:	02 80 03 66 	be  4000435c <_dtoa_r+0x1098>
400035c8:	80 a6 e0 05 	cmp  %i3, 5
400035cc:	32 80 00 a1 	bne,a   40003850 <_dtoa_r+0x58c>
400035d0:	a6 10 20 00 	clr  %l3
400035d4:	86 10 20 01 	mov  1, %g3
400035d8:	c6 27 bf d4 	st  %g3, [ %fp + -44 ]
400035dc:	82 05 00 1c 	add  %l4, %i4, %g1
400035e0:	88 00 60 01 	add  %g1, 1, %g4
400035e4:	ae 91 20 00 	orcc  %g4, 0, %l7
400035e8:	04 80 03 8f 	ble  40004424 <_dtoa_r+0x1160>
400035ec:	c2 27 bf d0 	st  %g1, [ %fp + -48 ]
400035f0:	c0 26 20 44 	clr  [ %i0 + 0x44 ]
400035f4:	80 a1 20 17 	cmp  %g4, 0x17
400035f8:	84 10 20 01 	mov  1, %g2
400035fc:	08 80 04 34 	bleu  400046cc <_dtoa_r+0x1408>
40003600:	82 10 20 04 	mov  4, %g1
40003604:	92 10 00 02 	mov  %g2, %o1
40003608:	83 28 60 01 	sll  %g1, 1, %g1
4000360c:	86 00 60 14 	add  %g1, 0x14, %g3
40003610:	80 a0 c0 04 	cmp  %g3, %g4
40003614:	08 bf ff fc 	bleu  40003604 <_dtoa_r+0x340>
40003618:	84 00 a0 01 	inc  %g2
4000361c:	80 a5 e0 0f 	cmp  %l7, 0xf
40003620:	d2 26 20 44 	st  %o1, [ %i0 + 0x44 ]
40003624:	82 40 20 00 	addx  %g0, 0, %g1
40003628:	90 10 00 18 	mov  %i0, %o0
4000362c:	40 00 0c 2a 	call  400066d4 <_Balloc>
40003630:	a6 08 40 13 	and  %g1, %l3, %l3
40003634:	d0 26 20 40 	st  %o0, [ %i0 + 0x40 ]
40003638:	80 8c e0 ff 	btst  0xff, %l3
4000363c:	12 80 00 93 	bne  40003888 <_dtoa_r+0x5c4>
40003640:	ac 10 00 08 	mov  %o0, %l6
40003644:	80 a5 20 0e 	cmp  %l4, 0xe
40003648:	14 80 00 fa 	bg  40003a30 <_dtoa_r+0x76c>
4000364c:	c2 07 bf f8 	ld  [ %fp + -8 ], %g1
40003650:	80 a0 60 00 	cmp  %g1, 0
40003654:	06 80 00 f7 	bl  40003a30 <_dtoa_r+0x76c>
40003658:	05 10 00 2e 	sethi  %hi(0x4000b800), %g2
4000365c:	83 2d 20 03 	sll  %l4, 3, %g1
40003660:	80 a5 e0 00 	cmp  %l7, 0
40003664:	84 10 a0 88 	or  %g2, 0x88, %g2
40003668:	04 80 02 9b 	ble  400040d4 <_dtoa_r+0xe10>
4000366c:	f4 18 80 01 	ldd  [ %g2 + %g1 ], %i2
40003670:	94 10 00 1a 	mov  %i2, %o2
40003674:	96 10 00 1b 	mov  %i3, %o3
40003678:	90 10 00 10 	mov  %l0, %o0
4000367c:	40 00 15 6b 	call  40008c28 <__divdf3>
40003680:	92 10 00 11 	mov  %l1, %o1
40003684:	40 00 16 ab 	call  40009130 <__fixdfsi>
40003688:	a6 05 a0 01 	add  %l6, 1, %l3
4000368c:	40 00 16 73 	call  40009058 <__floatsidf>
40003690:	b8 10 00 08 	mov  %o0, %i4
40003694:	94 10 00 1a 	mov  %i2, %o2
40003698:	40 00 14 8b 	call  400088c4 <__muldf3>
4000369c:	96 10 00 1b 	mov  %i3, %o3
400036a0:	94 10 00 08 	mov  %o0, %o2
400036a4:	96 10 00 09 	mov  %o1, %o3
400036a8:	90 10 00 10 	mov  %l0, %o0
400036ac:	40 00 14 5b 	call  40008818 <__subdf3>
400036b0:	92 10 00 11 	mov  %l1, %o1
400036b4:	82 07 20 30 	add  %i4, 0x30, %g1
400036b8:	84 10 00 08 	mov  %o0, %g2
400036bc:	86 10 00 09 	mov  %o1, %g3
400036c0:	80 a5 e0 01 	cmp  %l7, 1
400036c4:	02 80 00 36 	be  4000379c <_dtoa_r+0x4d8>
400036c8:	c2 2d 80 00 	stb  %g1, [ %l6 ]
400036cc:	21 10 00 2e 	sethi  %hi(0x4000b800), %l0
400036d0:	40 00 14 7d 	call  400088c4 <__muldf3>
400036d4:	d4 1c 20 10 	ldd  [ %l0 + 0x10 ], %o2	! 4000b810 <blanks.3054+0x68>
400036d8:	19 10 00 2d 	sethi  %hi(0x4000b400), %o4
400036dc:	d4 1b 23 90 	ldd  [ %o4 + 0x390 ], %o2	! 4000b790 <___DTOR_END__+0x60>
400036e0:	d0 3f bf f0 	std  %o0, [ %fp + -16 ]
400036e4:	40 00 15 f9 	call  40008ec8 <__nedf2>
400036e8:	a0 14 20 10 	or  %l0, 0x10, %l0
400036ec:	80 a2 20 00 	cmp  %o0, 0
400036f0:	02 80 00 45 	be  40003804 <_dtoa_r+0x540>
400036f4:	a2 10 20 01 	mov  1, %l1
400036f8:	e4 27 bf e8 	st  %l2, [ %fp + -24 ]
400036fc:	a4 10 00 1d 	mov  %i5, %l2
40003700:	10 80 00 0c 	b  40003730 <_dtoa_r+0x46c>
40003704:	f8 1f bf f0 	ldd  [ %fp + -16 ], %i4
40003708:	40 00 14 6f 	call  400088c4 <__muldf3>
4000370c:	d4 1c 00 00 	ldd  [ %l0 ], %o2
40003710:	1b 10 00 2d 	sethi  %hi(0x4000b400), %o5
40003714:	d4 1b 63 90 	ldd  [ %o5 + 0x390 ], %o2	! 4000b790 <___DTOR_END__+0x60>
40003718:	b8 10 00 08 	mov  %o0, %i4
4000371c:	40 00 15 eb 	call  40008ec8 <__nedf2>
40003720:	ba 10 00 09 	mov  %o1, %i5
40003724:	80 a2 20 00 	cmp  %o0, 0
40003728:	22 80 03 6e 	be,a   400044e0 <_dtoa_r+0x121c>
4000372c:	ba 10 00 12 	mov  %l2, %i5
40003730:	94 10 00 1a 	mov  %i2, %o2
40003734:	96 10 00 1b 	mov  %i3, %o3
40003738:	90 10 00 1c 	mov  %i4, %o0
4000373c:	40 00 15 3b 	call  40008c28 <__divdf3>
40003740:	92 10 00 1d 	mov  %i5, %o1
40003744:	40 00 16 7b 	call  40009130 <__fixdfsi>
40003748:	a2 04 60 01 	inc  %l1
4000374c:	40 00 16 43 	call  40009058 <__floatsidf>
40003750:	b2 10 00 08 	mov  %o0, %i1
40003754:	94 10 00 1a 	mov  %i2, %o2
40003758:	40 00 14 5b 	call  400088c4 <__muldf3>
4000375c:	96 10 00 1b 	mov  %i3, %o3
40003760:	94 10 00 08 	mov  %o0, %o2
40003764:	96 10 00 09 	mov  %o1, %o3
40003768:	90 10 00 1c 	mov  %i4, %o0
4000376c:	40 00 14 2b 	call  40008818 <__subdf3>
40003770:	92 10 00 1d 	mov  %i5, %o1
40003774:	82 06 60 30 	add  %i1, 0x30, %g1
40003778:	84 10 00 08 	mov  %o0, %g2
4000377c:	c2 2c c0 00 	stb  %g1, [ %l3 ]
40003780:	86 10 00 09 	mov  %o1, %g3
40003784:	80 a5 c0 11 	cmp  %l7, %l1
40003788:	12 bf ff e0 	bne  40003708 <_dtoa_r+0x444>
4000378c:	a6 04 e0 01 	inc  %l3
40003790:	ba 10 00 12 	mov  %l2, %i5
40003794:	e4 07 bf e8 	ld  [ %fp + -24 ], %l2
40003798:	b8 10 00 19 	mov  %i1, %i4
4000379c:	94 10 00 02 	mov  %g2, %o2
400037a0:	96 10 00 03 	mov  %g3, %o3
400037a4:	90 10 00 02 	mov  %g2, %o0
400037a8:	40 00 14 33 	call  40008874 <__adddf3>
400037ac:	92 10 00 03 	mov  %g3, %o1
400037b0:	a0 10 00 08 	mov  %o0, %l0
400037b4:	a2 10 00 09 	mov  %o1, %l1
400037b8:	90 10 00 1a 	mov  %i2, %o0
400037bc:	92 10 00 1b 	mov  %i3, %o1
400037c0:	94 10 00 10 	mov  %l0, %o2
400037c4:	40 00 16 0c 	call  40008ff4 <__ltdf2>
400037c8:	96 10 00 11 	mov  %l1, %o3
400037cc:	80 a2 20 00 	cmp  %o0, 0
400037d0:	26 80 02 0a 	bl,a   40003ff8 <_dtoa_r+0xd34>
400037d4:	c2 4c ff ff 	ldsb  [ %l3 + -1 ], %g1
400037d8:	90 10 00 1a 	mov  %i2, %o0
400037dc:	92 10 00 1b 	mov  %i3, %o1
400037e0:	94 10 00 10 	mov  %l0, %o2
400037e4:	40 00 15 a0 	call  40008e64 <__eqdf2>
400037e8:	96 10 00 11 	mov  %l1, %o3
400037ec:	80 a2 20 00 	cmp  %o0, 0
400037f0:	32 bf fe e5 	bne,a   40003384 <_dtoa_r+0xc0>
400037f4:	e8 27 bf e0 	st  %l4, [ %fp + -32 ]
400037f8:	80 8f 20 01 	btst  1, %i4
400037fc:	32 80 01 ff 	bne,a   40003ff8 <_dtoa_r+0xd34>
40003800:	c2 4c ff ff 	ldsb  [ %l3 + -1 ], %g1
40003804:	10 bf fe e0 	b  40003384 <_dtoa_r+0xc0>
40003808:	e8 27 bf e0 	st  %l4, [ %fp + -32 ]
4000380c:	03 3f fc 00 	sethi  %hi(0xfff00000), %g1
40003810:	31 10 00 2d 	sethi  %hi(0x4000b400), %i0
40003814:	80 ad 00 01 	andncc  %l4, %g1, %g0
40003818:	02 bf fe ef 	be  400033d4 <_dtoa_r+0x110>
4000381c:	b0 16 23 d8 	or  %i0, 0x3d8, %i0
40003820:	10 bf fe ec 	b  400033d0 <_dtoa_r+0x10c>
40003824:	31 10 00 2d 	sethi  %hi(0x4000b400), %i0
40003828:	d0 1f bf f0 	ldd  [ %fp + -16 ], %o0
4000382c:	05 3f fc 00 	sethi  %hi(0xfff00000), %g2
40003830:	03 0f fc 00 	sethi  %hi(0x3ff00000), %g1
40003834:	84 2a 00 02 	andn  %o0, %g2, %g2
40003838:	a6 04 fc 01 	add  %l3, -1023, %l3
4000383c:	90 10 80 01 	or  %g2, %g1, %o0
40003840:	ec 07 bf fc 	ld  [ %fp + -4 ], %l6
40003844:	10 bf ff 11 	b  40003488 <_dtoa_r+0x1c4>
40003848:	c0 27 bf cc 	clr  [ %fp + -52 ]
4000384c:	b6 10 20 00 	clr  %i3
40003850:	82 10 20 01 	mov  1, %g1
40003854:	84 10 3f ff 	mov  -1, %g2
40003858:	c2 27 bf d4 	st  %g1, [ %fp + -44 ]
4000385c:	c4 27 bf d0 	st  %g2, [ %fp + -48 ]
40003860:	ae 10 3f ff 	mov  -1, %l7
40003864:	b8 10 20 00 	clr  %i4
40003868:	c0 26 20 44 	clr  [ %i0 + 0x44 ]
4000386c:	92 10 20 00 	clr  %o1
40003870:	40 00 0b 99 	call  400066d4 <_Balloc>
40003874:	90 10 00 18 	mov  %i0, %o0
40003878:	d0 26 20 40 	st  %o0, [ %i0 + 0x40 ]
4000387c:	80 8c e0 ff 	btst  0xff, %l3
40003880:	02 bf ff 71 	be  40003644 <_dtoa_r+0x380>
40003884:	ac 10 00 08 	mov  %o0, %l6
40003888:	80 a5 20 00 	cmp  %l4, 0
4000388c:	04 80 02 3f 	ble  40004188 <_dtoa_r+0xec4>
40003890:	d8 1f bf f0 	ldd  [ %fp + -16 ], %o4
40003894:	d8 3f bf e8 	std  %o4, [ %fp + -24 ]
40003898:	82 0d 20 0f 	and  %l4, 0xf, %g1
4000389c:	05 10 00 2e 	sethi  %hi(0x4000b800), %g2
400038a0:	83 28 60 03 	sll  %g1, 3, %g1
400038a4:	84 10 a0 88 	or  %g2, 0x88, %g2
400038a8:	a1 3d 20 04 	sra  %l4, 4, %l0
400038ac:	c4 18 80 01 	ldd  [ %g2 + %g1 ], %g2
400038b0:	80 8c 20 10 	btst  0x10, %l0
400038b4:	12 80 01 24 	bne  40003d44 <_dtoa_r+0xa80>
400038b8:	a2 10 20 02 	mov  2, %l1
400038bc:	80 a4 20 00 	cmp  %l0, 0
400038c0:	02 80 00 11 	be  40003904 <_dtoa_r+0x640>
400038c4:	90 10 00 02 	mov  %g2, %o0
400038c8:	27 10 00 2e 	sethi  %hi(0x4000b800), %l3
400038cc:	a6 14 e1 50 	or  %l3, 0x150, %l3	! 4000b950 <__mprec_bigtens>
400038d0:	92 10 00 03 	mov  %g3, %o1
400038d4:	80 8c 20 01 	btst  1, %l0
400038d8:	22 80 00 06 	be,a   400038f0 <_dtoa_r+0x62c>
400038dc:	a1 3c 20 01 	sra  %l0, 1, %l0
400038e0:	d4 1c c0 00 	ldd  [ %l3 ], %o2
400038e4:	40 00 13 f8 	call  400088c4 <__muldf3>
400038e8:	a2 04 60 01 	inc  %l1
400038ec:	a1 3c 20 01 	sra  %l0, 1, %l0
400038f0:	80 a4 20 00 	cmp  %l0, 0
400038f4:	12 bf ff f8 	bne  400038d4 <_dtoa_r+0x610>
400038f8:	a6 04 e0 08 	add  %l3, 8, %l3
400038fc:	84 10 00 08 	mov  %o0, %g2
40003900:	86 10 00 09 	mov  %o1, %g3
40003904:	d0 1f bf e8 	ldd  [ %fp + -24 ], %o0
40003908:	94 10 00 02 	mov  %g2, %o2
4000390c:	40 00 14 c7 	call  40008c28 <__divdf3>
40003910:	96 10 00 03 	mov  %g3, %o3
40003914:	d0 3f bf e8 	std  %o0, [ %fp + -24 ]
40003918:	c6 07 bf e4 	ld  [ %fp + -28 ], %g3
4000391c:	80 a0 e0 00 	cmp  %g3, 0
40003920:	02 80 00 08 	be  40003940 <_dtoa_r+0x67c>
40003924:	19 10 00 2e 	sethi  %hi(0x4000b800), %o4
40003928:	d0 1f bf e8 	ldd  [ %fp + -24 ], %o0
4000392c:	40 00 15 b2 	call  40008ff4 <__ltdf2>
40003930:	d4 1b 20 08 	ldd  [ %o4 + 8 ], %o2
40003934:	80 a2 20 00 	cmp  %o0, 0
40003938:	06 80 01 c6 	bl  40004050 <_dtoa_r+0xd8c>
4000393c:	80 a5 e0 00 	cmp  %l7, 0
40003940:	40 00 15 c6 	call  40009058 <__floatsidf>
40003944:	90 10 00 11 	mov  %l1, %o0
40003948:	40 00 13 df 	call  400088c4 <__muldf3>
4000394c:	d4 1f bf e8 	ldd  [ %fp + -24 ], %o2
40003950:	03 10 00 2e 	sethi  %hi(0x4000b800), %g1
40003954:	40 00 13 c8 	call  40008874 <__adddf3>
40003958:	d4 18 60 18 	ldd  [ %g1 + 0x18 ], %o2	! 4000b818 <blanks.3054+0x70>
4000395c:	84 10 00 08 	mov  %o0, %g2
40003960:	21 3f 30 00 	sethi  %hi(0xfcc00000), %l0
40003964:	86 10 00 09 	mov  %o1, %g3
40003968:	a0 00 80 10 	add  %g2, %l0, %l0
4000396c:	80 a5 e0 00 	cmp  %l7, 0
40003970:	12 80 01 21 	bne  40003df4 <_dtoa_r+0xb30>
40003974:	84 10 00 10 	mov  %l0, %g2
40003978:	03 10 00 2e 	sethi  %hi(0x4000b800), %g1
4000397c:	d0 1f bf e8 	ldd  [ %fp + -24 ], %o0
40003980:	d4 18 60 20 	ldd  [ %g1 + 0x20 ], %o2
40003984:	c6 27 bf ac 	st  %g3, [ %fp + -84 ]
40003988:	40 00 13 a4 	call  40008818 <__subdf3>
4000398c:	e0 27 bf a8 	st  %l0, [ %fp + -88 ]
40003990:	c6 07 bf ac 	ld  [ %fp + -84 ], %g3
40003994:	96 10 00 03 	mov  %g3, %o3
40003998:	d0 3f bf e8 	std  %o0, [ %fp + -24 ]
4000399c:	40 00 15 64 	call  40008f2c <__gtdf2>
400039a0:	94 10 00 10 	mov  %l0, %o2
400039a4:	80 a2 20 00 	cmp  %o0, 0
400039a8:	14 80 01 db 	bg  40004114 <_dtoa_r+0xe50>
400039ac:	c6 07 bf ac 	ld  [ %fp + -84 ], %g3
400039b0:	03 20 00 00 	sethi  %hi(0x80000000), %g1
400039b4:	d0 1f bf e8 	ldd  [ %fp + -24 ], %o0
400039b8:	94 1c 00 01 	xor  %l0, %g1, %o2
400039bc:	40 00 15 8e 	call  40008ff4 <__ltdf2>
400039c0:	96 10 00 03 	mov  %g3, %o3
400039c4:	80 a2 20 00 	cmp  %o0, 0
400039c8:	36 bf ff 1f 	bge,a   40003644 <_dtoa_r+0x380>
400039cc:	e0 1f bf f0 	ldd  [ %fp + -16 ], %l0
400039d0:	c0 27 bf e8 	clr  [ %fp + -24 ]
400039d4:	c0 27 bf f0 	clr  [ %fp + -16 ]
400039d8:	a8 38 00 1c 	xnor  %g0, %i4, %l4
400039dc:	f8 07 bf f0 	ld  [ %fp + -16 ], %i4
400039e0:	a6 10 00 16 	mov  %l6, %l3
400039e4:	a0 10 20 00 	clr  %l0
400039e8:	d2 07 bf e8 	ld  [ %fp + -24 ], %o1
400039ec:	40 00 0a 21 	call  40006270 <_Bfree>
400039f0:	90 10 00 18 	mov  %i0, %o0
400039f4:	80 a7 20 00 	cmp  %i4, 0
400039f8:	02 bf ff 83 	be  40003804 <_dtoa_r+0x540>
400039fc:	80 a4 00 1c 	cmp  %l0, %i4
40003a00:	02 80 00 06 	be  40003a18 <_dtoa_r+0x754>
40003a04:	80 a4 20 00 	cmp  %l0, 0
40003a08:	02 80 00 04 	be  40003a18 <_dtoa_r+0x754>
40003a0c:	92 10 00 10 	mov  %l0, %o1
40003a10:	40 00 0a 18 	call  40006270 <_Bfree>
40003a14:	90 10 00 18 	mov  %i0, %o0
40003a18:	92 10 00 1c 	mov  %i4, %o1
40003a1c:	e8 27 bf e0 	st  %l4, [ %fp + -32 ]
40003a20:	40 00 0a 14 	call  40006270 <_Bfree>
40003a24:	90 10 00 18 	mov  %i0, %o0
40003a28:	10 bf fe 58 	b  40003388 <_dtoa_r+0xc4>
40003a2c:	90 10 00 18 	mov  %i0, %o0
40003a30:	c4 07 bf d4 	ld  [ %fp + -44 ], %g2
40003a34:	80 a0 a0 00 	cmp  %g2, 0
40003a38:	12 80 00 d4 	bne  40003d88 <_dtoa_r+0xac4>
40003a3c:	80 a6 e0 01 	cmp  %i3, 1
40003a40:	e6 07 bf dc 	ld  [ %fp + -36 ], %l3
40003a44:	f2 27 bf e0 	st  %i1, [ %fp + -32 ]
40003a48:	c0 27 bf f0 	clr  [ %fp + -16 ]
40003a4c:	80 a6 a0 00 	cmp  %i2, 0
40003a50:	04 80 00 0d 	ble  40003a84 <_dtoa_r+0x7c0>
40003a54:	d8 07 bf e0 	ld  [ %fp + -32 ], %o4
40003a58:	80 a3 20 00 	cmp  %o4, 0
40003a5c:	04 80 00 0a 	ble  40003a84 <_dtoa_r+0x7c0>
40003a60:	80 a6 80 0c 	cmp  %i2, %o4
40003a64:	04 80 00 03 	ble  40003a70 <_dtoa_r+0x7ac>
40003a68:	82 10 00 1a 	mov  %i2, %g1
40003a6c:	82 10 00 0c 	mov  %o4, %g1
40003a70:	da 07 bf e0 	ld  [ %fp + -32 ], %o5
40003a74:	9a 23 40 01 	sub  %o5, %g1, %o5
40003a78:	da 27 bf e0 	st  %o5, [ %fp + -32 ]
40003a7c:	b4 26 80 01 	sub  %i2, %g1, %i2
40003a80:	b2 26 40 01 	sub  %i1, %g1, %i1
40003a84:	c2 07 bf dc 	ld  [ %fp + -36 ], %g1
40003a88:	80 a0 60 00 	cmp  %g1, 0
40003a8c:	04 80 00 1a 	ble  40003af4 <_dtoa_r+0x830>
40003a90:	c4 07 bf d4 	ld  [ %fp + -44 ], %g2
40003a94:	80 a0 a0 00 	cmp  %g2, 0
40003a98:	02 80 02 95 	be  400044ec <_dtoa_r+0x1228>
40003a9c:	80 a4 e0 00 	cmp  %l3, 0
40003aa0:	04 80 00 11 	ble  40003ae4 <_dtoa_r+0x820>
40003aa4:	d2 07 bf f0 	ld  [ %fp + -16 ], %o1
40003aa8:	94 10 00 13 	mov  %l3, %o2
40003aac:	40 00 0d 03 	call  40006eb8 <_pow5mult>
40003ab0:	90 10 00 18 	mov  %i0, %o0
40003ab4:	d0 27 bf f0 	st  %o0, [ %fp + -16 ]
40003ab8:	94 10 00 15 	mov  %l5, %o2
40003abc:	90 10 00 18 	mov  %i0, %o0
40003ac0:	40 00 0c 33 	call  40006b8c <_multiply>
40003ac4:	d2 07 bf f0 	ld  [ %fp + -16 ], %o1
40003ac8:	82 10 00 08 	mov  %o0, %g1
40003acc:	92 10 00 15 	mov  %l5, %o1
40003ad0:	c2 27 bf ac 	st  %g1, [ %fp + -84 ]
40003ad4:	40 00 09 e7 	call  40006270 <_Bfree>
40003ad8:	90 10 00 18 	mov  %i0, %o0
40003adc:	c2 07 bf ac 	ld  [ %fp + -84 ], %g1
40003ae0:	aa 10 00 01 	mov  %g1, %l5
40003ae4:	c6 07 bf dc 	ld  [ %fp + -36 ], %g3
40003ae8:	94 a0 c0 13 	subcc  %g3, %l3, %o2
40003aec:	12 80 02 98 	bne  4000454c <_dtoa_r+0x1288>
40003af0:	92 10 00 15 	mov  %l5, %o1
40003af4:	90 10 00 18 	mov  %i0, %o0
40003af8:	40 00 0c ad 	call  40006dac <_i2b>
40003afc:	92 10 20 01 	mov  1, %o1
40003b00:	d8 07 bf d8 	ld  [ %fp + -40 ], %o4
40003b04:	80 a3 20 00 	cmp  %o4, 0
40003b08:	04 80 00 07 	ble  40003b24 <_dtoa_r+0x860>
40003b0c:	d0 27 bf e8 	st  %o0, [ %fp + -24 ]
40003b10:	92 10 00 08 	mov  %o0, %o1
40003b14:	94 10 00 0c 	mov  %o4, %o2
40003b18:	40 00 0c e8 	call  40006eb8 <_pow5mult>
40003b1c:	90 10 00 18 	mov  %i0, %o0
40003b20:	d0 27 bf e8 	st  %o0, [ %fp + -24 ]
40003b24:	80 a6 e0 01 	cmp  %i3, 1
40003b28:	04 80 01 24 	ble  40003fb8 <_dtoa_r+0xcf4>
40003b2c:	80 a4 60 00 	cmp  %l1, 0
40003b30:	c0 27 bf dc 	clr  [ %fp + -36 ]
40003b34:	c2 07 bf d8 	ld  [ %fp + -40 ], %g1
40003b38:	80 a0 60 00 	cmp  %g1, 0
40003b3c:	12 80 02 2b 	bne  400043e8 <_dtoa_r+0x1124>
40003b40:	82 10 20 01 	mov  1, %g1
40003b44:	82 00 40 1a 	add  %g1, %i2, %g1
40003b48:	82 88 60 1f 	andcc  %g1, 0x1f, %g1
40003b4c:	12 80 01 7b 	bne  40004138 <_dtoa_r+0xe74>
40003b50:	84 10 20 1c 	mov  0x1c, %g2
40003b54:	d8 07 bf e0 	ld  [ %fp + -32 ], %o4
40003b58:	98 03 00 02 	add  %o4, %g2, %o4
40003b5c:	d8 27 bf e0 	st  %o4, [ %fp + -32 ]
40003b60:	b4 06 80 02 	add  %i2, %g2, %i2
40003b64:	b2 06 40 02 	add  %i1, %g2, %i1
40003b68:	80 a6 60 00 	cmp  %i1, 0
40003b6c:	04 80 00 06 	ble  40003b84 <_dtoa_r+0x8c0>
40003b70:	92 10 00 15 	mov  %l5, %o1
40003b74:	94 10 00 19 	mov  %i1, %o2
40003b78:	40 00 0b b8 	call  40006a58 <_lshift>
40003b7c:	90 10 00 18 	mov  %i0, %o0
40003b80:	aa 10 00 08 	mov  %o0, %l5
40003b84:	80 a6 a0 00 	cmp  %i2, 0
40003b88:	04 80 00 06 	ble  40003ba0 <_dtoa_r+0x8dc>
40003b8c:	d2 07 bf e8 	ld  [ %fp + -24 ], %o1
40003b90:	94 10 00 1a 	mov  %i2, %o2
40003b94:	40 00 0b b1 	call  40006a58 <_lshift>
40003b98:	90 10 00 18 	mov  %i0, %o0
40003b9c:	d0 27 bf e8 	st  %o0, [ %fp + -24 ]
40003ba0:	da 07 bf e4 	ld  [ %fp + -28 ], %o5
40003ba4:	80 a3 60 00 	cmp  %o5, 0
40003ba8:	12 80 01 f9 	bne  4000438c <_dtoa_r+0x10c8>
40003bac:	d2 07 bf e8 	ld  [ %fp + -24 ], %o1
40003bb0:	80 a5 e0 00 	cmp  %l7, 0
40003bb4:	04 80 02 54 	ble  40004504 <_dtoa_r+0x1240>
40003bb8:	80 a6 e0 02 	cmp  %i3, 2
40003bbc:	c4 07 bf d4 	ld  [ %fp + -44 ], %g2
40003bc0:	80 a0 a0 00 	cmp  %g2, 0
40003bc4:	a6 10 00 16 	mov  %l6, %l3
40003bc8:	02 80 02 1b 	be  40004434 <_dtoa_r+0x1170>
40003bcc:	b8 10 20 01 	mov  1, %i4
40003bd0:	c6 07 bf e0 	ld  [ %fp + -32 ], %g3
40003bd4:	80 a0 e0 00 	cmp  %g3, 0
40003bd8:	04 80 00 06 	ble  40003bf0 <_dtoa_r+0x92c>
40003bdc:	d2 07 bf f0 	ld  [ %fp + -16 ], %o1
40003be0:	94 10 00 03 	mov  %g3, %o2
40003be4:	40 00 0b 9d 	call  40006a58 <_lshift>
40003be8:	90 10 00 18 	mov  %i0, %o0
40003bec:	d0 27 bf f0 	st  %o0, [ %fp + -16 ]
40003bf0:	d8 07 bf dc 	ld  [ %fp + -36 ], %o4
40003bf4:	80 a3 20 00 	cmp  %o4, 0
40003bf8:	12 80 02 85 	bne  4000460c <_dtoa_r+0x1348>
40003bfc:	f8 07 bf f0 	ld  [ %fp + -16 ], %i4
40003c00:	b2 10 00 17 	mov  %l7, %i1
40003c04:	e0 07 bf f0 	ld  [ %fp + -16 ], %l0
40003c08:	ee 07 bf e8 	ld  [ %fp + -24 ], %l7
40003c0c:	b4 0c 60 01 	and  %l1, 1, %i2
40003c10:	a6 10 00 16 	mov  %l6, %l3
40003c14:	a2 10 20 01 	mov  1, %l1
40003c18:	92 10 00 17 	mov  %l7, %o1
40003c1c:	7f ff fd 24 	call  400030ac <quorem>
40003c20:	90 10 00 15 	mov  %l5, %o0
40003c24:	90 02 20 30 	add  %o0, 0x30, %o0
40003c28:	92 10 00 10 	mov  %l0, %o1
40003c2c:	d0 27 bf e4 	st  %o0, [ %fp + -28 ]
40003c30:	40 00 09 f5 	call  40006404 <__mcmp>
40003c34:	90 10 00 15 	mov  %l5, %o0
40003c38:	92 10 00 17 	mov  %l7, %o1
40003c3c:	d0 27 bf f0 	st  %o0, [ %fp + -16 ]
40003c40:	94 10 00 1c 	mov  %i4, %o2
40003c44:	40 00 0b 18 	call  400068a4 <__mdiff>
40003c48:	90 10 00 18 	mov  %i0, %o0
40003c4c:	c4 02 20 0c 	ld  [ %o0 + 0xc ], %g2
40003c50:	80 a0 a0 00 	cmp  %g2, 0
40003c54:	82 10 00 08 	mov  %o0, %g1
40003c58:	02 80 01 18 	be  400040b8 <_dtoa_r+0xdf4>
40003c5c:	84 10 20 01 	mov  1, %g2
40003c60:	c4 27 bf a8 	st  %g2, [ %fp + -88 ]
40003c64:	92 10 00 01 	mov  %g1, %o1
40003c68:	40 00 09 82 	call  40006270 <_Bfree>
40003c6c:	90 10 00 18 	mov  %i0, %o0
40003c70:	c4 07 bf a8 	ld  [ %fp + -88 ], %g2
40003c74:	80 a0 a0 00 	cmp  %g2, 0
40003c78:	12 80 00 08 	bne  40003c98 <_dtoa_r+0x9d4>
40003c7c:	c6 07 bf f0 	ld  [ %fp + -16 ], %g3
40003c80:	80 a6 e0 00 	cmp  %i3, 0
40003c84:	12 80 00 06 	bne  40003c9c <_dtoa_r+0x9d8>
40003c88:	80 a0 e0 00 	cmp  %g3, 0
40003c8c:	80 a6 a0 00 	cmp  %i2, 0
40003c90:	22 80 02 7d 	be,a   40004684 <_dtoa_r+0x13c0>
40003c94:	f2 07 bf e4 	ld  [ %fp + -28 ], %i1
40003c98:	80 a0 e0 00 	cmp  %g3, 0
40003c9c:	06 80 02 38 	bl  4000457c <_dtoa_r+0x12b8>
40003ca0:	80 a0 e0 00 	cmp  %g3, 0
40003ca4:	12 80 00 08 	bne  40003cc4 <_dtoa_r+0xa00>
40003ca8:	80 a0 a0 00 	cmp  %g2, 0
40003cac:	80 a6 e0 00 	cmp  %i3, 0
40003cb0:	12 80 00 05 	bne  40003cc4 <_dtoa_r+0xa00>
40003cb4:	80 a0 a0 00 	cmp  %g2, 0
40003cb8:	80 a6 a0 00 	cmp  %i2, 0
40003cbc:	02 80 02 30 	be  4000457c <_dtoa_r+0x12b8>
40003cc0:	80 a0 a0 00 	cmp  %g2, 0
40003cc4:	14 80 02 6a 	bg  4000466c <_dtoa_r+0x13a8>
40003cc8:	d8 07 bf e4 	ld  [ %fp + -28 ], %o4
40003ccc:	80 a4 40 19 	cmp  %l1, %i1
40003cd0:	d8 2c c0 00 	stb  %o4, [ %l3 ]
40003cd4:	02 80 02 64 	be  40004664 <_dtoa_r+0x13a0>
40003cd8:	a6 04 e0 01 	inc  %l3
40003cdc:	92 10 00 15 	mov  %l5, %o1
40003ce0:	90 10 00 18 	mov  %i0, %o0
40003ce4:	94 10 20 0a 	mov  0xa, %o2
40003ce8:	40 00 0c 3a 	call  40006dd0 <_multadd>
40003cec:	96 10 20 00 	clr  %o3
40003cf0:	80 a4 00 1c 	cmp  %l0, %i4
40003cf4:	02 80 01 1c 	be  40004164 <_dtoa_r+0xea0>
40003cf8:	aa 10 00 08 	mov  %o0, %l5
40003cfc:	92 10 00 10 	mov  %l0, %o1
40003d00:	94 10 20 0a 	mov  0xa, %o2
40003d04:	96 10 20 00 	clr  %o3
40003d08:	40 00 0c 32 	call  40006dd0 <_multadd>
40003d0c:	90 10 00 18 	mov  %i0, %o0
40003d10:	92 10 00 1c 	mov  %i4, %o1
40003d14:	a0 10 00 08 	mov  %o0, %l0
40003d18:	94 10 20 0a 	mov  0xa, %o2
40003d1c:	90 10 00 18 	mov  %i0, %o0
40003d20:	96 10 20 00 	clr  %o3
40003d24:	40 00 0c 2b 	call  40006dd0 <_multadd>
40003d28:	a2 04 60 01 	inc  %l1
40003d2c:	10 bf ff bb 	b  40003c18 <_dtoa_r+0x954>
40003d30:	b8 10 00 08 	mov  %o0, %i4
40003d34:	b2 26 40 14 	sub  %i1, %l4, %i1
40003d38:	da 27 bf dc 	st  %o5, [ %fp + -36 ]
40003d3c:	10 bf fe 14 	b  4000358c <_dtoa_r+0x2c8>
40003d40:	c0 27 bf d8 	clr  [ %fp + -40 ]
40003d44:	03 10 00 2e 	sethi  %hi(0x4000b800), %g1
40003d48:	d4 18 61 70 	ldd  [ %g1 + 0x170 ], %o2	! 4000b970 <__mprec_bigtens+0x20>
40003d4c:	c4 27 bf a8 	st  %g2, [ %fp + -88 ]
40003d50:	c6 27 bf ac 	st  %g3, [ %fp + -84 ]
40003d54:	90 10 00 0c 	mov  %o4, %o0
40003d58:	40 00 13 b4 	call  40008c28 <__divdf3>
40003d5c:	92 10 00 0d 	mov  %o5, %o1
40003d60:	a0 0c 20 0f 	and  %l0, 0xf, %l0
40003d64:	a2 10 20 03 	mov  3, %l1
40003d68:	d0 3f bf e8 	std  %o0, [ %fp + -24 ]
40003d6c:	c6 07 bf ac 	ld  [ %fp + -84 ], %g3
40003d70:	10 bf fe d3 	b  400038bc <_dtoa_r+0x5f8>
40003d74:	c4 07 bf a8 	ld  [ %fp + -88 ], %g2
40003d78:	22 80 01 7b 	be,a   40004364 <_dtoa_r+0x10a0>
40003d7c:	c0 27 bf d4 	clr  [ %fp + -44 ]
40003d80:	10 bf fe b4 	b  40003850 <_dtoa_r+0x58c>
40003d84:	a6 10 20 00 	clr  %l3
40003d88:	04 80 01 f5 	ble  4000455c <_dtoa_r+0x1298>
40003d8c:	d8 07 bf dc 	ld  [ %fp + -36 ], %o4
40003d90:	82 05 ff ff 	add  %l7, -1, %g1
40003d94:	80 a3 00 01 	cmp  %o4, %g1
40003d98:	16 80 00 09 	bge  40003dbc <_dtoa_r+0xaf8>
40003d9c:	a6 23 00 01 	sub  %o4, %g1, %l3
40003da0:	c4 07 bf d8 	ld  [ %fp + -40 ], %g2
40003da4:	82 20 40 0c 	sub  %g1, %o4, %g1
40003da8:	9a 03 00 01 	add  %o4, %g1, %o5
40003dac:	84 00 80 01 	add  %g2, %g1, %g2
40003db0:	da 27 bf dc 	st  %o5, [ %fp + -36 ]
40003db4:	c4 27 bf d8 	st  %g2, [ %fp + -40 ]
40003db8:	a6 10 20 00 	clr  %l3
40003dbc:	86 26 40 17 	sub  %i1, %l7, %g3
40003dc0:	c6 27 bf e0 	st  %g3, [ %fp + -32 ]
40003dc4:	80 a5 e0 00 	cmp  %l7, 0
40003dc8:	06 80 00 04 	bl  40003dd8 <_dtoa_r+0xb14>
40003dcc:	82 10 20 00 	clr  %g1
40003dd0:	f2 27 bf e0 	st  %i1, [ %fp + -32 ]
40003dd4:	82 10 00 17 	mov  %l7, %g1
40003dd8:	b4 06 80 01 	add  %i2, %g1, %i2
40003ddc:	b2 06 40 01 	add  %i1, %g1, %i1
40003de0:	90 10 00 18 	mov  %i0, %o0
40003de4:	40 00 0b f2 	call  40006dac <_i2b>
40003de8:	92 10 20 01 	mov  1, %o1
40003dec:	10 bf ff 18 	b  40003a4c <_dtoa_r+0x788>
40003df0:	d0 27 bf f0 	st  %o0, [ %fp + -16 ]
40003df4:	e8 27 bf e0 	st  %l4, [ %fp + -32 ]
40003df8:	a2 10 00 17 	mov  %l7, %l1
40003dfc:	d8 07 bf d4 	ld  [ %fp + -44 ], %o4
40003e00:	80 a3 20 00 	cmp  %o4, 0
40003e04:	02 80 00 ff 	be  40004200 <_dtoa_r+0xf3c>
40003e08:	82 04 7f ff 	add  %l1, -1, %g1
40003e0c:	89 28 60 03 	sll  %g1, 3, %g4
40003e10:	03 10 00 2e 	sethi  %hi(0x4000b800), %g1
40003e14:	82 10 60 88 	or  %g1, 0x88, %g1	! 4000b888 <__mprec_tens>
40003e18:	d4 18 40 04 	ldd  [ %g1 + %g4 ], %o2
40003e1c:	03 10 00 2e 	sethi  %hi(0x4000b800), %g1
40003e20:	d0 18 60 28 	ldd  [ %g1 + 0x28 ], %o0	! 4000b828 <blanks.3054+0x80>
40003e24:	c4 27 bf a8 	st  %g2, [ %fp + -88 ]
40003e28:	40 00 13 80 	call  40008c28 <__divdf3>
40003e2c:	c6 27 bf ac 	st  %g3, [ %fp + -84 ]
40003e30:	c4 07 bf a8 	ld  [ %fp + -88 ], %g2
40003e34:	c6 07 bf ac 	ld  [ %fp + -84 ], %g3
40003e38:	94 10 00 02 	mov  %g2, %o2
40003e3c:	40 00 12 77 	call  40008818 <__subdf3>
40003e40:	96 10 00 03 	mov  %g3, %o3
40003e44:	d0 3f bf c0 	std  %o0, [ %fp + -64 ]
40003e48:	40 00 14 ba 	call  40009130 <__fixdfsi>
40003e4c:	d0 1f bf e8 	ldd  [ %fp + -24 ], %o0
40003e50:	40 00 14 82 	call  40009058 <__floatsidf>
40003e54:	a0 10 00 08 	mov  %o0, %l0
40003e58:	94 10 00 08 	mov  %o0, %o2
40003e5c:	96 10 00 09 	mov  %o1, %o3
40003e60:	40 00 12 6e 	call  40008818 <__subdf3>
40003e64:	d0 1f bf e8 	ldd  [ %fp + -24 ], %o0
40003e68:	d0 3f bf e8 	std  %o0, [ %fp + -24 ]
40003e6c:	82 04 20 30 	add  %l0, 0x30, %g1
40003e70:	d0 1f bf c0 	ldd  [ %fp + -64 ], %o0
40003e74:	a6 05 a0 01 	add  %l6, 1, %l3
40003e78:	d4 1f bf e8 	ldd  [ %fp + -24 ], %o2
40003e7c:	40 00 14 2c 	call  40008f2c <__gtdf2>
40003e80:	c2 2d 80 00 	stb  %g1, [ %l6 ]
40003e84:	80 a2 20 00 	cmp  %o0, 0
40003e88:	14 bf fd 3f 	bg  40003384 <_dtoa_r+0xc0>
40003e8c:	d4 1f bf e8 	ldd  [ %fp + -24 ], %o2
40003e90:	21 10 00 2e 	sethi  %hi(0x4000b800), %l0
40003e94:	40 00 12 61 	call  40008818 <__subdf3>
40003e98:	d0 1c 20 08 	ldd  [ %l0 + 8 ], %o0	! 4000b808 <blanks.3054+0x60>
40003e9c:	94 10 00 08 	mov  %o0, %o2
40003ea0:	96 10 00 09 	mov  %o1, %o3
40003ea4:	40 00 14 22 	call  40008f2c <__gtdf2>
40003ea8:	d0 1f bf c0 	ldd  [ %fp + -64 ], %o0
40003eac:	80 a2 20 00 	cmp  %o0, 0
40003eb0:	14 80 01 35 	bg  40004384 <_dtoa_r+0x10c0>
40003eb4:	80 a4 60 01 	cmp  %l1, 1
40003eb8:	24 bf fd e3 	ble,a   40003644 <_dtoa_r+0x380>
40003ebc:	e0 1f bf f0 	ldd  [ %fp + -16 ], %l0
40003ec0:	f4 27 bf bc 	st  %i2, [ %fp + -68 ]
40003ec4:	e8 27 bf b8 	st  %l4, [ %fp + -72 ]
40003ec8:	f2 27 bf b0 	st  %i1, [ %fp + -80 ]
40003ecc:	a0 10 20 01 	mov  1, %l0
40003ed0:	b2 10 00 15 	mov  %l5, %i1
40003ed4:	ee 27 bf b4 	st  %l7, [ %fp + -76 ]
40003ed8:	e8 1f bf c0 	ldd  [ %fp + -64 ], %l4
40003edc:	e4 27 bf c0 	st  %l2, [ %fp + -64 ]
40003ee0:	a4 10 00 1c 	mov  %i4, %l2
40003ee4:	b8 10 00 1b 	mov  %i3, %i4
40003ee8:	10 80 00 0e 	b  40003f20 <_dtoa_r+0xc5c>
40003eec:	f4 1f bf e8 	ldd  [ %fp + -24 ], %i2
40003ef0:	1b 10 00 2e 	sethi  %hi(0x4000b800), %o5
40003ef4:	9a 13 60 08 	or  %o5, 8, %o5	! 4000b808 <blanks.3054+0x60>
40003ef8:	40 00 12 48 	call  40008818 <__subdf3>
40003efc:	d0 1b 40 00 	ldd  [ %o5 ], %o0
40003f00:	94 10 00 14 	mov  %l4, %o2
40003f04:	40 00 14 3c 	call  40008ff4 <__ltdf2>
40003f08:	96 10 00 15 	mov  %l5, %o3
40003f0c:	80 a2 20 00 	cmp  %o0, 0
40003f10:	06 80 01 1b 	bl  4000437c <_dtoa_r+0x10b8>
40003f14:	80 a4 00 11 	cmp  %l0, %l1
40003f18:	36 80 00 45 	bge,a   4000402c <_dtoa_r+0xd68>
40003f1c:	aa 10 00 19 	mov  %i1, %l5
40003f20:	03 10 00 2e 	sethi  %hi(0x4000b800), %g1
40003f24:	d4 18 60 10 	ldd  [ %g1 + 0x10 ], %o2	! 4000b810 <blanks.3054+0x68>
40003f28:	90 10 00 14 	mov  %l4, %o0
40003f2c:	40 00 12 66 	call  400088c4 <__muldf3>
40003f30:	92 10 00 15 	mov  %l5, %o1
40003f34:	05 10 00 2e 	sethi  %hi(0x4000b800), %g2
40003f38:	d4 18 a0 10 	ldd  [ %g2 + 0x10 ], %o2	! 4000b810 <blanks.3054+0x68>
40003f3c:	a8 10 00 08 	mov  %o0, %l4
40003f40:	aa 10 00 09 	mov  %o1, %l5
40003f44:	90 10 00 1a 	mov  %i2, %o0
40003f48:	40 00 12 5f 	call  400088c4 <__muldf3>
40003f4c:	92 10 00 1b 	mov  %i3, %o1
40003f50:	b6 10 00 09 	mov  %o1, %i3
40003f54:	40 00 14 77 	call  40009130 <__fixdfsi>
40003f58:	b4 10 00 08 	mov  %o0, %i2
40003f5c:	ae 10 00 08 	mov  %o0, %l7
40003f60:	40 00 14 3e 	call  40009058 <__floatsidf>
40003f64:	ae 05 e0 30 	add  %l7, 0x30, %l7
40003f68:	94 10 00 08 	mov  %o0, %o2
40003f6c:	96 10 00 09 	mov  %o1, %o3
40003f70:	90 10 00 1a 	mov  %i2, %o0
40003f74:	40 00 12 29 	call  40008818 <__subdf3>
40003f78:	92 10 00 1b 	mov  %i3, %o1
40003f7c:	ee 2c c0 00 	stb  %l7, [ %l3 ]
40003f80:	b4 10 00 08 	mov  %o0, %i2
40003f84:	b6 10 00 09 	mov  %o1, %i3
40003f88:	94 10 00 14 	mov  %l4, %o2
40003f8c:	40 00 14 1a 	call  40008ff4 <__ltdf2>
40003f90:	96 10 00 15 	mov  %l5, %o3
40003f94:	a0 04 20 01 	inc  %l0
40003f98:	a6 04 e0 01 	inc  %l3
40003f9c:	94 10 00 1a 	mov  %i2, %o2
40003fa0:	80 a2 20 00 	cmp  %o0, 0
40003fa4:	16 bf ff d3 	bge  40003ef0 <_dtoa_r+0xc2c>
40003fa8:	96 10 00 1b 	mov  %i3, %o3
40003fac:	aa 10 00 19 	mov  %i1, %l5
40003fb0:	10 bf fc f5 	b  40003384 <_dtoa_r+0xc0>
40003fb4:	e4 07 bf c0 	ld  [ %fp + -64 ], %l2
40003fb8:	32 bf fe df 	bne,a   40003b34 <_dtoa_r+0x870>
40003fbc:	c0 27 bf dc 	clr  [ %fp + -36 ]
40003fc0:	05 3f fc 00 	sethi  %hi(0xfff00000), %g2
40003fc4:	80 ac 00 02 	andncc  %l0, %g2, %g0
40003fc8:	32 bf fe db 	bne,a   40003b34 <_dtoa_r+0x870>
40003fcc:	c0 27 bf dc 	clr  [ %fp + -36 ]
40003fd0:	05 1f fc 00 	sethi  %hi(0x7ff00000), %g2
40003fd4:	80 8c 00 02 	btst  %l0, %g2
40003fd8:	22 bf fe d7 	be,a   40003b34 <_dtoa_r+0x870>
40003fdc:	c0 27 bf dc 	clr  [ %fp + -36 ]
40003fe0:	9a 10 20 01 	mov  1, %o5
40003fe4:	b2 06 60 01 	inc  %i1
40003fe8:	b4 06 a0 01 	inc  %i2
40003fec:	10 bf fe d2 	b  40003b34 <_dtoa_r+0x870>
40003ff0:	da 27 bf dc 	st  %o5, [ %fp + -36 ]
40003ff4:	c2 4c ff ff 	ldsb  [ %l3 + -1 ], %g1
40003ff8:	80 a0 60 39 	cmp  %g1, 0x39
40003ffc:	c4 0c ff ff 	ldub  [ %l3 + -1 ], %g2
40004000:	12 bf fc de 	bne  40003378 <_dtoa_r+0xb4>
40004004:	82 04 ff ff 	add  %l3, -1, %g1
40004008:	80 a0 40 16 	cmp  %g1, %l6
4000400c:	32 bf ff fa 	bne,a   40003ff4 <_dtoa_r+0xd30>
40004010:	a6 10 00 01 	mov  %g1, %l3
40004014:	82 10 20 30 	mov  0x30, %g1
40004018:	a8 05 20 01 	inc  %l4
4000401c:	c2 2d 80 00 	stb  %g1, [ %l6 ]
40004020:	84 10 20 31 	mov  0x31, %g2
40004024:	10 bf fc d6 	b  4000337c <_dtoa_r+0xb8>
40004028:	82 10 00 16 	mov  %l6, %g1
4000402c:	b6 10 00 1c 	mov  %i4, %i3
40004030:	f4 07 bf bc 	ld  [ %fp + -68 ], %i2
40004034:	b8 10 00 12 	mov  %l2, %i4
40004038:	e8 07 bf b8 	ld  [ %fp + -72 ], %l4
4000403c:	ee 07 bf b4 	ld  [ %fp + -76 ], %l7
40004040:	f2 07 bf b0 	ld  [ %fp + -80 ], %i1
40004044:	e4 07 bf c0 	ld  [ %fp + -64 ], %l2
40004048:	10 bf fd 7f 	b  40003644 <_dtoa_r+0x380>
4000404c:	e0 1f bf f0 	ldd  [ %fp + -16 ], %l0
40004050:	04 bf fe 3c 	ble  40003940 <_dtoa_r+0x67c>
40004054:	da 07 bf d0 	ld  [ %fp + -48 ], %o5
40004058:	80 a3 60 00 	cmp  %o5, 0
4000405c:	04 bf ff fb 	ble  40004048 <_dtoa_r+0xd84>
40004060:	d0 1f bf e8 	ldd  [ %fp + -24 ], %o0
40004064:	21 10 00 2e 	sethi  %hi(0x4000b800), %l0
40004068:	40 00 12 17 	call  400088c4 <__muldf3>
4000406c:	d4 1c 20 10 	ldd  [ %l0 + 0x10 ], %o2	! 4000b810 <blanks.3054+0x68>
40004070:	d0 3f bf e8 	std  %o0, [ %fp + -24 ]
40004074:	40 00 13 f9 	call  40009058 <__floatsidf>
40004078:	90 04 60 01 	add  %l1, 1, %o0
4000407c:	94 10 00 08 	mov  %o0, %o2
40004080:	96 10 00 09 	mov  %o1, %o3
40004084:	40 00 12 10 	call  400088c4 <__muldf3>
40004088:	d0 1f bf e8 	ldd  [ %fp + -24 ], %o0
4000408c:	03 10 00 2e 	sethi  %hi(0x4000b800), %g1
40004090:	d4 18 60 18 	ldd  [ %g1 + 0x18 ], %o2	! 4000b818 <blanks.3054+0x70>
40004094:	82 05 3f ff 	add  %l4, -1, %g1
40004098:	40 00 11 f7 	call  40008874 <__adddf3>
4000409c:	c2 27 bf e0 	st  %g1, [ %fp + -32 ]
400040a0:	03 3f 30 00 	sethi  %hi(0xfcc00000), %g1
400040a4:	84 10 00 08 	mov  %o0, %g2
400040a8:	e2 07 bf d0 	ld  [ %fp + -48 ], %l1
400040ac:	86 10 00 09 	mov  %o1, %g3
400040b0:	10 bf ff 53 	b  40003dfc <_dtoa_r+0xb38>
400040b4:	84 00 40 02 	add  %g1, %g2, %g2
400040b8:	92 10 00 01 	mov  %g1, %o1
400040bc:	c2 27 bf ac 	st  %g1, [ %fp + -84 ]
400040c0:	40 00 08 d1 	call  40006404 <__mcmp>
400040c4:	90 10 00 15 	mov  %l5, %o0
400040c8:	c2 07 bf ac 	ld  [ %fp + -84 ], %g1
400040cc:	10 bf fe e5 	b  40003c60 <_dtoa_r+0x99c>
400040d0:	84 10 00 08 	mov  %o0, %g2
400040d4:	80 a7 20 00 	cmp  %i4, 0
400040d8:	16 bf fd 67 	bge  40003674 <_dtoa_r+0x3b0>
400040dc:	94 10 00 1a 	mov  %i2, %o2
400040e0:	80 a5 e0 00 	cmp  %l7, 0
400040e4:	12 bf fe 3b 	bne  400039d0 <_dtoa_r+0x70c>
400040e8:	03 10 00 2e 	sethi  %hi(0x4000b800), %g1
400040ec:	d4 18 60 20 	ldd  [ %g1 + 0x20 ], %o2	! 4000b820 <blanks.3054+0x78>
400040f0:	90 10 00 1a 	mov  %i2, %o0
400040f4:	40 00 11 f4 	call  400088c4 <__muldf3>
400040f8:	92 10 00 1b 	mov  %i3, %o1
400040fc:	94 10 00 10 	mov  %l0, %o2
40004100:	40 00 13 a4 	call  40008f90 <__gedf2>
40004104:	96 10 00 11 	mov  %l1, %o3
40004108:	80 a2 20 00 	cmp  %o0, 0
4000410c:	36 bf fe 32 	bge,a   400039d4 <_dtoa_r+0x710>
40004110:	c0 27 bf e8 	clr  [ %fp + -24 ]
40004114:	c0 27 bf e8 	clr  [ %fp + -24 ]
40004118:	c0 27 bf f0 	clr  [ %fp + -16 ]
4000411c:	f8 07 bf f0 	ld  [ %fp + -16 ], %i4
40004120:	82 10 20 31 	mov  0x31, %g1
40004124:	a8 05 20 01 	inc  %l4
40004128:	c2 2d 80 00 	stb  %g1, [ %l6 ]
4000412c:	a6 05 a0 01 	add  %l6, 1, %l3
40004130:	10 bf fe 2e 	b  400039e8 <_dtoa_r+0x724>
40004134:	a0 10 20 00 	clr  %l0
40004138:	84 10 20 20 	mov  0x20, %g2
4000413c:	82 20 80 01 	sub  %g2, %g1, %g1
40004140:	80 a0 60 04 	cmp  %g1, 4
40004144:	04 80 01 67 	ble  400046e0 <_dtoa_r+0x141c>
40004148:	c6 07 bf e0 	ld  [ %fp + -32 ], %g3
4000414c:	82 00 7f fc 	add  %g1, -4, %g1
40004150:	86 00 c0 01 	add  %g3, %g1, %g3
40004154:	b4 06 80 01 	add  %i2, %g1, %i2
40004158:	b2 06 40 01 	add  %i1, %g1, %i1
4000415c:	10 bf fe 83 	b  40003b68 <_dtoa_r+0x8a4>
40004160:	c6 27 bf e0 	st  %g3, [ %fp + -32 ]
40004164:	92 10 00 10 	mov  %l0, %o1
40004168:	90 10 00 18 	mov  %i0, %o0
4000416c:	94 10 20 0a 	mov  0xa, %o2
40004170:	96 10 20 00 	clr  %o3
40004174:	40 00 0b 17 	call  40006dd0 <_multadd>
40004178:	a2 04 60 01 	inc  %l1
4000417c:	a0 10 00 08 	mov  %o0, %l0
40004180:	10 bf fe a6 	b  40003c18 <_dtoa_r+0x954>
40004184:	b8 10 00 08 	mov  %o0, %i4
40004188:	c4 1f bf f0 	ldd  [ %fp + -16 ], %g2
4000418c:	c4 3f bf e8 	std  %g2, [ %fp + -24 ]
40004190:	a0 a0 00 14 	subcc  %g0, %l4, %l0
40004194:	02 bf fd e1 	be  40003918 <_dtoa_r+0x654>
40004198:	a2 10 20 02 	mov  2, %l1
4000419c:	82 0c 20 0f 	and  %l0, 0xf, %g1
400041a0:	05 10 00 2e 	sethi  %hi(0x4000b800), %g2
400041a4:	83 28 60 03 	sll  %g1, 3, %g1
400041a8:	84 10 a0 88 	or  %g2, 0x88, %g2
400041ac:	d0 1f bf f0 	ldd  [ %fp + -16 ], %o0
400041b0:	40 00 11 c5 	call  400088c4 <__muldf3>
400041b4:	d4 18 80 01 	ldd  [ %g2 + %g1 ], %o2
400041b8:	a1 3c 20 04 	sra  %l0, 4, %l0
400041bc:	80 a4 20 00 	cmp  %l0, 0
400041c0:	02 bf fd d6 	be  40003918 <_dtoa_r+0x654>
400041c4:	d0 3f bf e8 	std  %o0, [ %fp + -24 ]
400041c8:	27 10 00 2e 	sethi  %hi(0x4000b800), %l3
400041cc:	a6 14 e1 50 	or  %l3, 0x150, %l3	! 4000b950 <__mprec_bigtens>
400041d0:	80 8c 20 01 	btst  1, %l0
400041d4:	22 80 00 06 	be,a   400041ec <_dtoa_r+0xf28>
400041d8:	a1 3c 20 01 	sra  %l0, 1, %l0
400041dc:	d4 1c c0 00 	ldd  [ %l3 ], %o2
400041e0:	40 00 11 b9 	call  400088c4 <__muldf3>
400041e4:	a2 04 60 01 	inc  %l1
400041e8:	a1 3c 20 01 	sra  %l0, 1, %l0
400041ec:	80 a4 20 00 	cmp  %l0, 0
400041f0:	12 bf ff f8 	bne  400041d0 <_dtoa_r+0xf0c>
400041f4:	a6 04 e0 08 	add  %l3, 8, %l3
400041f8:	10 bf fd c8 	b  40003918 <_dtoa_r+0x654>
400041fc:	d0 3f bf e8 	std  %o0, [ %fp + -24 ]
40004200:	89 28 60 03 	sll  %g1, 3, %g4
40004204:	03 10 00 2e 	sethi  %hi(0x4000b800), %g1
40004208:	82 10 60 88 	or  %g1, 0x88, %g1	! 4000b888 <__mprec_tens>
4000420c:	d0 18 40 04 	ldd  [ %g1 + %g4 ], %o0
40004210:	94 10 00 02 	mov  %g2, %o2
40004214:	40 00 11 ac 	call  400088c4 <__muldf3>
40004218:	96 10 00 03 	mov  %g3, %o3
4000421c:	d0 3f bf c0 	std  %o0, [ %fp + -64 ]
40004220:	40 00 13 c4 	call  40009130 <__fixdfsi>
40004224:	d0 1f bf e8 	ldd  [ %fp + -24 ], %o0
40004228:	a0 10 00 08 	mov  %o0, %l0
4000422c:	40 00 13 8b 	call  40009058 <__floatsidf>
40004230:	a0 04 20 30 	add  %l0, 0x30, %l0
40004234:	94 10 00 08 	mov  %o0, %o2
40004238:	96 10 00 09 	mov  %o1, %o3
4000423c:	40 00 11 77 	call  40008818 <__subdf3>
40004240:	d0 1f bf e8 	ldd  [ %fp + -24 ], %o0
40004244:	e0 2d 80 00 	stb  %l0, [ %l6 ]
40004248:	84 10 00 08 	mov  %o0, %g2
4000424c:	86 10 00 09 	mov  %o1, %g3
40004250:	80 a4 60 01 	cmp  %l1, 1
40004254:	a6 05 a0 01 	add  %l6, 1, %l3
40004258:	02 80 00 1b 	be  400042c4 <_dtoa_r+0x1000>
4000425c:	a0 10 20 01 	mov  1, %l0
40004260:	e4 27 bf bc 	st  %l2, [ %fp + -68 ]
40004264:	90 10 00 02 	mov  %g2, %o0
40004268:	a4 10 00 11 	mov  %l1, %l2
4000426c:	07 10 00 2e 	sethi  %hi(0x4000b800), %g3
40004270:	40 00 11 95 	call  400088c4 <__muldf3>
40004274:	d4 18 e0 10 	ldd  [ %g3 + 0x10 ], %o2	! 4000b810 <blanks.3054+0x68>
40004278:	40 00 13 ae 	call  40009130 <__fixdfsi>
4000427c:	d0 3f bf e8 	std  %o0, [ %fp + -24 ]
40004280:	a2 10 00 08 	mov  %o0, %l1
40004284:	40 00 13 75 	call  40009058 <__floatsidf>
40004288:	a2 04 60 30 	add  %l1, 0x30, %l1
4000428c:	94 10 00 08 	mov  %o0, %o2
40004290:	96 10 00 09 	mov  %o1, %o3
40004294:	40 00 11 61 	call  40008818 <__subdf3>
40004298:	d0 1f bf e8 	ldd  [ %fp + -24 ], %o0
4000429c:	e2 2d 80 10 	stb  %l1, [ %l6 + %l0 ]
400042a0:	a0 04 20 01 	inc  %l0
400042a4:	80 a4 00 12 	cmp  %l0, %l2
400042a8:	12 bf ff f2 	bne  40004270 <_dtoa_r+0xfac>
400042ac:	07 10 00 2e 	sethi  %hi(0x4000b800), %g3
400042b0:	e4 07 bf bc 	ld  [ %fp + -68 ], %l2
400042b4:	a0 04 3f ff 	add  %l0, -1, %l0
400042b8:	84 10 00 08 	mov  %o0, %g2
400042bc:	86 10 00 09 	mov  %o1, %g3
400042c0:	a6 04 c0 10 	add  %l3, %l0, %l3
400042c4:	21 10 00 2e 	sethi  %hi(0x4000b800), %l0
400042c8:	d0 1f bf c0 	ldd  [ %fp + -64 ], %o0
400042cc:	d4 1c 20 28 	ldd  [ %l0 + 0x28 ], %o2
400042d0:	c4 27 bf a8 	st  %g2, [ %fp + -88 ]
400042d4:	40 00 11 68 	call  40008874 <__adddf3>
400042d8:	c6 27 bf ac 	st  %g3, [ %fp + -84 ]
400042dc:	c4 07 bf a8 	ld  [ %fp + -88 ], %g2
400042e0:	c6 07 bf ac 	ld  [ %fp + -84 ], %g3
400042e4:	94 10 00 08 	mov  %o0, %o2
400042e8:	96 10 00 09 	mov  %o1, %o3
400042ec:	90 10 00 02 	mov  %g2, %o0
400042f0:	40 00 13 0f 	call  40008f2c <__gtdf2>
400042f4:	92 10 00 03 	mov  %g3, %o1
400042f8:	80 a2 20 00 	cmp  %o0, 0
400042fc:	34 bf ff 3e 	bg,a   40003ff4 <_dtoa_r+0xd30>
40004300:	e8 07 bf e0 	ld  [ %fp + -32 ], %l4
40004304:	d4 1f bf c0 	ldd  [ %fp + -64 ], %o2
40004308:	40 00 11 44 	call  40008818 <__subdf3>
4000430c:	d0 1c 20 28 	ldd  [ %l0 + 0x28 ], %o0
40004310:	c4 07 bf a8 	ld  [ %fp + -88 ], %g2
40004314:	c6 07 bf ac 	ld  [ %fp + -84 ], %g3
40004318:	94 10 00 08 	mov  %o0, %o2
4000431c:	96 10 00 09 	mov  %o1, %o3
40004320:	90 10 00 02 	mov  %g2, %o0
40004324:	40 00 13 34 	call  40008ff4 <__ltdf2>
40004328:	92 10 00 03 	mov  %g3, %o1
4000432c:	80 a2 20 00 	cmp  %o0, 0
40004330:	36 bf fc c5 	bge,a   40003644 <_dtoa_r+0x380>
40004334:	e0 1f bf f0 	ldd  [ %fp + -16 ], %l0
40004338:	10 80 00 04 	b  40004348 <_dtoa_r+0x1084>
4000433c:	c2 4c ff ff 	ldsb  [ %l3 + -1 ], %g1
40004340:	a6 10 00 01 	mov  %g1, %l3
40004344:	c2 4c ff ff 	ldsb  [ %l3 + -1 ], %g1
40004348:	80 a0 60 30 	cmp  %g1, 0x30
4000434c:	02 bf ff fd 	be  40004340 <_dtoa_r+0x107c>
40004350:	82 04 ff ff 	add  %l3, -1, %g1
40004354:	10 bf fc 0d 	b  40003388 <_dtoa_r+0xc4>
40004358:	90 10 00 18 	mov  %i0, %o0
4000435c:	98 10 20 01 	mov  1, %o4
40004360:	d8 27 bf d4 	st  %o4, [ %fp + -44 ]
40004364:	80 a7 20 00 	cmp  %i4, 0
40004368:	04 80 00 2a 	ble  40004410 <_dtoa_r+0x114c>
4000436c:	88 10 00 1c 	mov  %i4, %g4
40004370:	f8 27 bf d0 	st  %i4, [ %fp + -48 ]
40004374:	10 bf fc 9f 	b  400035f0 <_dtoa_r+0x32c>
40004378:	ae 10 00 1c 	mov  %i4, %l7
4000437c:	e4 07 bf c0 	ld  [ %fp + -64 ], %l2
40004380:	aa 10 00 19 	mov  %i1, %l5
40004384:	10 bf ff 1c 	b  40003ff4 <_dtoa_r+0xd30>
40004388:	e8 07 bf e0 	ld  [ %fp + -32 ], %l4
4000438c:	40 00 08 1e 	call  40006404 <__mcmp>
40004390:	90 10 00 15 	mov  %l5, %o0
40004394:	80 a2 20 00 	cmp  %o0, 0
40004398:	16 bf fe 07 	bge  40003bb4 <_dtoa_r+0x8f0>
4000439c:	80 a5 e0 00 	cmp  %l7, 0
400043a0:	92 10 00 15 	mov  %l5, %o1
400043a4:	90 10 00 18 	mov  %i0, %o0
400043a8:	94 10 20 0a 	mov  0xa, %o2
400043ac:	40 00 0a 89 	call  40006dd0 <_multadd>
400043b0:	96 10 20 00 	clr  %o3
400043b4:	c2 07 bf d4 	ld  [ %fp + -44 ], %g1
400043b8:	aa 10 00 08 	mov  %o0, %l5
400043bc:	a8 05 3f ff 	add  %l4, -1, %l4
400043c0:	80 a0 60 00 	cmp  %g1, 0
400043c4:	02 bf fd fb 	be  40003bb0 <_dtoa_r+0x8ec>
400043c8:	ee 07 bf d0 	ld  [ %fp + -48 ], %l7
400043cc:	d2 07 bf f0 	ld  [ %fp + -16 ], %o1
400043d0:	90 10 00 18 	mov  %i0, %o0
400043d4:	94 10 20 0a 	mov  0xa, %o2
400043d8:	40 00 0a 7e 	call  40006dd0 <_multadd>
400043dc:	96 10 20 00 	clr  %o3
400043e0:	10 bf fd f4 	b  40003bb0 <_dtoa_r+0x8ec>
400043e4:	d0 27 bf f0 	st  %o0, [ %fp + -16 ]
400043e8:	c4 07 bf e8 	ld  [ %fp + -24 ], %g2
400043ec:	c2 00 a0 10 	ld  [ %g2 + 0x10 ], %g1
400043f0:	82 00 60 03 	add  %g1, 3, %g1
400043f4:	83 28 60 02 	sll  %g1, 2, %g1
400043f8:	82 00 80 01 	add  %g2, %g1, %g1
400043fc:	40 00 07 a8 	call  4000629c <_hi0bits>
40004400:	d0 00 60 04 	ld  [ %g1 + 4 ], %o0
40004404:	82 10 20 20 	mov  0x20, %g1
40004408:	10 bf fd cf 	b  40003b44 <_dtoa_r+0x880>
4000440c:	82 20 40 08 	sub  %g1, %o0, %g1
40004410:	9a 10 20 01 	mov  1, %o5
40004414:	ae 10 20 01 	mov  1, %l7
40004418:	da 27 bf d0 	st  %o5, [ %fp + -48 ]
4000441c:	10 bf fd 13 	b  40003868 <_dtoa_r+0x5a4>
40004420:	b8 10 20 01 	mov  1, %i4
40004424:	80 a5 e0 0f 	cmp  %l7, 0xf
40004428:	82 40 20 00 	addx  %g0, 0, %g1
4000442c:	10 bf fd 0f 	b  40003868 <_dtoa_r+0x5a4>
40004430:	a6 0c c0 01 	and  %l3, %g1, %l3
40004434:	10 80 00 08 	b  40004454 <_dtoa_r+0x1190>
40004438:	e0 07 bf e8 	ld  [ %fp + -24 ], %l0
4000443c:	90 10 00 18 	mov  %i0, %o0
40004440:	94 10 20 0a 	mov  0xa, %o2
40004444:	96 10 20 00 	clr  %o3
40004448:	40 00 0a 62 	call  40006dd0 <_multadd>
4000444c:	b8 07 20 01 	inc  %i4
40004450:	aa 10 00 08 	mov  %o0, %l5
40004454:	92 10 00 10 	mov  %l0, %o1
40004458:	7f ff fb 15 	call  400030ac <quorem>
4000445c:	90 10 00 15 	mov  %l5, %o0
40004460:	90 02 20 30 	add  %o0, 0x30, %o0
40004464:	80 a7 00 17 	cmp  %i4, %l7
40004468:	92 10 00 15 	mov  %l5, %o1
4000446c:	d0 2c c0 00 	stb  %o0, [ %l3 ]
40004470:	06 bf ff f3 	bl  4000443c <_dtoa_r+0x1178>
40004474:	a6 04 e0 01 	inc  %l3
40004478:	f8 07 bf f0 	ld  [ %fp + -16 ], %i4
4000447c:	b2 10 00 08 	mov  %o0, %i1
40004480:	a0 10 20 00 	clr  %l0
40004484:	92 10 00 15 	mov  %l5, %o1
40004488:	94 10 20 01 	mov  1, %o2
4000448c:	40 00 09 73 	call  40006a58 <_lshift>
40004490:	90 10 00 18 	mov  %i0, %o0
40004494:	d2 07 bf e8 	ld  [ %fp + -24 ], %o1
40004498:	40 00 07 db 	call  40006404 <__mcmp>
4000449c:	aa 10 00 08 	mov  %o0, %l5
400044a0:	80 a2 20 00 	cmp  %o0, 0
400044a4:	34 80 00 04 	bg,a   400044b4 <_dtoa_r+0x11f0>
400044a8:	c2 4c ff ff 	ldsb  [ %l3 + -1 ], %g1
400044ac:	30 80 00 47 	b,a   400045c8 <_dtoa_r+0x1304>
400044b0:	c2 4c ff ff 	ldsb  [ %l3 + -1 ], %g1
400044b4:	80 a0 60 39 	cmp  %g1, 0x39
400044b8:	c4 0c ff ff 	ldub  [ %l3 + -1 ], %g2
400044bc:	12 80 00 51 	bne  40004600 <_dtoa_r+0x133c>
400044c0:	82 04 ff ff 	add  %l3, -1, %g1
400044c4:	80 a0 40 16 	cmp  %g1, %l6
400044c8:	32 bf ff fa 	bne,a   400044b0 <_dtoa_r+0x11ec>
400044cc:	a6 10 00 01 	mov  %g1, %l3
400044d0:	82 10 20 31 	mov  0x31, %g1
400044d4:	a8 05 20 01 	inc  %l4
400044d8:	10 bf fd 44 	b  400039e8 <_dtoa_r+0x724>
400044dc:	c2 2d 80 00 	stb  %g1, [ %l6 ]
400044e0:	e8 27 bf e0 	st  %l4, [ %fp + -32 ]
400044e4:	10 bf fb a8 	b  40003384 <_dtoa_r+0xc0>
400044e8:	e4 07 bf e8 	ld  [ %fp + -24 ], %l2
400044ec:	d4 07 bf dc 	ld  [ %fp + -36 ], %o2
400044f0:	92 10 00 15 	mov  %l5, %o1
400044f4:	40 00 0a 71 	call  40006eb8 <_pow5mult>
400044f8:	90 10 00 18 	mov  %i0, %o0
400044fc:	10 bf fd 7e 	b  40003af4 <_dtoa_r+0x830>
40004500:	aa 10 00 08 	mov  %o0, %l5
40004504:	04 bf fd af 	ble  40003bc0 <_dtoa_r+0x8fc>
40004508:	c4 07 bf d4 	ld  [ %fp + -44 ], %g2
4000450c:	80 a5 e0 00 	cmp  %l7, 0
40004510:	12 bf fd 32 	bne  400039d8 <_dtoa_r+0x714>
40004514:	d2 07 bf e8 	ld  [ %fp + -24 ], %o1
40004518:	94 10 20 05 	mov  5, %o2
4000451c:	96 10 20 00 	clr  %o3
40004520:	40 00 0a 2c 	call  40006dd0 <_multadd>
40004524:	90 10 00 18 	mov  %i0, %o0
40004528:	d0 27 bf e8 	st  %o0, [ %fp + -24 ]
4000452c:	90 10 00 15 	mov  %l5, %o0
40004530:	40 00 07 b5 	call  40006404 <__mcmp>
40004534:	d2 07 bf e8 	ld  [ %fp + -24 ], %o1
40004538:	80 a2 20 00 	cmp  %o0, 0
4000453c:	34 bf fe f9 	bg,a   40004120 <_dtoa_r+0xe5c>
40004540:	f8 07 bf f0 	ld  [ %fp + -16 ], %i4
40004544:	10 bf fd 26 	b  400039dc <_dtoa_r+0x718>
40004548:	a8 38 00 1c 	xnor  %g0, %i4, %l4
4000454c:	40 00 0a 5b 	call  40006eb8 <_pow5mult>
40004550:	90 10 00 18 	mov  %i0, %o0
40004554:	10 bf fd 68 	b  40003af4 <_dtoa_r+0x830>
40004558:	aa 10 00 08 	mov  %o0, %l5
4000455c:	c6 07 bf cc 	ld  [ %fp + -52 ], %g3
40004560:	80 a0 e0 00 	cmp  %g3, 0
40004564:	22 80 00 3b 	be,a   40004650 <_dtoa_r+0x138c>
40004568:	c2 07 bf fc 	ld  [ %fp + -4 ], %g1
4000456c:	82 00 64 33 	add  %g1, 0x433, %g1
40004570:	e6 07 bf dc 	ld  [ %fp + -36 ], %l3
40004574:	10 bf fe 19 	b  40003dd8 <_dtoa_r+0xb14>
40004578:	f2 27 bf e0 	st  %i1, [ %fp + -32 ]
4000457c:	80 a0 a0 00 	cmp  %g2, 0
40004580:	04 80 00 0f 	ble  400045bc <_dtoa_r+0x12f8>
40004584:	f2 07 bf e4 	ld  [ %fp + -28 ], %i1
40004588:	92 10 00 15 	mov  %l5, %o1
4000458c:	94 10 20 01 	mov  1, %o2
40004590:	40 00 09 32 	call  40006a58 <_lshift>
40004594:	90 10 00 18 	mov  %i0, %o0
40004598:	d2 07 bf e8 	ld  [ %fp + -24 ], %o1
4000459c:	40 00 07 9a 	call  40006404 <__mcmp>
400045a0:	aa 10 00 08 	mov  %o0, %l5
400045a4:	80 a2 20 00 	cmp  %o0, 0
400045a8:	04 80 00 41 	ble  400046ac <_dtoa_r+0x13e8>
400045ac:	01 00 00 00 	nop 
400045b0:	80 a6 60 39 	cmp  %i1, 0x39
400045b4:	02 80 00 30 	be  40004674 <_dtoa_r+0x13b0>
400045b8:	b2 06 60 01 	inc  %i1
400045bc:	f2 2c c0 00 	stb  %i1, [ %l3 ]
400045c0:	10 bf fd 0a 	b  400039e8 <_dtoa_r+0x724>
400045c4:	a6 04 e0 01 	inc  %l3
400045c8:	12 80 00 09 	bne  400045ec <_dtoa_r+0x1328>
400045cc:	c2 4c ff ff 	ldsb  [ %l3 + -1 ], %g1
400045d0:	80 8e 60 01 	btst  1, %i1
400045d4:	12 bf ff b8 	bne  400044b4 <_dtoa_r+0x11f0>
400045d8:	01 00 00 00 	nop 
400045dc:	10 80 00 05 	b  400045f0 <_dtoa_r+0x132c>
400045e0:	80 a0 60 30 	cmp  %g1, 0x30
400045e4:	a6 10 00 01 	mov  %g1, %l3
400045e8:	c2 4c ff ff 	ldsb  [ %l3 + -1 ], %g1
400045ec:	80 a0 60 30 	cmp  %g1, 0x30
400045f0:	02 bf ff fd 	be  400045e4 <_dtoa_r+0x1320>
400045f4:	82 04 ff ff 	add  %l3, -1, %g1
400045f8:	10 bf fc fd 	b  400039ec <_dtoa_r+0x728>
400045fc:	d2 07 bf e8 	ld  [ %fp + -24 ], %o1
40004600:	84 00 a0 01 	inc  %g2
40004604:	10 bf fc f9 	b  400039e8 <_dtoa_r+0x724>
40004608:	c4 28 40 00 	stb  %g2, [ %g1 ]
4000460c:	d2 07 20 04 	ld  [ %i4 + 4 ], %o1
40004610:	40 00 08 31 	call  400066d4 <_Balloc>
40004614:	90 10 00 18 	mov  %i0, %o0
40004618:	c2 07 bf f0 	ld  [ %fp + -16 ], %g1
4000461c:	d4 00 60 10 	ld  [ %g1 + 0x10 ], %o2
40004620:	92 00 60 0c 	add  %g1, 0xc, %o1
40004624:	a6 10 00 08 	mov  %o0, %l3
40004628:	94 02 a0 02 	add  %o2, 2, %o2
4000462c:	90 02 20 0c 	add  %o0, 0xc, %o0
40004630:	40 00 06 3a 	call  40005f18 <memcpy>
40004634:	95 2a a0 02 	sll  %o2, 2, %o2
40004638:	90 10 00 18 	mov  %i0, %o0
4000463c:	92 10 00 13 	mov  %l3, %o1
40004640:	40 00 09 06 	call  40006a58 <_lshift>
40004644:	94 10 20 01 	mov  1, %o2
40004648:	10 bf fd 6e 	b  40003c00 <_dtoa_r+0x93c>
4000464c:	b8 10 00 08 	mov  %o0, %i4
40004650:	84 10 20 36 	mov  0x36, %g2
40004654:	e6 07 bf dc 	ld  [ %fp + -36 ], %l3
40004658:	82 20 80 01 	sub  %g2, %g1, %g1
4000465c:	10 bf fd df 	b  40003dd8 <_dtoa_r+0xb14>
40004660:	f2 27 bf e0 	st  %i1, [ %fp + -32 ]
40004664:	10 bf ff 88 	b  40004484 <_dtoa_r+0x11c0>
40004668:	f2 07 bf e4 	ld  [ %fp + -28 ], %i1
4000466c:	10 bf ff d1 	b  400045b0 <_dtoa_r+0x12ec>
40004670:	f2 07 bf e4 	ld  [ %fp + -28 ], %i1
40004674:	82 10 20 39 	mov  0x39, %g1
40004678:	c2 2c c0 00 	stb  %g1, [ %l3 ]
4000467c:	10 bf ff 8d 	b  400044b0 <_dtoa_r+0x11ec>
40004680:	a6 04 e0 01 	inc  %l3
40004684:	80 a6 60 39 	cmp  %i1, 0x39
40004688:	02 bf ff fb 	be  40004674 <_dtoa_r+0x13b0>
4000468c:	c4 07 bf f0 	ld  [ %fp + -16 ], %g2
40004690:	83 38 a0 1f 	sra  %g2, 0x1f, %g1
40004694:	82 20 40 02 	sub  %g1, %g2, %g1
40004698:	83 30 60 1f 	srl  %g1, 0x1f, %g1
4000469c:	b2 06 40 01 	add  %i1, %g1, %i1
400046a0:	f2 2c c0 00 	stb  %i1, [ %l3 ]
400046a4:	10 bf fc d1 	b  400039e8 <_dtoa_r+0x724>
400046a8:	a6 04 e0 01 	inc  %l3
400046ac:	32 bf ff c5 	bne,a   400045c0 <_dtoa_r+0x12fc>
400046b0:	f2 2c c0 00 	stb  %i1, [ %l3 ]
400046b4:	80 8e 60 01 	btst  1, %i1
400046b8:	12 bf ff bf 	bne  400045b4 <_dtoa_r+0x12f0>
400046bc:	80 a6 60 39 	cmp  %i1, 0x39
400046c0:	f2 2c c0 00 	stb  %i1, [ %l3 ]
400046c4:	10 bf fc c9 	b  400039e8 <_dtoa_r+0x724>
400046c8:	a6 04 e0 01 	inc  %l3
400046cc:	80 a5 e0 0f 	cmp  %l7, 0xf
400046d0:	92 10 20 00 	clr  %o1
400046d4:	82 40 20 00 	addx  %g0, 0, %g1
400046d8:	10 bf fc 66 	b  40003870 <_dtoa_r+0x5ac>
400046dc:	a6 08 40 13 	and  %g1, %l3, %l3
400046e0:	02 bf fd 23 	be  40003b6c <_dtoa_r+0x8a8>
400046e4:	80 a6 60 00 	cmp  %i1, 0
400046e8:	10 bf fd 1b 	b  40003b54 <_dtoa_r+0x890>
400046ec:	84 00 60 1c 	add  %g1, 0x1c, %g2

400046f0 <fflush>:
400046f0:	9d e3 bf a0 	save  %sp, -96, %sp
400046f4:	80 a6 20 00 	cmp  %i0, 0
400046f8:	02 80 00 50 	be  40004838 <fflush+0x148>
400046fc:	03 10 00 2e 	sethi  %hi(0x4000b800), %g1
40004700:	c2 16 20 0c 	lduh  [ %i0 + 0xc ], %g1
40004704:	80 88 62 00 	btst  0x200, %g1
40004708:	02 80 00 44 	be  40004818 <fflush+0x128>
4000470c:	01 00 00 00 	nop 
40004710:	03 10 00 2f 	sethi  %hi(0x4000bc00), %g1
40004714:	d0 00 60 d8 	ld  [ %g1 + 0xd8 ], %o0	! 4000bcd8 <_impure_ptr>
40004718:	80 a2 20 00 	cmp  %o0, 0
4000471c:	22 80 00 07 	be,a   40004738 <fflush+0x48>
40004720:	c6 16 20 0c 	lduh  [ %i0 + 0xc ], %g3
40004724:	c2 02 20 38 	ld  [ %o0 + 0x38 ], %g1
40004728:	80 a0 60 00 	cmp  %g1, 0
4000472c:	02 80 00 3f 	be  40004828 <fflush+0x138>
40004730:	01 00 00 00 	nop 
40004734:	c6 16 20 0c 	lduh  [ %i0 + 0xc ], %g3
40004738:	83 28 e0 10 	sll  %g3, 0x10, %g1
4000473c:	85 38 60 10 	sra  %g1, 0x10, %g2
40004740:	80 88 a0 08 	btst  8, %g2
40004744:	22 80 00 28 	be,a   400047e4 <fflush+0xf4>
40004748:	83 30 60 10 	srl  %g1, 0x10, %g1
4000474c:	e2 06 20 10 	ld  [ %i0 + 0x10 ], %l1
40004750:	80 a4 60 00 	cmp  %l1, 0
40004754:	02 80 00 23 	be  400047e0 <fflush+0xf0>
40004758:	80 88 a0 03 	btst  3, %g2
4000475c:	e0 06 00 00 	ld  [ %i0 ], %l0
40004760:	e2 26 00 00 	st  %l1, [ %i0 ]
40004764:	a0 24 00 11 	sub  %l0, %l1, %l0
40004768:	12 80 00 03 	bne  40004774 <fflush+0x84>
4000476c:	82 10 20 00 	clr  %g1
40004770:	c2 06 20 14 	ld  [ %i0 + 0x14 ], %g1
40004774:	80 a4 20 00 	cmp  %l0, 0
40004778:	14 80 00 08 	bg  40004798 <fflush+0xa8>
4000477c:	c2 26 20 08 	st  %g1, [ %i0 + 8 ]
40004780:	10 80 00 1f 	b  400047fc <fflush+0x10c>
40004784:	80 88 e2 00 	btst  0x200, %g3
40004788:	a0 24 00 08 	sub  %l0, %o0, %l0
4000478c:	80 a4 20 00 	cmp  %l0, 0
40004790:	24 80 00 1a 	ble,a   400047f8 <fflush+0x108>
40004794:	c6 16 20 0c 	lduh  [ %i0 + 0xc ], %g3
40004798:	c2 06 20 24 	ld  [ %i0 + 0x24 ], %g1
4000479c:	d0 06 20 1c 	ld  [ %i0 + 0x1c ], %o0
400047a0:	92 10 00 11 	mov  %l1, %o1
400047a4:	9f c0 40 00 	call  %g1
400047a8:	94 10 00 10 	mov  %l0, %o2
400047ac:	80 a2 20 00 	cmp  %o0, 0
400047b0:	14 bf ff f6 	bg  40004788 <fflush+0x98>
400047b4:	a2 04 40 08 	add  %l1, %o0, %l1
400047b8:	c4 16 20 0c 	lduh  [ %i0 + 0xc ], %g2
400047bc:	84 10 a0 40 	or  %g2, 0x40, %g2
400047c0:	82 10 3f ff 	mov  -1, %g1
400047c4:	80 88 a2 00 	btst  0x200, %g2
400047c8:	12 80 00 0a 	bne  400047f0 <fflush+0x100>
400047cc:	c4 36 20 0c 	sth  %g2, [ %i0 + 0xc ]
400047d0:	40 00 15 52 	call  40009d18 <___st_pthread_mutex_unlock>
400047d4:	90 06 20 58 	add  %i0, 0x58, %o0
400047d8:	10 80 00 06 	b  400047f0 <fflush+0x100>
400047dc:	82 10 3f ff 	mov  -1, %g1
400047e0:	83 30 60 10 	srl  %g1, 0x10, %g1
400047e4:	80 88 62 00 	btst  0x200, %g1
400047e8:	02 80 00 07 	be  40004804 <fflush+0x114>
400047ec:	82 10 20 00 	clr  %g1
400047f0:	81 c7 e0 08 	ret 
400047f4:	91 e8 00 01 	restore  %g0, %g1, %o0
400047f8:	80 88 e2 00 	btst  0x200, %g3
400047fc:	12 bf ff fd 	bne  400047f0 <fflush+0x100>
40004800:	82 10 20 00 	clr  %g1
40004804:	40 00 15 45 	call  40009d18 <___st_pthread_mutex_unlock>
40004808:	90 06 20 58 	add  %i0, 0x58, %o0
4000480c:	82 10 20 00 	clr  %g1
40004810:	81 c7 e0 08 	ret 
40004814:	91 e8 00 01 	restore  %g0, %g1, %o0
40004818:	40 00 15 2a 	call  40009cc0 <___st_pthread_mutex_lock>
4000481c:	90 06 20 58 	add  %i0, 0x58, %o0
40004820:	10 bf ff bd 	b  40004714 <fflush+0x24>
40004824:	03 10 00 2f 	sethi  %hi(0x4000bc00), %g1
40004828:	40 00 00 67 	call  400049c4 <__sinit>
4000482c:	01 00 00 00 	nop 
40004830:	10 bf ff c2 	b  40004738 <fflush+0x48>
40004834:	c6 16 20 0c 	lduh  [ %i0 + 0xc ], %g3
40004838:	f0 00 60 30 	ld  [ %g1 + 0x30 ], %i0
4000483c:	03 10 00 11 	sethi  %hi(0x40004400), %g1
40004840:	40 00 02 fa 	call  40005428 <_fwalk>
40004844:	93 e8 62 f0 	restore  %g1, 0x2f0, %o1
40004848:	01 00 00 00 	nop 

4000484c <_cleanup_r>:
4000484c:	13 10 00 1e 	sethi  %hi(0x40007800), %o1
40004850:	92 12 63 60 	or  %o1, 0x360, %o1	! 40007b60 <fclose>
40004854:	82 13 c0 00 	mov  %o7, %g1
40004858:	40 00 02 f4 	call  40005428 <_fwalk>
4000485c:	9e 10 40 00 	mov  %g1, %o7
40004860:	01 00 00 00 	nop 

40004864 <_cleanup>:
40004864:	03 10 00 2e 	sethi  %hi(0x4000b800), %g1
40004868:	d0 00 60 30 	ld  [ %g1 + 0x30 ], %o0	! 4000b830 <_global_impure_ptr>
4000486c:	82 13 c0 00 	mov  %o7, %g1
40004870:	7f ff ff f7 	call  4000484c <_cleanup_r>
40004874:	9e 10 40 00 	mov  %g1, %o7
40004878:	01 00 00 00 	nop 

4000487c <__fp_unlock>:
4000487c:	9d e3 bf a0 	save  %sp, -96, %sp
40004880:	c2 16 20 0c 	lduh  [ %i0 + 0xc ], %g1
40004884:	80 88 62 00 	btst  0x200, %g1
40004888:	12 80 00 04 	bne  40004898 <__fp_unlock+0x1c>
4000488c:	01 00 00 00 	nop 
40004890:	40 00 15 22 	call  40009d18 <___st_pthread_mutex_unlock>
40004894:	90 06 20 58 	add  %i0, 0x58, %o0
40004898:	81 c7 e0 08 	ret 
4000489c:	91 e8 20 00 	restore  %g0, 0, %o0

400048a0 <__sfp_lock_release>:
400048a0:	11 10 00 2f 	sethi  %hi(0x4000bc00), %o0
400048a4:	90 12 20 60 	or  %o0, 0x60, %o0	! 4000bc60 <__sfp_lock>
400048a8:	82 13 c0 00 	mov  %o7, %g1
400048ac:	40 00 15 1b 	call  40009d18 <___st_pthread_mutex_unlock>
400048b0:	9e 10 40 00 	mov  %g1, %o7
400048b4:	01 00 00 00 	nop 

400048b8 <__fp_unlock_all>:
400048b8:	9d e3 bf a0 	save  %sp, -96, %sp
400048bc:	03 10 00 2f 	sethi  %hi(0x4000bc00), %g1
400048c0:	d0 00 60 d8 	ld  [ %g1 + 0xd8 ], %o0	! 4000bcd8 <_impure_ptr>
400048c4:	13 10 00 12 	sethi  %hi(0x40004800), %o1
400048c8:	40 00 02 d8 	call  40005428 <_fwalk>
400048cc:	92 12 60 7c 	or  %o1, 0x7c, %o1	! 4000487c <__fp_unlock>
400048d0:	7f ff ff f4 	call  400048a0 <__sfp_lock_release>
400048d4:	81 e8 00 00 	restore 
400048d8:	01 00 00 00 	nop 

400048dc <__fp_lock>:
400048dc:	9d e3 bf a0 	save  %sp, -96, %sp
400048e0:	c2 16 20 0c 	lduh  [ %i0 + 0xc ], %g1
400048e4:	80 88 62 00 	btst  0x200, %g1
400048e8:	12 80 00 04 	bne  400048f8 <__fp_lock+0x1c>
400048ec:	01 00 00 00 	nop 
400048f0:	40 00 14 f4 	call  40009cc0 <___st_pthread_mutex_lock>
400048f4:	90 06 20 58 	add  %i0, 0x58, %o0
400048f8:	81 c7 e0 08 	ret 
400048fc:	91 e8 20 00 	restore  %g0, 0, %o0

40004900 <__sfp_lock_acquire>:
40004900:	11 10 00 2f 	sethi  %hi(0x4000bc00), %o0
40004904:	90 12 20 60 	or  %o0, 0x60, %o0	! 4000bc60 <__sfp_lock>
40004908:	82 13 c0 00 	mov  %o7, %g1
4000490c:	40 00 14 ed 	call  40009cc0 <___st_pthread_mutex_lock>
40004910:	9e 10 40 00 	mov  %g1, %o7
40004914:	01 00 00 00 	nop 

40004918 <__fp_lock_all>:
40004918:	9d e3 bf a0 	save  %sp, -96, %sp
4000491c:	7f ff ff f9 	call  40004900 <__sfp_lock_acquire>
40004920:	33 10 00 12 	sethi  %hi(0x40004800), %i1
40004924:	03 10 00 2f 	sethi  %hi(0x4000bc00), %g1
40004928:	f0 00 60 d8 	ld  [ %g1 + 0xd8 ], %i0	! 4000bcd8 <_impure_ptr>
4000492c:	40 00 02 bf 	call  40005428 <_fwalk>
40004930:	93 ee 60 dc 	restore  %i1, 0xdc, %o1
40004934:	01 00 00 00 	nop 

40004938 <std>:
40004938:	9d e3 bf 90 	save  %sp, -112, %sp
4000493c:	03 10 00 1d 	sethi  %hi(0x40007400), %g1
40004940:	82 10 62 fc 	or  %g1, 0x2fc, %g1	! 400076fc <__sread>
40004944:	c2 26 20 20 	st  %g1, [ %i0 + 0x20 ]
40004948:	03 10 00 1d 	sethi  %hi(0x40007400), %g1
4000494c:	82 10 62 a4 	or  %g1, 0x2a4, %g1	! 400076a4 <__swrite>
40004950:	c2 26 20 24 	st  %g1, [ %i0 + 0x24 ]
40004954:	03 10 00 1d 	sethi  %hi(0x40007400), %g1
40004958:	82 10 62 4c 	or  %g1, 0x24c, %g1	! 4000764c <__sseek>
4000495c:	f0 26 20 1c 	st  %i0, [ %i0 + 0x1c ]
40004960:	c2 26 20 28 	st  %g1, [ %i0 + 0x28 ]
40004964:	f2 36 20 0c 	sth  %i1, [ %i0 + 0xc ]
40004968:	f4 36 20 0e 	sth  %i2, [ %i0 + 0xe ]
4000496c:	c0 26 00 00 	clr  [ %i0 ]
40004970:	c0 26 20 04 	clr  [ %i0 + 4 ]
40004974:	c0 26 20 08 	clr  [ %i0 + 8 ]
40004978:	c0 26 20 10 	clr  [ %i0 + 0x10 ]
4000497c:	c0 26 20 14 	clr  [ %i0 + 0x14 ]
40004980:	c0 26 20 18 	clr  [ %i0 + 0x18 ]
40004984:	03 10 00 1d 	sethi  %hi(0x40007400), %g1
40004988:	82 10 62 30 	or  %g1, 0x230, %g1	! 40007630 <__sclose>
4000498c:	c2 26 20 2c 	st  %g1, [ %i0 + 0x2c ]
40004990:	a0 07 bf f4 	add  %fp, -12, %l0
40004994:	40 00 14 ec 	call  40009d44 <___st_pthread_mutexattr_init>
40004998:	90 10 00 10 	mov  %l0, %o0
4000499c:	90 10 00 10 	mov  %l0, %o0
400049a0:	40 00 14 ff 	call  40009d9c <___st_pthread_mutexattr_settype>
400049a4:	92 10 20 01 	mov  1, %o1
400049a8:	92 10 00 10 	mov  %l0, %o1
400049ac:	40 00 14 ad 	call  40009c60 <___st_pthread_mutex_init>
400049b0:	90 06 20 58 	add  %i0, 0x58, %o0
400049b4:	40 00 14 ef 	call  40009d70 <___st_pthread_mutexattr_destroy>
400049b8:	90 10 00 10 	mov  %l0, %o0
400049bc:	81 c7 e0 08 	ret 
400049c0:	81 e8 00 00 	restore 

400049c4 <__sinit>:
400049c4:	9d e3 bf a0 	save  %sp, -96, %sp
400049c8:	03 10 00 12 	sethi  %hi(0x40004800), %g1
400049cc:	82 10 60 4c 	or  %g1, 0x4c, %g1	! 4000484c <_cleanup_r>
400049d0:	c2 26 20 3c 	st  %g1, [ %i0 + 0x3c ]
400049d4:	82 10 20 01 	mov  1, %g1
400049d8:	c2 26 20 38 	st  %g1, [ %i0 + 0x38 ]
400049dc:	82 10 20 03 	mov  3, %g1
400049e0:	d0 06 20 04 	ld  [ %i0 + 4 ], %o0
400049e4:	c2 26 22 e4 	st  %g1, [ %i0 + 0x2e4 ]
400049e8:	c0 26 22 e0 	clr  [ %i0 + 0x2e0 ]
400049ec:	82 06 22 ec 	add  %i0, 0x2ec, %g1
400049f0:	c2 26 22 e8 	st  %g1, [ %i0 + 0x2e8 ]
400049f4:	96 10 00 18 	mov  %i0, %o3
400049f8:	92 10 20 06 	mov  6, %o1
400049fc:	7f ff ff cf 	call  40004938 <std>
40004a00:	94 10 20 00 	clr  %o2
40004a04:	d0 06 20 08 	ld  [ %i0 + 8 ], %o0
40004a08:	96 10 00 18 	mov  %i0, %o3
40004a0c:	b6 10 00 18 	mov  %i0, %i3
40004a10:	92 10 20 0a 	mov  0xa, %o1
40004a14:	7f ff ff c9 	call  40004938 <std>
40004a18:	94 10 20 01 	mov  1, %o2
40004a1c:	f0 06 20 0c 	ld  [ %i0 + 0xc ], %i0
40004a20:	b2 10 20 0a 	mov  0xa, %i1
40004a24:	7f ff ff c5 	call  40004938 <std>
40004a28:	95 e8 20 02 	restore  %g0, 2, %o2
40004a2c:	01 00 00 00 	nop 

40004a30 <__sfmoreglue>:
40004a30:	9d e3 bf a0 	save  %sp, -96, %sp
40004a34:	83 2e 60 02 	sll  %i1, 2, %g1
40004a38:	a1 2e 60 04 	sll  %i1, 4, %l0
40004a3c:	a0 24 00 01 	sub  %l0, %g1, %l0
40004a40:	83 2c 20 04 	sll  %l0, 4, %g1
40004a44:	90 10 00 18 	mov  %i0, %o0
40004a48:	a0 04 00 01 	add  %l0, %g1, %l0
40004a4c:	40 00 03 41 	call  40005750 <_malloc_r>
40004a50:	92 04 20 0c 	add  %l0, 0xc, %o1
40004a54:	b0 92 20 00 	orcc  %o0, 0, %i0
40004a58:	02 80 00 08 	be  40004a78 <__sfmoreglue+0x48>
40004a5c:	90 06 20 0c 	add  %i0, 0xc, %o0
40004a60:	f2 26 20 04 	st  %i1, [ %i0 + 4 ]
40004a64:	c0 26 00 00 	clr  [ %i0 ]
40004a68:	d0 26 20 08 	st  %o0, [ %i0 + 8 ]
40004a6c:	94 10 00 10 	mov  %l0, %o2
40004a70:	40 00 05 bd 	call  40006164 <memset>
40004a74:	92 10 20 00 	clr  %o1
40004a78:	81 c7 e0 08 	ret 
40004a7c:	81 e8 00 00 	restore 

40004a80 <__sfp>:
40004a80:	9d e3 bf 90 	save  %sp, -112, %sp
40004a84:	7f ff ff 9f 	call  40004900 <__sfp_lock_acquire>
40004a88:	01 00 00 00 	nop 
40004a8c:	03 10 00 2e 	sethi  %hi(0x4000b800), %g1
40004a90:	e2 00 60 30 	ld  [ %g1 + 0x30 ], %l1	! 4000b830 <_global_impure_ptr>
40004a94:	c2 04 60 38 	ld  [ %l1 + 0x38 ], %g1
40004a98:	80 a0 60 00 	cmp  %g1, 0
40004a9c:	02 80 00 32 	be  40004b64 <__sfp+0xe4>
40004aa0:	01 00 00 00 	nop 
40004aa4:	a2 04 62 e0 	add  %l1, 0x2e0, %l1
40004aa8:	c2 04 60 04 	ld  [ %l1 + 4 ], %g1
40004aac:	82 80 7f ff 	addcc  %g1, -1, %g1
40004ab0:	1c 80 00 06 	bpos  40004ac8 <__sfp+0x48>
40004ab4:	e0 04 60 08 	ld  [ %l1 + 8 ], %l0
40004ab8:	10 80 00 26 	b  40004b50 <__sfp+0xd0>
40004abc:	d0 04 40 00 	ld  [ %l1 ], %o0
40004ac0:	0c 80 00 23 	bneg  40004b4c <__sfp+0xcc>
40004ac4:	a0 04 20 cc 	add  %l0, 0xcc, %l0
40004ac8:	c4 54 20 0c 	ldsh  [ %l0 + 0xc ], %g2
40004acc:	80 a0 a0 00 	cmp  %g2, 0
40004ad0:	12 bf ff fc 	bne  40004ac0 <__sfp+0x40>
40004ad4:	82 80 7f ff 	addcc  %g1, -1, %g1
40004ad8:	82 10 3f ff 	mov  -1, %g1
40004adc:	c2 34 20 0e 	sth  %g1, [ %l0 + 0xe ]
40004ae0:	82 10 20 01 	mov  1, %g1
40004ae4:	c2 34 20 0c 	sth  %g1, [ %l0 + 0xc ]
40004ae8:	a2 07 bf f4 	add  %fp, -12, %l1
40004aec:	40 00 14 96 	call  40009d44 <___st_pthread_mutexattr_init>
40004af0:	90 10 00 11 	mov  %l1, %o0
40004af4:	92 10 20 01 	mov  1, %o1
40004af8:	40 00 14 a9 	call  40009d9c <___st_pthread_mutexattr_settype>
40004afc:	90 10 00 11 	mov  %l1, %o0
40004b00:	92 10 00 11 	mov  %l1, %o1
40004b04:	40 00 14 57 	call  40009c60 <___st_pthread_mutex_init>
40004b08:	90 04 20 58 	add  %l0, 0x58, %o0
40004b0c:	40 00 14 99 	call  40009d70 <___st_pthread_mutexattr_destroy>
40004b10:	90 10 00 11 	mov  %l1, %o0
40004b14:	7f ff ff 63 	call  400048a0 <__sfp_lock_release>
40004b18:	01 00 00 00 	nop 
40004b1c:	c0 24 00 00 	clr  [ %l0 ]
40004b20:	c0 24 20 08 	clr  [ %l0 + 8 ]
40004b24:	c0 24 20 04 	clr  [ %l0 + 4 ]
40004b28:	c0 24 20 10 	clr  [ %l0 + 0x10 ]
40004b2c:	c0 24 20 14 	clr  [ %l0 + 0x14 ]
40004b30:	c0 24 20 18 	clr  [ %l0 + 0x18 ]
40004b34:	c0 24 20 30 	clr  [ %l0 + 0x30 ]
40004b38:	c0 24 20 34 	clr  [ %l0 + 0x34 ]
40004b3c:	c0 24 20 44 	clr  [ %l0 + 0x44 ]
40004b40:	c0 24 20 48 	clr  [ %l0 + 0x48 ]
40004b44:	81 c7 e0 08 	ret 
40004b48:	91 e8 00 10 	restore  %g0, %l0, %o0
40004b4c:	d0 04 40 00 	ld  [ %l1 ], %o0
40004b50:	80 a2 20 00 	cmp  %o0, 0
40004b54:	22 80 00 08 	be,a   40004b74 <__sfp+0xf4>
40004b58:	90 10 00 18 	mov  %i0, %o0
40004b5c:	10 bf ff d3 	b  40004aa8 <__sfp+0x28>
40004b60:	a2 10 00 08 	mov  %o0, %l1
40004b64:	7f ff ff 98 	call  400049c4 <__sinit>
40004b68:	90 10 00 11 	mov  %l1, %o0
40004b6c:	10 bf ff cf 	b  40004aa8 <__sfp+0x28>
40004b70:	a2 04 62 e0 	add  %l1, 0x2e0, %l1
40004b74:	7f ff ff af 	call  40004a30 <__sfmoreglue>
40004b78:	92 10 20 04 	mov  4, %o1
40004b7c:	80 a2 20 00 	cmp  %o0, 0
40004b80:	12 bf ff f7 	bne  40004b5c <__sfp+0xdc>
40004b84:	d0 24 40 00 	st  %o0, [ %l1 ]
40004b88:	7f ff ff 46 	call  400048a0 <__sfp_lock_release>
40004b8c:	a0 10 20 00 	clr  %l0
40004b90:	82 10 20 0c 	mov  0xc, %g1
40004b94:	10 bf ff ec 	b  40004b44 <__sfp+0xc4>
40004b98:	c2 26 00 00 	st  %g1, [ %i0 ]

40004b9c <_malloc_trim_r>:
40004b9c:	9d e3 bf a0 	save  %sp, -96, %sp
40004ba0:	40 00 05 ae 	call  40006258 <__malloc_lock>
40004ba4:	90 10 00 18 	mov  %i0, %o0
40004ba8:	21 10 00 30 	sethi  %hi(0x4000c000), %l0
40004bac:	a0 14 22 48 	or  %l0, 0x248, %l0	! 4000c248 <__malloc_av_>
40004bb0:	c2 04 20 08 	ld  [ %l0 + 8 ], %g1
40004bb4:	e2 00 60 04 	ld  [ %g1 + 4 ], %l1
40004bb8:	a2 0c 7f fc 	and  %l1, -4, %l1
40004bbc:	82 04 6f ef 	add  %l1, 0xfef, %g1
40004bc0:	b2 20 40 19 	sub  %g1, %i1, %i1
40004bc4:	b2 0e 70 00 	and  %i1, -4096, %i1
40004bc8:	b2 06 70 00 	add  %i1, -4096, %i1
40004bcc:	80 a6 6f ff 	cmp  %i1, 0xfff
40004bd0:	04 80 00 09 	ble  40004bf4 <_malloc_trim_r+0x58>
40004bd4:	90 10 00 18 	mov  %i0, %o0
40004bd8:	40 00 0a 6f 	call  40007594 <_sbrk_r>
40004bdc:	92 10 20 00 	clr  %o1
40004be0:	c2 04 20 08 	ld  [ %l0 + 8 ], %g1
40004be4:	82 00 40 11 	add  %g1, %l1, %g1
40004be8:	80 a2 00 01 	cmp  %o0, %g1
40004bec:	02 80 00 07 	be  40004c08 <_malloc_trim_r+0x6c>
40004bf0:	90 10 00 18 	mov  %i0, %o0
40004bf4:	90 10 00 18 	mov  %i0, %o0
40004bf8:	40 00 05 92 	call  40006240 <__malloc_unlock>
40004bfc:	b0 10 20 00 	clr  %i0
40004c00:	81 c7 e0 08 	ret 
40004c04:	81 e8 00 00 	restore 
40004c08:	40 00 0a 63 	call  40007594 <_sbrk_r>
40004c0c:	92 20 00 19 	neg  %i1, %o1
40004c10:	80 a2 3f ff 	cmp  %o0, -1
40004c14:	02 80 00 0e 	be  40004c4c <_malloc_trim_r+0xb0>
40004c18:	a2 24 40 19 	sub  %l1, %i1, %l1
40004c1c:	c4 04 20 08 	ld  [ %l0 + 8 ], %g2
40004c20:	a2 14 60 01 	or  %l1, 1, %l1
40004c24:	03 10 00 31 	sethi  %hi(0x4000c400), %g1
40004c28:	e2 20 a0 04 	st  %l1, [ %g2 + 4 ]
40004c2c:	90 10 00 18 	mov  %i0, %o0
40004c30:	b0 10 20 01 	mov  1, %i0
40004c34:	c4 00 63 d4 	ld  [ %g1 + 0x3d4 ], %g2
40004c38:	b2 20 80 19 	sub  %g2, %i1, %i1
40004c3c:	40 00 05 81 	call  40006240 <__malloc_unlock>
40004c40:	f2 20 63 d4 	st  %i1, [ %g1 + 0x3d4 ]
40004c44:	81 c7 e0 08 	ret 
40004c48:	81 e8 00 00 	restore 
40004c4c:	90 10 00 18 	mov  %i0, %o0
40004c50:	40 00 0a 51 	call  40007594 <_sbrk_r>
40004c54:	92 10 20 00 	clr  %o1
40004c58:	c2 04 20 08 	ld  [ %l0 + 8 ], %g1
40004c5c:	84 22 00 01 	sub  %o0, %g1, %g2
40004c60:	80 a0 a0 0f 	cmp  %g2, 0xf
40004c64:	04 bf ff e4 	ble  40004bf4 <_malloc_trim_r+0x58>
40004c68:	07 10 00 31 	sethi  %hi(0x4000c400), %g3
40004c6c:	c6 00 e2 54 	ld  [ %g3 + 0x254 ], %g3	! 4000c654 <__malloc_sbrk_base>
40004c70:	90 22 00 03 	sub  %o0, %g3, %o0
40004c74:	07 10 00 31 	sethi  %hi(0x4000c400), %g3
40004c78:	84 10 a0 01 	or  %g2, 1, %g2
40004c7c:	d0 20 e3 d4 	st  %o0, [ %g3 + 0x3d4 ]
40004c80:	10 bf ff dd 	b  40004bf4 <_malloc_trim_r+0x58>
40004c84:	c4 20 60 04 	st  %g2, [ %g1 + 4 ]

40004c88 <_free_r>:
40004c88:	9d e3 bf a0 	save  %sp, -96, %sp
40004c8c:	80 a6 60 00 	cmp  %i1, 0
40004c90:	02 80 00 50 	be  40004dd0 <_free_r+0x148>
40004c94:	01 00 00 00 	nop 
40004c98:	40 00 05 70 	call  40006258 <__malloc_lock>
40004c9c:	90 10 00 18 	mov  %i0, %o0
40004ca0:	84 06 7f f8 	add  %i1, -8, %g2
40004ca4:	d8 00 a0 04 	ld  [ %g2 + 4 ], %o4
40004ca8:	82 0b 3f fe 	and  %o4, -2, %g1
40004cac:	09 10 00 30 	sethi  %hi(0x4000c000), %g4
40004cb0:	86 00 80 01 	add  %g2, %g1, %g3
40004cb4:	88 11 22 48 	or  %g4, 0x248, %g4
40004cb8:	da 00 e0 04 	ld  [ %g3 + 4 ], %o5
40004cbc:	d6 01 20 08 	ld  [ %g4 + 8 ], %o3
40004cc0:	80 a2 c0 03 	cmp  %o3, %g3
40004cc4:	02 80 00 63 	be  40004e50 <_free_r+0x1c8>
40004cc8:	9a 0b 7f fc 	and  %o5, -4, %o5
40004ccc:	da 20 e0 04 	st  %o5, [ %g3 + 4 ]
40004cd0:	80 8b 20 01 	btst  1, %o4
40004cd4:	12 80 00 0e 	bne  40004d0c <_free_r+0x84>
40004cd8:	98 10 20 00 	clr  %o4
40004cdc:	d8 06 7f f8 	ld  [ %i1 + -8 ], %o4
40004ce0:	84 20 80 0c 	sub  %g2, %o4, %g2
40004ce4:	82 00 40 0c 	add  %g1, %o4, %g1
40004ce8:	d6 00 a0 08 	ld  [ %g2 + 8 ], %o3
40004cec:	98 01 20 08 	add  %g4, 8, %o4
40004cf0:	80 a2 c0 0c 	cmp  %o3, %o4
40004cf4:	02 80 00 06 	be  40004d0c <_free_r+0x84>
40004cf8:	98 10 20 01 	mov  1, %o4
40004cfc:	d4 00 a0 0c 	ld  [ %g2 + 0xc ], %o2
40004d00:	d4 22 e0 0c 	st  %o2, [ %o3 + 0xc ]
40004d04:	98 10 20 00 	clr  %o4
40004d08:	d6 22 a0 08 	st  %o3, [ %o2 + 8 ]
40004d0c:	96 00 c0 0d 	add  %g3, %o5, %o3
40004d10:	d6 02 e0 04 	ld  [ %o3 + 4 ], %o3
40004d14:	80 8a e0 01 	btst  1, %o3
40004d18:	32 80 00 0a 	bne,a   40004d40 <_free_r+0xb8>
40004d1c:	86 10 60 01 	or  %g1, 1, %g3
40004d20:	80 a3 20 00 	cmp  %o4, 0
40004d24:	02 80 00 2d 	be  40004dd8 <_free_r+0x150>
40004d28:	82 00 40 0d 	add  %g1, %o5, %g1
40004d2c:	da 00 e0 08 	ld  [ %g3 + 8 ], %o5
40004d30:	c6 00 e0 0c 	ld  [ %g3 + 0xc ], %g3
40004d34:	c6 23 60 0c 	st  %g3, [ %o5 + 0xc ]
40004d38:	da 20 e0 08 	st  %o5, [ %g3 + 8 ]
40004d3c:	86 10 60 01 	or  %g1, 1, %g3
40004d40:	c2 20 80 01 	st  %g1, [ %g2 + %g1 ]
40004d44:	80 a3 20 00 	cmp  %o4, 0
40004d48:	12 80 00 20 	bne  40004dc8 <_free_r+0x140>
40004d4c:	c6 20 a0 04 	st  %g3, [ %g2 + 4 ]
40004d50:	80 a0 61 ff 	cmp  %g1, 0x1ff
40004d54:	28 80 00 30 	bleu,a   40004e14 <_free_r+0x18c>
40004d58:	83 30 60 03 	srl  %g1, 3, %g1
40004d5c:	87 30 60 09 	srl  %g1, 9, %g3
40004d60:	80 a0 e0 04 	cmp  %g3, 4
40004d64:	18 80 00 52 	bgu  40004eac <_free_r+0x224>
40004d68:	98 00 e0 5b 	add  %g3, 0x5b, %o4
40004d6c:	99 30 60 06 	srl  %g1, 6, %o4
40004d70:	98 03 20 38 	add  %o4, 0x38, %o4
40004d74:	9b 2b 20 03 	sll  %o4, 3, %o5
40004d78:	9a 01 00 0d 	add  %g4, %o5, %o5
40004d7c:	c6 03 60 08 	ld  [ %o5 + 8 ], %g3
40004d80:	80 a0 c0 0d 	cmp  %g3, %o5
40004d84:	32 80 00 08 	bne,a   40004da4 <_free_r+0x11c>
40004d88:	c8 00 e0 04 	ld  [ %g3 + 4 ], %g4
40004d8c:	10 80 00 52 	b  40004ed4 <_free_r+0x24c>
40004d90:	da 01 20 04 	ld  [ %g4 + 4 ], %o5
40004d94:	80 a3 40 03 	cmp  %o5, %g3
40004d98:	22 80 00 08 	be,a   40004db8 <_free_r+0x130>
40004d9c:	c2 00 e0 0c 	ld  [ %g3 + 0xc ], %g1
40004da0:	c8 00 e0 04 	ld  [ %g3 + 4 ], %g4
40004da4:	88 09 3f fc 	and  %g4, -4, %g4
40004da8:	80 a0 40 04 	cmp  %g1, %g4
40004dac:	2a bf ff fa 	bcs,a   40004d94 <_free_r+0x10c>
40004db0:	c6 00 e0 08 	ld  [ %g3 + 8 ], %g3
40004db4:	c2 00 e0 0c 	ld  [ %g3 + 0xc ], %g1
40004db8:	c2 20 a0 0c 	st  %g1, [ %g2 + 0xc ]
40004dbc:	c6 20 a0 08 	st  %g3, [ %g2 + 8 ]
40004dc0:	c4 20 e0 0c 	st  %g2, [ %g3 + 0xc ]
40004dc4:	c4 20 60 08 	st  %g2, [ %g1 + 8 ]
40004dc8:	40 00 05 1e 	call  40006240 <__malloc_unlock>
40004dcc:	81 e8 00 00 	restore 
40004dd0:	81 c7 e0 08 	ret 
40004dd4:	81 e8 00 00 	restore 
40004dd8:	da 00 e0 08 	ld  [ %g3 + 8 ], %o5
40004ddc:	17 10 00 30 	sethi  %hi(0x4000c000), %o3
40004de0:	96 12 e2 50 	or  %o3, 0x250, %o3	! 4000c250 <__malloc_av_+0x8>
40004de4:	80 a3 40 0b 	cmp  %o5, %o3
40004de8:	32 bf ff d3 	bne,a   40004d34 <_free_r+0xac>
40004dec:	c6 00 e0 0c 	ld  [ %g3 + 0xc ], %g3
40004df0:	c4 23 60 0c 	st  %g2, [ %o5 + 0xc ]
40004df4:	c4 23 60 08 	st  %g2, [ %o5 + 8 ]
40004df8:	c2 20 80 01 	st  %g1, [ %g2 + %g1 ]
40004dfc:	da 20 a0 08 	st  %o5, [ %g2 + 8 ]
40004e00:	82 10 60 01 	or  %g1, 1, %g1
40004e04:	da 20 a0 0c 	st  %o5, [ %g2 + 0xc ]
40004e08:	c2 20 a0 04 	st  %g1, [ %g2 + 4 ]
40004e0c:	40 00 05 0d 	call  40006240 <__malloc_unlock>
40004e10:	81 e8 00 00 	restore 
40004e14:	87 28 60 03 	sll  %g1, 3, %g3
40004e18:	86 01 00 03 	add  %g4, %g3, %g3
40004e1c:	da 00 e0 08 	ld  [ %g3 + 8 ], %o5
40004e20:	c6 20 a0 0c 	st  %g3, [ %g2 + 0xc ]
40004e24:	da 20 a0 08 	st  %o5, [ %g2 + 8 ]
40004e28:	d8 01 20 04 	ld  [ %g4 + 4 ], %o4
40004e2c:	c4 23 60 0c 	st  %g2, [ %o5 + 0xc ]
40004e30:	c4 20 e0 08 	st  %g2, [ %g3 + 8 ]
40004e34:	83 38 60 02 	sra  %g1, 2, %g1
40004e38:	84 10 20 01 	mov  1, %g2
40004e3c:	83 28 80 01 	sll  %g2, %g1, %g1
40004e40:	82 13 00 01 	or  %o4, %g1, %g1
40004e44:	c2 21 20 04 	st  %g1, [ %g4 + 4 ]
40004e48:	40 00 04 fe 	call  40006240 <__malloc_unlock>
40004e4c:	81 e8 00 00 	restore 
40004e50:	80 8b 20 01 	btst  1, %o4
40004e54:	12 80 00 09 	bne  40004e78 <_free_r+0x1f0>
40004e58:	82 03 40 01 	add  %o5, %g1, %g1
40004e5c:	d8 06 7f f8 	ld  [ %i1 + -8 ], %o4
40004e60:	84 20 80 0c 	sub  %g2, %o4, %g2
40004e64:	da 00 a0 0c 	ld  [ %g2 + 0xc ], %o5
40004e68:	c6 00 a0 08 	ld  [ %g2 + 8 ], %g3
40004e6c:	82 00 40 0c 	add  %g1, %o4, %g1
40004e70:	c6 23 60 08 	st  %g3, [ %o5 + 8 ]
40004e74:	da 20 e0 0c 	st  %o5, [ %g3 + 0xc ]
40004e78:	c4 21 20 08 	st  %g2, [ %g4 + 8 ]
40004e7c:	86 10 60 01 	or  %g1, 1, %g3
40004e80:	c6 20 a0 04 	st  %g3, [ %g2 + 4 ]
40004e84:	05 10 00 31 	sethi  %hi(0x4000c400), %g2
40004e88:	c4 00 a2 50 	ld  [ %g2 + 0x250 ], %g2	! 4000c650 <__malloc_trim_threshold>
40004e8c:	80 a0 40 02 	cmp  %g1, %g2
40004e90:	0a bf ff ce 	bcs  40004dc8 <_free_r+0x140>
40004e94:	03 10 00 31 	sethi  %hi(0x4000c400), %g1
40004e98:	d2 00 63 c8 	ld  [ %g1 + 0x3c8 ], %o1	! 4000c7c8 <__malloc_top_pad>
40004e9c:	7f ff ff 40 	call  40004b9c <_malloc_trim_r>
40004ea0:	90 10 00 18 	mov  %i0, %o0
40004ea4:	40 00 04 e7 	call  40006240 <__malloc_unlock>
40004ea8:	81 e8 00 00 	restore 
40004eac:	80 a0 e0 14 	cmp  %g3, 0x14
40004eb0:	08 bf ff b2 	bleu  40004d78 <_free_r+0xf0>
40004eb4:	9b 2b 20 03 	sll  %o4, 3, %o5
40004eb8:	80 a0 e0 54 	cmp  %g3, 0x54
40004ebc:	18 80 00 0d 	bgu  40004ef0 <_free_r+0x268>
40004ec0:	80 a0 e1 54 	cmp  %g3, 0x154
40004ec4:	99 30 60 0c 	srl  %g1, 0xc, %o4
40004ec8:	98 03 20 6e 	add  %o4, 0x6e, %o4
40004ecc:	10 bf ff ab 	b  40004d78 <_free_r+0xf0>
40004ed0:	9b 2b 20 03 	sll  %o4, 3, %o5
40004ed4:	99 3b 20 02 	sra  %o4, 2, %o4
40004ed8:	82 10 20 01 	mov  1, %g1
40004edc:	83 28 40 0c 	sll  %g1, %o4, %g1
40004ee0:	82 13 40 01 	or  %o5, %g1, %g1
40004ee4:	c2 21 20 04 	st  %g1, [ %g4 + 4 ]
40004ee8:	10 bf ff b4 	b  40004db8 <_free_r+0x130>
40004eec:	82 10 00 03 	mov  %g3, %g1
40004ef0:	18 80 00 06 	bgu  40004f08 <_free_r+0x280>
40004ef4:	80 a0 e5 54 	cmp  %g3, 0x554
40004ef8:	99 30 60 0f 	srl  %g1, 0xf, %o4
40004efc:	98 03 20 77 	add  %o4, 0x77, %o4
40004f00:	10 bf ff 9e 	b  40004d78 <_free_r+0xf0>
40004f04:	9b 2b 20 03 	sll  %o4, 3, %o5
40004f08:	9a 10 23 f0 	mov  0x3f0, %o5
40004f0c:	18 bf ff 9b 	bgu  40004d78 <_free_r+0xf0>
40004f10:	98 10 20 7e 	mov  0x7e, %o4
40004f14:	99 30 60 12 	srl  %g1, 0x12, %o4
40004f18:	98 03 20 7c 	add  %o4, 0x7c, %o4
40004f1c:	10 bf ff 97 	b  40004d78 <_free_r+0xf0>
40004f20:	9b 2b 20 03 	sll  %o4, 3, %o5

40004f24 <__sfvwrite>:
40004f24:	9d e3 bf a0 	save  %sp, -96, %sp
40004f28:	c2 06 60 08 	ld  [ %i1 + 8 ], %g1
40004f2c:	80 a0 60 00 	cmp  %g1, 0
40004f30:	02 80 00 29 	be  40004fd4 <__sfvwrite+0xb0>
40004f34:	a0 10 00 18 	mov  %i0, %l0
40004f38:	c4 16 20 0c 	lduh  [ %i0 + 0xc ], %g2
40004f3c:	80 88 a0 08 	btst  8, %g2
40004f40:	02 80 00 f3 	be  4000530c <__sfvwrite+0x3e8>
40004f44:	82 10 00 02 	mov  %g2, %g1
40004f48:	c6 06 20 10 	ld  [ %i0 + 0x10 ], %g3
40004f4c:	80 a0 e0 00 	cmp  %g3, 0
40004f50:	02 80 00 f0 	be  40005310 <__sfvwrite+0x3ec>
40004f54:	90 10 00 10 	mov  %l0, %o0
40004f58:	80 88 a0 02 	btst  2, %g2
40004f5c:	e2 06 40 00 	ld  [ %i1 ], %l1
40004f60:	a6 10 20 00 	clr  %l3
40004f64:	02 80 00 1f 	be  40004fe0 <__sfvwrite+0xbc>
40004f68:	a4 10 20 00 	clr  %l2
40004f6c:	80 a4 a0 00 	cmp  %l2, 0
40004f70:	02 80 00 15 	be  40004fc4 <__sfvwrite+0xa0>
40004f74:	92 10 00 13 	mov  %l3, %o1
40004f78:	80 a4 a4 00 	cmp  %l2, 0x400
40004f7c:	08 80 00 03 	bleu  40004f88 <__sfvwrite+0x64>
40004f80:	94 10 00 12 	mov  %l2, %o2
40004f84:	94 10 24 00 	mov  0x400, %o2
40004f88:	c2 04 20 24 	ld  [ %l0 + 0x24 ], %g1
40004f8c:	9f c0 40 00 	call  %g1
40004f90:	d0 04 20 1c 	ld  [ %l0 + 0x1c ], %o0
40004f94:	80 a2 20 00 	cmp  %o0, 0
40004f98:	04 80 00 98 	ble  400051f8 <__sfvwrite+0x2d4>
40004f9c:	a4 24 80 08 	sub  %l2, %o0, %l2
40004fa0:	c2 06 60 08 	ld  [ %i1 + 8 ], %g1
40004fa4:	82 20 40 08 	sub  %g1, %o0, %g1
40004fa8:	80 a0 60 00 	cmp  %g1, 0
40004fac:	02 80 00 0a 	be  40004fd4 <__sfvwrite+0xb0>
40004fb0:	c2 26 60 08 	st  %g1, [ %i1 + 8 ]
40004fb4:	a6 04 c0 08 	add  %l3, %o0, %l3
40004fb8:	80 a4 a0 00 	cmp  %l2, 0
40004fbc:	12 bf ff ef 	bne  40004f78 <__sfvwrite+0x54>
40004fc0:	92 10 00 13 	mov  %l3, %o1
40004fc4:	e6 04 40 00 	ld  [ %l1 ], %l3
40004fc8:	e4 04 60 04 	ld  [ %l1 + 4 ], %l2
40004fcc:	10 bf ff e8 	b  40004f6c <__sfvwrite+0x48>
40004fd0:	a2 04 60 08 	add  %l1, 8, %l1
40004fd4:	b0 10 20 00 	clr  %i0
40004fd8:	81 c7 e0 08 	ret 
40004fdc:	81 e8 00 00 	restore 
40004fe0:	2d 10 00 2f 	sethi  %hi(0x4000bc00), %l6
40004fe4:	80 88 a0 01 	btst  1, %g2
40004fe8:	ac 15 a0 d8 	or  %l6, 0xd8, %l6
40004fec:	02 80 00 4e 	be  40005124 <__sfvwrite+0x200>
40004ff0:	a8 10 20 00 	clr  %l4
40004ff4:	ae 10 20 00 	clr  %l7
40004ff8:	ac 10 20 00 	clr  %l6
40004ffc:	a6 10 20 00 	clr  %l3
40005000:	80 a4 e0 00 	cmp  %l3, 0
40005004:	22 80 00 2b 	be,a   400050b0 <__sfvwrite+0x18c>
40005008:	ec 04 40 00 	ld  [ %l1 ], %l6
4000500c:	80 a5 e0 00 	cmp  %l7, 0
40005010:	02 80 00 b5 	be  400052e4 <__sfvwrite+0x3c0>
40005014:	90 10 00 16 	mov  %l6, %o0
40005018:	80 a5 00 13 	cmp  %l4, %l3
4000501c:	08 80 00 03 	bleu  40005028 <__sfvwrite+0x104>
40005020:	aa 10 00 14 	mov  %l4, %l5
40005024:	aa 10 00 13 	mov  %l3, %l5
40005028:	d4 04 20 14 	ld  [ %l0 + 0x14 ], %o2
4000502c:	e4 04 20 08 	ld  [ %l0 + 8 ], %l2
40005030:	a4 02 80 12 	add  %o2, %l2, %l2
40005034:	80 a5 40 12 	cmp  %l5, %l2
40005038:	04 80 00 8d 	ble  4000526c <__sfvwrite+0x348>
4000503c:	d0 04 00 00 	ld  [ %l0 ], %o0
40005040:	c2 04 20 10 	ld  [ %l0 + 0x10 ], %g1
40005044:	80 a2 00 01 	cmp  %o0, %g1
40005048:	08 80 00 8a 	bleu  40005270 <__sfvwrite+0x34c>
4000504c:	80 a5 40 0a 	cmp  %l5, %o2
40005050:	92 10 00 16 	mov  %l6, %o1
40005054:	40 00 03 f0 	call  40006014 <memmove>
40005058:	94 10 00 12 	mov  %l2, %o2
4000505c:	c2 04 00 00 	ld  [ %l0 ], %g1
40005060:	82 00 40 12 	add  %g1, %l2, %g1
40005064:	c2 24 00 00 	st  %g1, [ %l0 ]
40005068:	7f ff fd a2 	call  400046f0 <fflush>
4000506c:	90 10 00 10 	mov  %l0, %o0
40005070:	80 a2 20 00 	cmp  %o0, 0
40005074:	32 80 00 62 	bne,a   400051fc <__sfvwrite+0x2d8>
40005078:	c2 14 20 0c 	lduh  [ %l0 + 0xc ], %g1
4000507c:	a8 a5 00 12 	subcc  %l4, %l2, %l4
40005080:	02 80 00 88 	be  400052a0 <__sfvwrite+0x37c>
40005084:	01 00 00 00 	nop 
40005088:	c2 06 60 08 	ld  [ %i1 + 8 ], %g1
4000508c:	82 20 40 12 	sub  %g1, %l2, %g1
40005090:	80 a0 60 00 	cmp  %g1, 0
40005094:	02 bf ff d0 	be  40004fd4 <__sfvwrite+0xb0>
40005098:	c2 26 60 08 	st  %g1, [ %i1 + 8 ]
4000509c:	a6 24 c0 12 	sub  %l3, %l2, %l3
400050a0:	80 a4 e0 00 	cmp  %l3, 0
400050a4:	12 bf ff da 	bne  4000500c <__sfvwrite+0xe8>
400050a8:	ac 05 80 12 	add  %l6, %l2, %l6
400050ac:	ec 04 40 00 	ld  [ %l1 ], %l6
400050b0:	e6 04 60 04 	ld  [ %l1 + 4 ], %l3
400050b4:	ae 10 20 00 	clr  %l7
400050b8:	10 bf ff d2 	b  40005000 <__sfvwrite+0xdc>
400050bc:	a2 04 60 08 	add  %l1, 8, %l1
400050c0:	d0 04 00 00 	ld  [ %l0 ], %o0
400050c4:	80 a4 80 15 	cmp  %l2, %l5
400050c8:	1a 80 00 05 	bcc  400050dc <__sfvwrite+0x1b8>
400050cc:	94 10 00 15 	mov  %l5, %o2
400050d0:	aa 10 00 12 	mov  %l2, %l5
400050d4:	a6 10 00 12 	mov  %l2, %l3
400050d8:	94 10 00 15 	mov  %l5, %o2
400050dc:	40 00 03 ce 	call  40006014 <memmove>
400050e0:	92 10 00 14 	mov  %l4, %o1
400050e4:	c4 04 20 08 	ld  [ %l0 + 8 ], %g2
400050e8:	c2 04 00 00 	ld  [ %l0 ], %g1
400050ec:	a6 20 80 13 	sub  %g2, %l3, %l3
400050f0:	aa 00 40 15 	add  %g1, %l5, %l5
400050f4:	e6 24 20 08 	st  %l3, [ %l0 + 8 ]
400050f8:	ea 24 00 00 	st  %l5, [ %l0 ]
400050fc:	a6 10 00 12 	mov  %l2, %l3
40005100:	aa 10 00 12 	mov  %l2, %l5
40005104:	c2 06 60 08 	ld  [ %i1 + 8 ], %g1
40005108:	a6 20 40 13 	sub  %g1, %l3, %l3
4000510c:	80 a4 e0 00 	cmp  %l3, 0
40005110:	02 bf ff b1 	be  40004fd4 <__sfvwrite+0xb0>
40005114:	e6 26 60 08 	st  %l3, [ %i1 + 8 ]
40005118:	c2 14 20 0c 	lduh  [ %l0 + 0xc ], %g1
4000511c:	a4 24 80 15 	sub  %l2, %l5, %l2
40005120:	a8 05 00 15 	add  %l4, %l5, %l4
40005124:	80 a4 a0 00 	cmp  %l2, 0
40005128:	22 80 00 1e 	be,a   400051a0 <__sfvwrite+0x27c>
4000512c:	e8 04 40 00 	ld  [ %l1 ], %l4
40005130:	83 28 60 10 	sll  %g1, 0x10, %g1
40005134:	83 30 60 10 	srl  %g1, 0x10, %g1
40005138:	80 88 62 00 	btst  0x200, %g1
4000513c:	02 80 00 1c 	be  400051ac <__sfvwrite+0x288>
40005140:	e6 04 20 08 	ld  [ %l0 + 8 ], %l3
40005144:	80 a4 80 13 	cmp  %l2, %l3
40005148:	08 bf ff de 	bleu  400050c0 <__sfvwrite+0x19c>
4000514c:	aa 10 00 13 	mov  %l3, %l5
40005150:	80 88 60 80 	btst  0x80, %g1
40005154:	22 bf ff dc 	be,a   400050c4 <__sfvwrite+0x1a0>
40005158:	d0 04 00 00 	ld  [ %l0 ], %o0
4000515c:	d2 04 20 10 	ld  [ %l0 + 0x10 ], %o1
40005160:	ea 04 00 00 	ld  [ %l0 ], %l5
40005164:	d0 05 80 00 	ld  [ %l6 ], %o0
40005168:	aa 25 40 09 	sub  %l5, %o1, %l5
4000516c:	a6 04 80 15 	add  %l2, %l5, %l3
40005170:	40 00 07 cb 	call  4000709c <_realloc_r>
40005174:	94 10 00 13 	mov  %l3, %o2
40005178:	82 92 20 00 	orcc  %o0, 0, %g1
4000517c:	02 80 00 6d 	be  40005330 <__sfvwrite+0x40c>
40005180:	90 00 40 15 	add  %g1, %l5, %o0
40005184:	e6 24 20 14 	st  %l3, [ %l0 + 0x14 ]
40005188:	c2 24 20 10 	st  %g1, [ %l0 + 0x10 ]
4000518c:	d0 24 00 00 	st  %o0, [ %l0 ]
40005190:	e4 24 20 08 	st  %l2, [ %l0 + 8 ]
40005194:	a6 10 00 12 	mov  %l2, %l3
40005198:	10 bf ff cb 	b  400050c4 <__sfvwrite+0x1a0>
4000519c:	aa 10 00 12 	mov  %l2, %l5
400051a0:	e4 04 60 04 	ld  [ %l1 + 4 ], %l2
400051a4:	10 bf ff e0 	b  40005124 <__sfvwrite+0x200>
400051a8:	a2 04 60 08 	add  %l1, 8, %l1
400051ac:	80 a4 c0 12 	cmp  %l3, %l2
400051b0:	d0 04 00 00 	ld  [ %l0 ], %o0
400051b4:	1a 80 00 16 	bcc  4000520c <__sfvwrite+0x2e8>
400051b8:	aa 10 00 13 	mov  %l3, %l5
400051bc:	c2 04 20 10 	ld  [ %l0 + 0x10 ], %g1
400051c0:	80 a2 00 01 	cmp  %o0, %g1
400051c4:	28 80 00 13 	bleu,a   40005210 <__sfvwrite+0x2ec>
400051c8:	d4 04 20 14 	ld  [ %l0 + 0x14 ], %o2
400051cc:	92 10 00 14 	mov  %l4, %o1
400051d0:	40 00 03 91 	call  40006014 <memmove>
400051d4:	94 10 00 13 	mov  %l3, %o2
400051d8:	c2 04 00 00 	ld  [ %l0 ], %g1
400051dc:	82 00 40 13 	add  %g1, %l3, %g1
400051e0:	c2 24 00 00 	st  %g1, [ %l0 ]
400051e4:	7f ff fd 43 	call  400046f0 <fflush>
400051e8:	90 10 00 10 	mov  %l0, %o0
400051ec:	80 a2 20 00 	cmp  %o0, 0
400051f0:	22 bf ff c6 	be,a   40005108 <__sfvwrite+0x1e4>
400051f4:	c2 06 60 08 	ld  [ %i1 + 8 ], %g1
400051f8:	c2 14 20 0c 	lduh  [ %l0 + 0xc ], %g1
400051fc:	82 10 60 40 	or  %g1, 0x40, %g1
40005200:	c2 34 20 0c 	sth  %g1, [ %l0 + 0xc ]
40005204:	81 c7 e0 08 	ret 
40005208:	91 e8 3f ff 	restore  %g0, -1, %o0
4000520c:	d4 04 20 14 	ld  [ %l0 + 0x14 ], %o2
40005210:	80 a4 80 0a 	cmp  %l2, %o2
40005214:	0a 80 00 0b 	bcs  40005240 <__sfvwrite+0x31c>
40005218:	92 10 00 14 	mov  %l4, %o1
4000521c:	c2 04 20 24 	ld  [ %l0 + 0x24 ], %g1
40005220:	d0 04 20 1c 	ld  [ %l0 + 0x1c ], %o0
40005224:	9f c0 40 00 	call  %g1
40005228:	92 10 00 14 	mov  %l4, %o1
4000522c:	a6 92 20 00 	orcc  %o0, 0, %l3
40005230:	24 bf ff f3 	ble,a   400051fc <__sfvwrite+0x2d8>
40005234:	c2 14 20 0c 	lduh  [ %l0 + 0xc ], %g1
40005238:	10 bf ff b3 	b  40005104 <__sfvwrite+0x1e0>
4000523c:	aa 10 00 13 	mov  %l3, %l5
40005240:	40 00 03 75 	call  40006014 <memmove>
40005244:	94 10 00 12 	mov  %l2, %o2
40005248:	c4 04 20 08 	ld  [ %l0 + 8 ], %g2
4000524c:	c2 04 00 00 	ld  [ %l0 ], %g1
40005250:	84 20 80 12 	sub  %g2, %l2, %g2
40005254:	82 00 40 12 	add  %g1, %l2, %g1
40005258:	c4 24 20 08 	st  %g2, [ %l0 + 8 ]
4000525c:	c2 24 00 00 	st  %g1, [ %l0 ]
40005260:	a6 10 00 12 	mov  %l2, %l3
40005264:	10 bf ff a8 	b  40005104 <__sfvwrite+0x1e0>
40005268:	aa 10 00 12 	mov  %l2, %l5
4000526c:	80 a5 40 0a 	cmp  %l5, %o2
40005270:	06 80 00 13 	bl  400052bc <__sfvwrite+0x398>
40005274:	92 10 00 16 	mov  %l6, %o1
40005278:	c2 04 20 24 	ld  [ %l0 + 0x24 ], %g1
4000527c:	d0 04 20 1c 	ld  [ %l0 + 0x1c ], %o0
40005280:	9f c0 40 00 	call  %g1
40005284:	92 10 00 16 	mov  %l6, %o1
40005288:	a4 92 20 00 	orcc  %o0, 0, %l2
4000528c:	24 bf ff dc 	ble,a   400051fc <__sfvwrite+0x2d8>
40005290:	c2 14 20 0c 	lduh  [ %l0 + 0xc ], %g1
40005294:	a8 a5 00 12 	subcc  %l4, %l2, %l4
40005298:	32 bf ff 7d 	bne,a   4000508c <__sfvwrite+0x168>
4000529c:	c2 06 60 08 	ld  [ %i1 + 8 ], %g1
400052a0:	7f ff fd 14 	call  400046f0 <fflush>
400052a4:	90 10 00 10 	mov  %l0, %o0
400052a8:	80 a2 20 00 	cmp  %o0, 0
400052ac:	12 bf ff d3 	bne  400051f8 <__sfvwrite+0x2d4>
400052b0:	ae 10 20 00 	clr  %l7
400052b4:	10 bf ff 76 	b  4000508c <__sfvwrite+0x168>
400052b8:	c2 06 60 08 	ld  [ %i1 + 8 ], %g1
400052bc:	40 00 03 56 	call  40006014 <memmove>
400052c0:	94 10 00 15 	mov  %l5, %o2
400052c4:	c4 04 20 08 	ld  [ %l0 + 8 ], %g2
400052c8:	c2 04 00 00 	ld  [ %l0 ], %g1
400052cc:	84 20 80 15 	sub  %g2, %l5, %g2
400052d0:	82 00 40 15 	add  %g1, %l5, %g1
400052d4:	c4 24 20 08 	st  %g2, [ %l0 + 8 ]
400052d8:	c2 24 00 00 	st  %g1, [ %l0 ]
400052dc:	10 bf ff 68 	b  4000507c <__sfvwrite+0x158>
400052e0:	a4 10 00 15 	mov  %l5, %l2
400052e4:	92 10 20 0a 	mov  0xa, %o1
400052e8:	94 10 00 13 	mov  %l3, %o2
400052ec:	40 00 02 cf 	call  40005e28 <memchr>
400052f0:	a8 04 e0 01 	add  %l3, 1, %l4
400052f4:	80 a2 20 00 	cmp  %o0, 0
400052f8:	02 bf ff 48 	be  40005018 <__sfvwrite+0xf4>
400052fc:	ae 10 20 01 	mov  1, %l7
40005300:	a8 02 20 01 	add  %o0, 1, %l4
40005304:	10 bf ff 45 	b  40005018 <__sfvwrite+0xf4>
40005308:	a8 25 00 16 	sub  %l4, %l6, %l4
4000530c:	90 10 00 10 	mov  %l0, %o0
40005310:	7f ff f6 cf 	call  40002e4c <__swsetup>
40005314:	b0 10 3f ff 	mov  -1, %i0
40005318:	80 a2 20 00 	cmp  %o0, 0
4000531c:	12 bf ff 2f 	bne  40004fd8 <__sfvwrite+0xb4>
40005320:	01 00 00 00 	nop 
40005324:	c2 14 20 0c 	lduh  [ %l0 + 0xc ], %g1
40005328:	10 bf ff 0c 	b  40004f58 <__sfvwrite+0x34>
4000532c:	84 10 00 01 	mov  %g1, %g2
40005330:	d0 05 80 00 	ld  [ %l6 ], %o0
40005334:	7f ff fe 55 	call  40004c88 <_free_r>
40005338:	d2 04 20 10 	ld  [ %l0 + 0x10 ], %o1
4000533c:	10 bf ff b0 	b  400051fc <__sfvwrite+0x2d8>
40005340:	c2 14 20 0c 	lduh  [ %l0 + 0xc ], %g1

40005344 <_fwalk_reent>:
40005344:	9d e3 bf a0 	save  %sp, -96, %sp
40005348:	7f ff fd 6e 	call  40004900 <__sfp_lock_acquire>
4000534c:	a0 10 00 18 	mov  %i0, %l0
40005350:	a6 84 22 e0 	addcc  %l0, 0x2e0, %l3
40005354:	02 80 00 31 	be  40005418 <_fwalk_reent+0xd4>
40005358:	b0 10 20 00 	clr  %i0
4000535c:	e4 04 e0 04 	ld  [ %l3 + 4 ], %l2
40005360:	a4 84 bf ff 	addcc  %l2, -1, %l2
40005364:	1c 80 00 14 	bpos  400053b4 <_fwalk_reent+0x70>
40005368:	e2 04 e0 08 	ld  [ %l3 + 8 ], %l1
4000536c:	10 80 00 28 	b  4000540c <_fwalk_reent+0xc8>
40005370:	e6 04 c0 00 	ld  [ %l3 ], %l3
40005374:	c4 54 60 0e 	ldsh  [ %l1 + 0xe ], %g2
40005378:	92 10 00 11 	mov  %l1, %o1
4000537c:	80 a0 bf ff 	cmp  %g2, -1
40005380:	02 80 00 06 	be  40005398 <_fwalk_reent+0x54>
40005384:	90 10 00 10 	mov  %l0, %o0
40005388:	9f c6 40 00 	call  %i1
4000538c:	01 00 00 00 	nop 
40005390:	c2 14 60 0c 	lduh  [ %l1 + 0xc ], %g1
40005394:	b0 16 00 08 	or  %i0, %o0, %i0
40005398:	80 88 62 00 	btst  0x200, %g1
4000539c:	02 80 00 16 	be  400053f4 <_fwalk_reent+0xb0>
400053a0:	a8 04 60 58 	add  %l1, 0x58, %l4
400053a4:	a4 84 bf ff 	addcc  %l2, -1, %l2
400053a8:	2c 80 00 19 	bneg,a   4000540c <_fwalk_reent+0xc8>
400053ac:	e6 04 c0 00 	ld  [ %l3 ], %l3
400053b0:	a2 04 60 cc 	add  %l1, 0xcc, %l1
400053b4:	c2 14 60 0c 	lduh  [ %l1 + 0xc ], %g1
400053b8:	85 28 60 10 	sll  %g1, 0x10, %g2
400053bc:	80 a0 a0 00 	cmp  %g2, 0
400053c0:	22 bf ff fa 	be,a   400053a8 <_fwalk_reent+0x64>
400053c4:	a4 84 bf ff 	addcc  %l2, -1, %l2
400053c8:	85 30 a0 10 	srl  %g2, 0x10, %g2
400053cc:	80 88 a2 00 	btst  0x200, %g2
400053d0:	32 bf ff ea 	bne,a   40005378 <_fwalk_reent+0x34>
400053d4:	c4 54 60 0e 	ldsh  [ %l1 + 0xe ], %g2
400053d8:	a8 04 60 58 	add  %l1, 0x58, %l4
400053dc:	40 00 12 39 	call  40009cc0 <___st_pthread_mutex_lock>
400053e0:	90 10 00 14 	mov  %l4, %o0
400053e4:	c2 54 60 0c 	ldsh  [ %l1 + 0xc ], %g1
400053e8:	80 a0 60 00 	cmp  %g1, 0
400053ec:	12 bf ff e2 	bne  40005374 <_fwalk_reent+0x30>
400053f0:	c2 14 60 0c 	lduh  [ %l1 + 0xc ], %g1
400053f4:	40 00 12 49 	call  40009d18 <___st_pthread_mutex_unlock>
400053f8:	90 10 00 14 	mov  %l4, %o0
400053fc:	a4 84 bf ff 	addcc  %l2, -1, %l2
40005400:	3c bf ff ed 	bpos,a   400053b4 <_fwalk_reent+0x70>
40005404:	a2 04 60 cc 	add  %l1, 0xcc, %l1
40005408:	e6 04 c0 00 	ld  [ %l3 ], %l3
4000540c:	80 a4 e0 00 	cmp  %l3, 0
40005410:	32 bf ff d4 	bne,a   40005360 <_fwalk_reent+0x1c>
40005414:	e4 04 e0 04 	ld  [ %l3 + 4 ], %l2
40005418:	7f ff fd 22 	call  400048a0 <__sfp_lock_release>
4000541c:	01 00 00 00 	nop 
40005420:	81 c7 e0 08 	ret 
40005424:	81 e8 00 00 	restore 

40005428 <_fwalk>:
40005428:	9d e3 bf a0 	save  %sp, -96, %sp
4000542c:	7f ff fd 35 	call  40004900 <__sfp_lock_acquire>
40005430:	01 00 00 00 	nop 
40005434:	a4 86 22 e0 	addcc  %i0, 0x2e0, %l2
40005438:	02 80 00 30 	be  400054f8 <_fwalk+0xd0>
4000543c:	b0 10 20 00 	clr  %i0
40005440:	e2 04 a0 04 	ld  [ %l2 + 4 ], %l1
40005444:	a2 84 7f ff 	addcc  %l1, -1, %l1
40005448:	1c 80 00 13 	bpos  40005494 <_fwalk+0x6c>
4000544c:	e0 04 a0 08 	ld  [ %l2 + 8 ], %l0
40005450:	10 80 00 27 	b  400054ec <_fwalk+0xc4>
40005454:	e4 04 80 00 	ld  [ %l2 ], %l2
40005458:	c4 54 20 0e 	ldsh  [ %l0 + 0xe ], %g2
4000545c:	80 a0 bf ff 	cmp  %g2, -1
40005460:	02 80 00 06 	be  40005478 <_fwalk+0x50>
40005464:	90 10 00 10 	mov  %l0, %o0
40005468:	9f c6 40 00 	call  %i1
4000546c:	01 00 00 00 	nop 
40005470:	c2 14 20 0c 	lduh  [ %l0 + 0xc ], %g1
40005474:	b0 16 00 08 	or  %i0, %o0, %i0
40005478:	80 88 62 00 	btst  0x200, %g1
4000547c:	02 80 00 16 	be  400054d4 <_fwalk+0xac>
40005480:	a6 04 20 58 	add  %l0, 0x58, %l3
40005484:	a2 84 7f ff 	addcc  %l1, -1, %l1
40005488:	2c 80 00 19 	bneg,a   400054ec <_fwalk+0xc4>
4000548c:	e4 04 80 00 	ld  [ %l2 ], %l2
40005490:	a0 04 20 cc 	add  %l0, 0xcc, %l0
40005494:	c2 14 20 0c 	lduh  [ %l0 + 0xc ], %g1
40005498:	85 28 60 10 	sll  %g1, 0x10, %g2
4000549c:	80 a0 a0 00 	cmp  %g2, 0
400054a0:	22 bf ff fa 	be,a   40005488 <_fwalk+0x60>
400054a4:	a2 84 7f ff 	addcc  %l1, -1, %l1
400054a8:	85 30 a0 10 	srl  %g2, 0x10, %g2
400054ac:	80 88 a2 00 	btst  0x200, %g2
400054b0:	32 bf ff eb 	bne,a   4000545c <_fwalk+0x34>
400054b4:	c4 54 20 0e 	ldsh  [ %l0 + 0xe ], %g2
400054b8:	a6 04 20 58 	add  %l0, 0x58, %l3
400054bc:	40 00 12 01 	call  40009cc0 <___st_pthread_mutex_lock>
400054c0:	90 10 00 13 	mov  %l3, %o0
400054c4:	c2 54 20 0c 	ldsh  [ %l0 + 0xc ], %g1
400054c8:	80 a0 60 00 	cmp  %g1, 0
400054cc:	12 bf ff e3 	bne  40005458 <_fwalk+0x30>
400054d0:	c2 14 20 0c 	lduh  [ %l0 + 0xc ], %g1
400054d4:	40 00 12 11 	call  40009d18 <___st_pthread_mutex_unlock>
400054d8:	90 10 00 13 	mov  %l3, %o0
400054dc:	a2 84 7f ff 	addcc  %l1, -1, %l1
400054e0:	3c bf ff ed 	bpos,a   40005494 <_fwalk+0x6c>
400054e4:	a0 04 20 cc 	add  %l0, 0xcc, %l0
400054e8:	e4 04 80 00 	ld  [ %l2 ], %l2
400054ec:	80 a4 a0 00 	cmp  %l2, 0
400054f0:	32 bf ff d5 	bne,a   40005444 <_fwalk+0x1c>
400054f4:	e2 04 a0 04 	ld  [ %l2 + 4 ], %l1
400054f8:	7f ff fc ea 	call  400048a0 <__sfp_lock_release>
400054fc:	01 00 00 00 	nop 
40005500:	81 c7 e0 08 	ret 
40005504:	81 e8 00 00 	restore 

40005508 <__locale_charset>:
40005508:	03 10 00 2e 	sethi  %hi(0x4000b800), %g1
4000550c:	81 c3 e0 08 	retl 
40005510:	d0 00 60 80 	ld  [ %g1 + 0x80 ], %o0	! 4000b880 <charset>

40005514 <_localeconv_r>:
40005514:	11 10 00 2e 	sethi  %hi(0x4000b800), %o0
40005518:	81 c3 e0 08 	retl 
4000551c:	90 12 20 50 	or  %o0, 0x50, %o0	! 4000b850 <lconv>

40005520 <localeconv>:
40005520:	11 10 00 2e 	sethi  %hi(0x4000b800), %o0
40005524:	81 c3 e0 08 	retl 
40005528:	90 12 20 50 	or  %o0, 0x50, %o0	! 4000b850 <lconv>

4000552c <_setlocale_r>:
4000552c:	9d e3 bf a0 	save  %sp, -96, %sp
40005530:	a0 10 00 18 	mov  %i0, %l0
40005534:	80 a6 a0 00 	cmp  %i2, 0
40005538:	31 10 00 2e 	sethi  %hi(0x4000b800), %i0
4000553c:	02 80 00 14 	be  4000558c <_setlocale_r+0x60>
40005540:	b0 16 20 38 	or  %i0, 0x38, %i0	! 4000b838 <_global_impure_ptr+0x8>
40005544:	90 10 00 1a 	mov  %i2, %o0
40005548:	92 10 00 18 	mov  %i0, %o1
4000554c:	40 00 08 80 	call  4000774c <strcmp>
40005550:	23 10 00 2e 	sethi  %hi(0x4000b800), %l1
40005554:	80 a2 20 00 	cmp  %o0, 0
40005558:	12 80 00 06 	bne  40005570 <_setlocale_r+0x44>
4000555c:	90 10 00 1a 	mov  %i2, %o0
40005560:	f4 24 20 34 	st  %i2, [ %l0 + 0x34 ]
40005564:	f2 24 20 30 	st  %i1, [ %l0 + 0x30 ]
40005568:	81 c7 e0 08 	ret 
4000556c:	91 ec 60 38 	restore  %l1, 0x38, %o0
40005570:	13 10 00 2d 	sethi  %hi(0x4000b400), %o1
40005574:	b0 10 20 00 	clr  %i0
40005578:	40 00 08 75 	call  4000774c <strcmp>
4000557c:	92 12 63 48 	or  %o1, 0x348, %o1
40005580:	80 a2 20 00 	cmp  %o0, 0
40005584:	22 bf ff f8 	be,a   40005564 <_setlocale_r+0x38>
40005588:	f4 24 20 34 	st  %i2, [ %l0 + 0x34 ]
4000558c:	81 c7 e0 08 	ret 
40005590:	81 e8 00 00 	restore 

40005594 <setlocale>:
40005594:	82 10 00 08 	mov  %o0, %g1
40005598:	05 10 00 2f 	sethi  %hi(0x4000bc00), %g2
4000559c:	d0 00 a0 d8 	ld  [ %g2 + 0xd8 ], %o0	! 4000bcd8 <_impure_ptr>
400055a0:	94 10 00 09 	mov  %o1, %o2
400055a4:	92 10 00 01 	mov  %g1, %o1
400055a8:	82 13 c0 00 	mov  %o7, %g1
400055ac:	7f ff ff e0 	call  4000552c <_setlocale_r>
400055b0:	9e 10 40 00 	mov  %g1, %o7
400055b4:	01 00 00 00 	nop 

400055b8 <__smakebuf>:
400055b8:	9d e3 bf 60 	save  %sp, -160, %sp
400055bc:	c2 16 20 0c 	lduh  [ %i0 + 0xc ], %g1
400055c0:	80 88 60 02 	btst  2, %g1
400055c4:	32 80 00 3b 	bne,a   400056b0 <__smakebuf+0xf8>
400055c8:	82 06 20 43 	add  %i0, 0x43, %g1
400055cc:	d2 56 20 0e 	ldsh  [ %i0 + 0xe ], %o1
400055d0:	80 a2 60 00 	cmp  %o1, 0
400055d4:	06 80 00 17 	bl  40005630 <__smakebuf+0x78>
400055d8:	21 10 00 2f 	sethi  %hi(0x4000bc00), %l0
400055dc:	d0 04 20 d8 	ld  [ %l0 + 0xd8 ], %o0	! 4000bcd8 <_impure_ptr>
400055e0:	40 00 09 67 	call  40007b7c <_fstat_r>
400055e4:	94 07 bf c0 	add  %fp, -64, %o2
400055e8:	80 a2 20 00 	cmp  %o0, 0
400055ec:	06 80 00 10 	bl  4000562c <__smakebuf+0x74>
400055f0:	c4 17 bf c8 	lduh  [ %fp + -56 ], %g2
400055f4:	03 00 00 3c 	sethi  %hi(0xf000), %g1
400055f8:	82 08 80 01 	and  %g2, %g1, %g1
400055fc:	05 00 00 08 	sethi  %hi(0x2000), %g2
40005600:	84 18 40 02 	xor  %g1, %g2, %g2
40005604:	80 a0 00 02 	cmp  %g0, %g2
40005608:	05 00 00 20 	sethi  %hi(0x8000), %g2
4000560c:	a2 60 3f ff 	subx  %g0, -1, %l1
40005610:	80 a0 40 02 	cmp  %g1, %g2
40005614:	22 80 00 2d 	be,a   400056c8 <__smakebuf+0x110>
40005618:	c4 06 20 28 	ld  [ %i0 + 0x28 ], %g2
4000561c:	c2 16 20 0c 	lduh  [ %i0 + 0xc ], %g1
40005620:	82 10 68 00 	or  %g1, 0x800, %g1
40005624:	10 80 00 06 	b  4000563c <__smakebuf+0x84>
40005628:	c2 36 20 0c 	sth  %g1, [ %i0 + 0xc ]
4000562c:	c2 16 20 0c 	lduh  [ %i0 + 0xc ], %g1
40005630:	82 10 68 00 	or  %g1, 0x800, %g1
40005634:	a2 10 20 00 	clr  %l1
40005638:	c2 36 20 0c 	sth  %g1, [ %i0 + 0xc ]
4000563c:	d0 04 20 d8 	ld  [ %l0 + 0xd8 ], %o0
40005640:	40 00 00 44 	call  40005750 <_malloc_r>
40005644:	92 10 24 00 	mov  0x400, %o1
40005648:	80 a2 20 00 	cmp  %o0, 0
4000564c:	02 80 00 29 	be  400056f0 <__smakebuf+0x138>
40005650:	03 10 00 2f 	sethi  %hi(0x4000bc00), %g1
40005654:	c4 16 20 0c 	lduh  [ %i0 + 0xc ], %g2
40005658:	c2 00 60 d8 	ld  [ %g1 + 0xd8 ], %g1
4000565c:	84 10 a0 80 	or  %g2, 0x80, %g2
40005660:	d0 26 20 10 	st  %o0, [ %i0 + 0x10 ]
40005664:	d0 26 00 00 	st  %o0, [ %i0 ]
40005668:	c4 36 20 0c 	sth  %g2, [ %i0 + 0xc ]
4000566c:	05 10 00 12 	sethi  %hi(0x40004800), %g2
40005670:	84 10 a0 4c 	or  %g2, 0x4c, %g2	! 4000484c <_cleanup_r>
40005674:	c4 20 60 3c 	st  %g2, [ %g1 + 0x3c ]
40005678:	82 10 24 00 	mov  0x400, %g1
4000567c:	80 a4 60 00 	cmp  %l1, 0
40005680:	02 80 00 0a 	be  400056a8 <__smakebuf+0xf0>
40005684:	c2 26 20 14 	st  %g1, [ %i0 + 0x14 ]
40005688:	40 00 10 fe 	call  40009a80 <isatty>
4000568c:	d0 56 20 0e 	ldsh  [ %i0 + 0xe ], %o0
40005690:	80 a2 20 00 	cmp  %o0, 0
40005694:	02 80 00 1f 	be  40005710 <__smakebuf+0x158>
40005698:	01 00 00 00 	nop 
4000569c:	c2 16 20 0c 	lduh  [ %i0 + 0xc ], %g1
400056a0:	82 10 60 01 	or  %g1, 1, %g1
400056a4:	c2 36 20 0c 	sth  %g1, [ %i0 + 0xc ]
400056a8:	81 c7 e0 08 	ret 
400056ac:	81 e8 00 00 	restore 
400056b0:	c2 26 20 10 	st  %g1, [ %i0 + 0x10 ]
400056b4:	c2 26 00 00 	st  %g1, [ %i0 ]
400056b8:	82 10 20 01 	mov  1, %g1
400056bc:	c2 26 20 14 	st  %g1, [ %i0 + 0x14 ]
400056c0:	81 c7 e0 08 	ret 
400056c4:	81 e8 00 00 	restore 
400056c8:	03 10 00 1d 	sethi  %hi(0x40007400), %g1
400056cc:	82 10 62 4c 	or  %g1, 0x24c, %g1	! 4000764c <__sseek>
400056d0:	80 a0 80 01 	cmp  %g2, %g1
400056d4:	12 bf ff d3 	bne  40005620 <__smakebuf+0x68>
400056d8:	c2 16 20 0c 	lduh  [ %i0 + 0xc ], %g1
400056dc:	82 10 64 00 	or  %g1, 0x400, %g1
400056e0:	84 10 24 00 	mov  0x400, %g2
400056e4:	c4 26 20 4c 	st  %g2, [ %i0 + 0x4c ]
400056e8:	10 bf ff d5 	b  4000563c <__smakebuf+0x84>
400056ec:	c2 36 20 0c 	sth  %g1, [ %i0 + 0xc ]
400056f0:	c4 16 20 0c 	lduh  [ %i0 + 0xc ], %g2
400056f4:	84 10 a0 02 	or  %g2, 2, %g2
400056f8:	82 06 20 43 	add  %i0, 0x43, %g1
400056fc:	c2 26 20 10 	st  %g1, [ %i0 + 0x10 ]
40005700:	c2 26 00 00 	st  %g1, [ %i0 ]
40005704:	c4 36 20 0c 	sth  %g2, [ %i0 + 0xc ]
40005708:	82 10 20 01 	mov  1, %g1
4000570c:	c2 26 20 14 	st  %g1, [ %i0 + 0x14 ]
40005710:	81 c7 e0 08 	ret 
40005714:	81 e8 00 00 	restore 

40005718 <free>:
40005718:	92 10 00 08 	mov  %o0, %o1
4000571c:	03 10 00 2f 	sethi  %hi(0x4000bc00), %g1
40005720:	d0 00 60 d8 	ld  [ %g1 + 0xd8 ], %o0	! 4000bcd8 <_impure_ptr>
40005724:	82 13 c0 00 	mov  %o7, %g1
40005728:	7f ff fd 58 	call  40004c88 <_free_r>
4000572c:	9e 10 40 00 	mov  %g1, %o7
40005730:	01 00 00 00 	nop 

40005734 <malloc>:
40005734:	92 10 00 08 	mov  %o0, %o1
40005738:	03 10 00 2f 	sethi  %hi(0x4000bc00), %g1
4000573c:	d0 00 60 d8 	ld  [ %g1 + 0xd8 ], %o0	! 4000bcd8 <_impure_ptr>
40005740:	82 13 c0 00 	mov  %o7, %g1
40005744:	40 00 00 03 	call  40005750 <_malloc_r>
40005748:	9e 10 40 00 	mov  %g1, %o7
4000574c:	01 00 00 00 	nop 

40005750 <_malloc_r>:
40005750:	9d e3 bf a0 	save  %sp, -96, %sp
40005754:	84 10 20 00 	clr  %g2
40005758:	82 06 60 0b 	add  %i1, 0xb, %g1
4000575c:	80 a0 60 16 	cmp  %g1, 0x16
40005760:	08 80 00 04 	bleu  40005770 <_malloc_r+0x20>
40005764:	a0 10 20 10 	mov  0x10, %l0
40005768:	a0 08 7f f8 	and  %g1, -8, %l0
4000576c:	85 34 20 1f 	srl  %l0, 0x1f, %g2
40005770:	80 a4 00 19 	cmp  %l0, %i1
40005774:	0a 80 00 46 	bcs  4000588c <_malloc_r+0x13c>
40005778:	80 88 a0 ff 	btst  0xff, %g2
4000577c:	12 80 00 44 	bne  4000588c <_malloc_r+0x13c>
40005780:	01 00 00 00 	nop 
40005784:	40 00 02 b5 	call  40006258 <__malloc_lock>
40005788:	90 10 00 18 	mov  %i0, %o0
4000578c:	80 a4 21 f7 	cmp  %l0, 0x1f7
40005790:	18 80 00 41 	bgu  40005894 <_malloc_r+0x144>
40005794:	83 34 20 09 	srl  %l0, 9, %g1
40005798:	23 10 00 30 	sethi  %hi(0x4000c000), %l1
4000579c:	a2 14 62 48 	or  %l1, 0x248, %l1	! 4000c248 <__malloc_av_>
400057a0:	82 04 40 10 	add  %l1, %l0, %g1
400057a4:	e4 00 60 0c 	ld  [ %g1 + 0xc ], %l2
400057a8:	80 a4 80 01 	cmp  %l2, %g1
400057ac:	02 80 01 0f 	be  40005be8 <_malloc_r+0x498>
400057b0:	99 34 20 03 	srl  %l0, 3, %o4
400057b4:	c6 04 a0 04 	ld  [ %l2 + 4 ], %g3
400057b8:	c4 04 a0 0c 	ld  [ %l2 + 0xc ], %g2
400057bc:	c2 04 a0 08 	ld  [ %l2 + 8 ], %g1
400057c0:	86 08 ff fc 	and  %g3, -4, %g3
400057c4:	86 04 80 03 	add  %l2, %g3, %g3
400057c8:	c8 00 e0 04 	ld  [ %g3 + 4 ], %g4
400057cc:	88 11 20 01 	or  %g4, 1, %g4
400057d0:	c2 20 a0 08 	st  %g1, [ %g2 + 8 ]
400057d4:	c8 20 e0 04 	st  %g4, [ %g3 + 4 ]
400057d8:	c4 20 60 0c 	st  %g2, [ %g1 + 0xc ]
400057dc:	90 10 00 18 	mov  %i0, %o0
400057e0:	40 00 02 98 	call  40006240 <__malloc_unlock>
400057e4:	b0 04 a0 08 	add  %l2, 8, %i0
400057e8:	81 c7 e0 08 	ret 
400057ec:	81 e8 00 00 	restore 
400057f0:	e6 04 60 08 	ld  [ %l1 + 8 ], %l3
400057f4:	e8 04 e0 04 	ld  [ %l3 + 4 ], %l4
400057f8:	a8 0d 3f fc 	and  %l4, -4, %l4
400057fc:	82 25 00 10 	sub  %l4, %l0, %g1
40005800:	80 a0 60 0f 	cmp  %g1, 0xf
40005804:	14 80 00 d2 	bg  40005b4c <_malloc_r+0x3fc>
40005808:	80 a4 00 14 	cmp  %l0, %l4
4000580c:	03 10 00 31 	sethi  %hi(0x4000c400), %g1
40005810:	2f 10 00 31 	sethi  %hi(0x4000c400), %l7
40005814:	ea 00 63 c8 	ld  [ %g1 + 0x3c8 ], %l5
40005818:	c2 05 e2 54 	ld  [ %l7 + 0x254 ], %g1
4000581c:	aa 05 60 10 	add  %l5, 0x10, %l5
40005820:	80 a0 7f ff 	cmp  %g1, -1
40005824:	02 80 00 04 	be  40005834 <_malloc_r+0xe4>
40005828:	aa 05 40 10 	add  %l5, %l0, %l5
4000582c:	aa 05 6f ff 	add  %l5, 0xfff, %l5
40005830:	aa 0d 70 00 	and  %l5, -4096, %l5
40005834:	90 10 00 18 	mov  %i0, %o0
40005838:	40 00 07 57 	call  40007594 <_sbrk_r>
4000583c:	92 10 00 15 	mov  %l5, %o1
40005840:	80 a2 3f ff 	cmp  %o0, -1
40005844:	02 80 00 09 	be  40005868 <_malloc_r+0x118>
40005848:	a4 10 00 08 	mov  %o0, %l2
4000584c:	84 04 c0 14 	add  %l3, %l4, %g2
40005850:	80 a0 80 08 	cmp  %g2, %o0
40005854:	08 80 00 ec 	bleu  40005c04 <_malloc_r+0x4b4>
40005858:	2d 10 00 31 	sethi  %hi(0x4000c400), %l6
4000585c:	80 a4 40 13 	cmp  %l1, %l3
40005860:	02 80 00 ea 	be  40005c08 <_malloc_r+0x4b8>
40005864:	c2 05 a3 d4 	ld  [ %l6 + 0x3d4 ], %g1
40005868:	c2 04 60 08 	ld  [ %l1 + 8 ], %g1
4000586c:	c4 00 60 04 	ld  [ %g1 + 4 ], %g2
40005870:	84 08 bf fc 	and  %g2, -4, %g2
40005874:	82 20 80 10 	sub  %g2, %l0, %g1
40005878:	80 a0 60 0f 	cmp  %g1, 0xf
4000587c:	14 80 01 22 	bg  40005d04 <_malloc_r+0x5b4>
40005880:	80 a4 00 02 	cmp  %l0, %g2
40005884:	40 00 02 6f 	call  40006240 <__malloc_unlock>
40005888:	90 10 00 18 	mov  %i0, %o0
4000588c:	81 c7 e0 08 	ret 
40005890:	91 e8 20 00 	restore  %g0, 0, %o0
40005894:	99 34 20 03 	srl  %l0, 3, %o4
40005898:	80 a0 60 00 	cmp  %g1, 0
4000589c:	02 80 00 0f 	be  400058d8 <_malloc_r+0x188>
400058a0:	87 2b 20 03 	sll  %o4, 3, %g3
400058a4:	80 a0 60 04 	cmp  %g1, 4
400058a8:	08 80 00 92 	bleu  40005af0 <_malloc_r+0x3a0>
400058ac:	99 34 20 06 	srl  %l0, 6, %o4
400058b0:	98 00 60 5b 	add  %g1, 0x5b, %o4
400058b4:	80 a0 60 14 	cmp  %g1, 0x14
400058b8:	08 80 00 08 	bleu  400058d8 <_malloc_r+0x188>
400058bc:	87 2b 20 03 	sll  %o4, 3, %g3
400058c0:	80 a0 60 54 	cmp  %g1, 0x54
400058c4:	18 80 01 13 	bgu  40005d10 <_malloc_r+0x5c0>
400058c8:	80 a0 61 54 	cmp  %g1, 0x154
400058cc:	99 34 20 0c 	srl  %l0, 0xc, %o4
400058d0:	98 03 20 6e 	add  %o4, 0x6e, %o4
400058d4:	87 2b 20 03 	sll  %o4, 3, %g3
400058d8:	23 10 00 30 	sethi  %hi(0x4000c000), %l1
400058dc:	a2 14 62 48 	or  %l1, 0x248, %l1	! 4000c248 <__malloc_av_>
400058e0:	86 04 40 03 	add  %l1, %g3, %g3
400058e4:	e4 00 e0 0c 	ld  [ %g3 + 0xc ], %l2
400058e8:	80 a0 c0 12 	cmp  %g3, %l2
400058ec:	32 80 00 0b 	bne,a   40005918 <_malloc_r+0x1c8>
400058f0:	c4 04 a0 04 	ld  [ %l2 + 4 ], %g2
400058f4:	10 80 00 10 	b  40005934 <_malloc_r+0x1e4>
400058f8:	98 03 20 01 	inc  %o4
400058fc:	36 80 00 68 	bge,a   40005a9c <_malloc_r+0x34c>
40005900:	c6 04 a0 0c 	ld  [ %l2 + 0xc ], %g3
40005904:	e4 04 a0 0c 	ld  [ %l2 + 0xc ], %l2
40005908:	80 a0 c0 12 	cmp  %g3, %l2
4000590c:	22 80 00 0a 	be,a   40005934 <_malloc_r+0x1e4>
40005910:	98 03 20 01 	inc  %o4
40005914:	c4 04 a0 04 	ld  [ %l2 + 4 ], %g2
40005918:	84 08 bf fc 	and  %g2, -4, %g2
4000591c:	82 20 80 10 	sub  %g2, %l0, %g1
40005920:	80 a0 60 0f 	cmp  %g1, 0xf
40005924:	04 bf ff f6 	ble  400058fc <_malloc_r+0x1ac>
40005928:	80 a0 60 00 	cmp  %g1, 0
4000592c:	98 03 3f ff 	add  %o4, -1, %o4
40005930:	98 03 20 01 	inc  %o4
40005934:	07 10 00 30 	sethi  %hi(0x4000c000), %g3
40005938:	86 10 e2 50 	or  %g3, 0x250, %g3	! 4000c250 <__malloc_av_+0x8>
4000593c:	e4 00 e0 08 	ld  [ %g3 + 8 ], %l2
40005940:	80 a0 c0 12 	cmp  %g3, %l2
40005944:	22 80 00 2a 	be,a   400059ec <_malloc_r+0x29c>
40005948:	c2 04 60 04 	ld  [ %l1 + 4 ], %g1
4000594c:	c4 04 a0 04 	ld  [ %l2 + 4 ], %g2
40005950:	84 08 bf fc 	and  %g2, -4, %g2
40005954:	82 20 80 10 	sub  %g2, %l0, %g1
40005958:	80 a0 60 0f 	cmp  %g1, 0xf
4000595c:	14 80 00 8a 	bg  40005b84 <_malloc_r+0x434>
40005960:	80 a0 60 00 	cmp  %g1, 0
40005964:	c6 20 e0 0c 	st  %g3, [ %g3 + 0xc ]
40005968:	16 80 00 59 	bge  40005acc <_malloc_r+0x37c>
4000596c:	c6 20 e0 08 	st  %g3, [ %g3 + 8 ]
40005970:	80 a0 a1 ff 	cmp  %g2, 0x1ff
40005974:	28 80 00 62 	bleu,a   40005afc <_malloc_r+0x3ac>
40005978:	85 30 a0 03 	srl  %g2, 3, %g2
4000597c:	83 30 a0 09 	srl  %g2, 9, %g1
40005980:	80 a0 60 04 	cmp  %g1, 4
40005984:	18 80 00 e9 	bgu  40005d28 <_malloc_r+0x5d8>
40005988:	88 00 60 5b 	add  %g1, 0x5b, %g4
4000598c:	89 30 a0 06 	srl  %g2, 6, %g4
40005990:	88 01 20 38 	add  %g4, 0x38, %g4
40005994:	9b 29 20 03 	sll  %g4, 3, %o5
40005998:	9a 04 40 0d 	add  %l1, %o5, %o5
4000599c:	c2 03 60 08 	ld  [ %o5 + 8 ], %g1
400059a0:	80 a0 40 0d 	cmp  %g1, %o5
400059a4:	32 80 00 08 	bne,a   400059c4 <_malloc_r+0x274>
400059a8:	c8 00 60 04 	ld  [ %g1 + 4 ], %g4
400059ac:	10 80 00 e9 	b  40005d50 <_malloc_r+0x600>
400059b0:	da 04 60 04 	ld  [ %l1 + 4 ], %o5
400059b4:	80 a3 40 01 	cmp  %o5, %g1
400059b8:	22 80 00 08 	be,a   400059d8 <_malloc_r+0x288>
400059bc:	c4 00 60 0c 	ld  [ %g1 + 0xc ], %g2
400059c0:	c8 00 60 04 	ld  [ %g1 + 4 ], %g4
400059c4:	88 09 3f fc 	and  %g4, -4, %g4
400059c8:	80 a0 80 04 	cmp  %g2, %g4
400059cc:	2a bf ff fa 	bcs,a   400059b4 <_malloc_r+0x264>
400059d0:	c2 00 60 08 	ld  [ %g1 + 8 ], %g1
400059d4:	c4 00 60 0c 	ld  [ %g1 + 0xc ], %g2
400059d8:	c4 24 a0 0c 	st  %g2, [ %l2 + 0xc ]
400059dc:	c2 24 a0 08 	st  %g1, [ %l2 + 8 ]
400059e0:	e4 20 60 0c 	st  %l2, [ %g1 + 0xc ]
400059e4:	e4 20 a0 08 	st  %l2, [ %g2 + 8 ]
400059e8:	c2 04 60 04 	ld  [ %l1 + 4 ], %g1
400059ec:	85 3b 20 02 	sra  %o4, 2, %g2
400059f0:	88 10 20 01 	mov  1, %g4
400059f4:	89 29 00 02 	sll  %g4, %g2, %g4
400059f8:	80 a0 40 04 	cmp  %g1, %g4
400059fc:	2a bf ff 7e 	bcs,a   400057f4 <_malloc_r+0xa4>
40005a00:	e6 04 60 08 	ld  [ %l1 + 8 ], %l3
40005a04:	80 88 40 04 	btst  %g1, %g4
40005a08:	22 80 00 4b 	be,a   40005b34 <_malloc_r+0x3e4>
40005a0c:	98 0b 3f fc 	and  %o4, -4, %o4
40005a10:	95 2b 20 03 	sll  %o4, 3, %o2
40005a14:	96 10 00 0c 	mov  %o4, %o3
40005a18:	94 04 40 0a 	add  %l1, %o2, %o2
40005a1c:	9a 10 00 0a 	mov  %o2, %o5
40005a20:	e4 03 60 0c 	ld  [ %o5 + 0xc ], %l2
40005a24:	80 a3 40 12 	cmp  %o5, %l2
40005a28:	32 80 00 0b 	bne,a   40005a54 <_malloc_r+0x304>
40005a2c:	c4 04 a0 04 	ld  [ %l2 + 4 ], %g2
40005a30:	10 80 00 58 	b  40005b90 <_malloc_r+0x440>
40005a34:	96 02 e0 01 	inc  %o3
40005a38:	36 80 00 19 	bge,a   40005a9c <_malloc_r+0x34c>
40005a3c:	c6 04 a0 0c 	ld  [ %l2 + 0xc ], %g3
40005a40:	e4 04 a0 0c 	ld  [ %l2 + 0xc ], %l2
40005a44:	80 a3 40 12 	cmp  %o5, %l2
40005a48:	22 80 00 52 	be,a   40005b90 <_malloc_r+0x440>
40005a4c:	96 02 e0 01 	inc  %o3
40005a50:	c4 04 a0 04 	ld  [ %l2 + 4 ], %g2
40005a54:	84 08 bf fc 	and  %g2, -4, %g2
40005a58:	82 20 80 10 	sub  %g2, %l0, %g1
40005a5c:	80 a0 60 0f 	cmp  %g1, 0xf
40005a60:	04 bf ff f6 	ble  40005a38 <_malloc_r+0x2e8>
40005a64:	80 a0 60 00 	cmp  %g1, 0
40005a68:	da 04 a0 0c 	ld  [ %l2 + 0xc ], %o5
40005a6c:	c8 04 a0 08 	ld  [ %l2 + 8 ], %g4
40005a70:	84 04 80 10 	add  %l2, %l0, %g2
40005a74:	a0 14 20 01 	or  %l0, 1, %l0
40005a78:	c8 23 60 08 	st  %g4, [ %o5 + 8 ]
40005a7c:	da 21 20 0c 	st  %o5, [ %g4 + 0xc ]
40005a80:	c4 20 e0 0c 	st  %g2, [ %g3 + 0xc ]
40005a84:	c4 20 e0 08 	st  %g2, [ %g3 + 8 ]
40005a88:	e0 24 a0 04 	st  %l0, [ %l2 + 4 ]
40005a8c:	c2 20 80 01 	st  %g1, [ %g2 + %g1 ]
40005a90:	c6 20 a0 08 	st  %g3, [ %g2 + 8 ]
40005a94:	10 80 00 10 	b  40005ad4 <_malloc_r+0x384>
40005a98:	c6 20 a0 0c 	st  %g3, [ %g2 + 0xc ]
40005a9c:	c2 04 a0 08 	ld  [ %l2 + 8 ], %g1
40005aa0:	84 04 80 02 	add  %l2, %g2, %g2
40005aa4:	c8 00 a0 04 	ld  [ %g2 + 4 ], %g4
40005aa8:	88 11 20 01 	or  %g4, 1, %g4
40005aac:	c2 20 e0 08 	st  %g1, [ %g3 + 8 ]
40005ab0:	c8 20 a0 04 	st  %g4, [ %g2 + 4 ]
40005ab4:	c6 20 60 0c 	st  %g3, [ %g1 + 0xc ]
40005ab8:	90 10 00 18 	mov  %i0, %o0
40005abc:	40 00 01 e1 	call  40006240 <__malloc_unlock>
40005ac0:	b0 04 a0 08 	add  %l2, 8, %i0
40005ac4:	81 c7 e0 08 	ret 
40005ac8:	81 e8 00 00 	restore 
40005acc:	84 04 80 02 	add  %l2, %g2, %g2
40005ad0:	c2 00 a0 04 	ld  [ %g2 + 4 ], %g1
40005ad4:	82 10 60 01 	or  %g1, 1, %g1
40005ad8:	c2 20 a0 04 	st  %g1, [ %g2 + 4 ]
40005adc:	90 10 00 18 	mov  %i0, %o0
40005ae0:	40 00 01 d8 	call  40006240 <__malloc_unlock>
40005ae4:	b0 04 a0 08 	add  %l2, 8, %i0
40005ae8:	81 c7 e0 08 	ret 
40005aec:	81 e8 00 00 	restore 
40005af0:	98 03 20 38 	add  %o4, 0x38, %o4
40005af4:	10 bf ff 79 	b  400058d8 <_malloc_r+0x188>
40005af8:	87 2b 20 03 	sll  %o4, 3, %g3
40005afc:	89 28 a0 03 	sll  %g2, 3, %g4
40005b00:	88 04 40 04 	add  %l1, %g4, %g4
40005b04:	da 01 20 08 	ld  [ %g4 + 8 ], %o5
40005b08:	d6 04 60 04 	ld  [ %l1 + 4 ], %o3
40005b0c:	c8 24 a0 0c 	st  %g4, [ %l2 + 0xc ]
40005b10:	da 24 a0 08 	st  %o5, [ %l2 + 8 ]
40005b14:	85 38 a0 02 	sra  %g2, 2, %g2
40005b18:	82 10 20 01 	mov  1, %g1
40005b1c:	e4 23 60 0c 	st  %l2, [ %o5 + 0xc ]
40005b20:	83 28 40 02 	sll  %g1, %g2, %g1
40005b24:	e4 21 20 08 	st  %l2, [ %g4 + 8 ]
40005b28:	82 10 40 0b 	or  %g1, %o3, %g1
40005b2c:	10 bf ff b0 	b  400059ec <_malloc_r+0x29c>
40005b30:	c2 24 60 04 	st  %g1, [ %l1 + 4 ]
40005b34:	89 29 20 01 	sll  %g4, 1, %g4
40005b38:	80 88 40 04 	btst  %g1, %g4
40005b3c:	02 bf ff fe 	be  40005b34 <_malloc_r+0x3e4>
40005b40:	98 03 20 04 	add  %o4, 4, %o4
40005b44:	10 bf ff b4 	b  40005a14 <_malloc_r+0x2c4>
40005b48:	95 2b 20 03 	sll  %o4, 3, %o2
40005b4c:	38 bf ff 31 	bgu,a   40005810 <_malloc_r+0xc0>
40005b50:	03 10 00 31 	sethi  %hi(0x4000c400), %g1
40005b54:	e4 04 60 08 	ld  [ %l1 + 8 ], %l2
40005b58:	84 04 80 10 	add  %l2, %l0, %g2
40005b5c:	a0 14 20 01 	or  %l0, 1, %l0
40005b60:	82 10 60 01 	or  %g1, 1, %g1
40005b64:	e0 24 a0 04 	st  %l0, [ %l2 + 4 ]
40005b68:	c2 20 a0 04 	st  %g1, [ %g2 + 4 ]
40005b6c:	90 10 00 18 	mov  %i0, %o0
40005b70:	c4 24 60 08 	st  %g2, [ %l1 + 8 ]
40005b74:	40 00 01 b3 	call  40006240 <__malloc_unlock>
40005b78:	b0 04 a0 08 	add  %l2, 8, %i0
40005b7c:	81 c7 e0 08 	ret 
40005b80:	81 e8 00 00 	restore 
40005b84:	84 04 80 10 	add  %l2, %l0, %g2
40005b88:	10 bf ff be 	b  40005a80 <_malloc_r+0x330>
40005b8c:	a0 14 20 01 	or  %l0, 1, %l0
40005b90:	80 8a e0 03 	btst  3, %o3
40005b94:	12 bf ff a3 	bne  40005a20 <_malloc_r+0x2d0>
40005b98:	9a 04 a0 08 	add  %l2, 8, %o5
40005b9c:	80 8b 20 03 	btst  3, %o4
40005ba0:	02 80 00 9c 	be  40005e10 <_malloc_r+0x6c0>
40005ba4:	82 02 bf f8 	add  %o2, -8, %g1
40005ba8:	d4 00 60 08 	ld  [ %g1 + 8 ], %o2
40005bac:	80 a2 80 01 	cmp  %o2, %g1
40005bb0:	22 bf ff fb 	be,a   40005b9c <_malloc_r+0x44c>
40005bb4:	98 03 3f ff 	add  %o4, -1, %o4
40005bb8:	c2 04 60 04 	ld  [ %l1 + 4 ], %g1
40005bbc:	89 29 20 01 	sll  %g4, 1, %g4
40005bc0:	80 a1 00 01 	cmp  %g4, %g1
40005bc4:	18 bf ff 0b 	bgu  400057f0 <_malloc_r+0xa0>
40005bc8:	80 a1 20 00 	cmp  %g4, 0
40005bcc:	22 bf ff 0a 	be,a   400057f4 <_malloc_r+0xa4>
40005bd0:	e6 04 60 08 	ld  [ %l1 + 8 ], %l3
40005bd4:	80 89 00 01 	btst  %g4, %g1
40005bd8:	22 80 00 92 	be,a   40005e20 <_malloc_r+0x6d0>
40005bdc:	89 29 20 01 	sll  %g4, 1, %g4
40005be0:	10 bf ff 8c 	b  40005a10 <_malloc_r+0x2c0>
40005be4:	98 10 00 0b 	mov  %o3, %o4
40005be8:	82 04 a0 08 	add  %l2, 8, %g1
40005bec:	e4 00 60 0c 	ld  [ %g1 + 0xc ], %l2
40005bf0:	80 a0 40 12 	cmp  %g1, %l2
40005bf4:	02 bf ff 50 	be  40005934 <_malloc_r+0x1e4>
40005bf8:	98 03 20 02 	add  %o4, 2, %o4
40005bfc:	10 bf fe ef 	b  400057b8 <_malloc_r+0x68>
40005c00:	c6 04 a0 04 	ld  [ %l2 + 4 ], %g3
40005c04:	c2 05 a3 d4 	ld  [ %l6 + 0x3d4 ], %g1
40005c08:	82 05 40 01 	add  %l5, %g1, %g1
40005c0c:	80 a0 80 12 	cmp  %g2, %l2
40005c10:	02 80 00 67 	be  40005dac <_malloc_r+0x65c>
40005c14:	c2 25 a3 d4 	st  %g1, [ %l6 + 0x3d4 ]
40005c18:	c6 05 e2 54 	ld  [ %l7 + 0x254 ], %g3
40005c1c:	80 a0 ff ff 	cmp  %g3, -1
40005c20:	22 80 00 6b 	be,a   40005dcc <_malloc_r+0x67c>
40005c24:	03 10 00 31 	sethi  %hi(0x4000c400), %g1
40005c28:	82 04 80 01 	add  %l2, %g1, %g1
40005c2c:	84 20 40 02 	sub  %g1, %g2, %g2
40005c30:	c4 25 a3 d4 	st  %g2, [ %l6 + 0x3d4 ]
40005c34:	84 8c a0 07 	andcc  %l2, 7, %g2
40005c38:	02 80 00 06 	be  40005c50 <_malloc_r+0x500>
40005c3c:	03 00 00 04 	sethi  %hi(0x1000), %g1
40005c40:	82 10 20 08 	mov  8, %g1
40005c44:	82 20 40 02 	sub  %g1, %g2, %g1
40005c48:	a4 04 80 01 	add  %l2, %g1, %l2
40005c4c:	82 20 70 00 	sub  %g1, -4096, %g1
40005c50:	aa 04 80 15 	add  %l2, %l5, %l5
40005c54:	90 10 00 18 	mov  %i0, %o0
40005c58:	aa 0d 6f ff 	and  %l5, 0xfff, %l5
40005c5c:	aa 20 40 15 	sub  %g1, %l5, %l5
40005c60:	40 00 06 4d 	call  40007594 <_sbrk_r>
40005c64:	92 10 00 15 	mov  %l5, %o1
40005c68:	80 a2 3f ff 	cmp  %o0, -1
40005c6c:	02 80 00 60 	be  40005dec <_malloc_r+0x69c>
40005c70:	84 10 20 01 	mov  1, %g2
40005c74:	84 22 00 12 	sub  %o0, %l2, %g2
40005c78:	84 00 80 15 	add  %g2, %l5, %g2
40005c7c:	84 10 a0 01 	or  %g2, 1, %g2
40005c80:	c2 05 a3 d4 	ld  [ %l6 + 0x3d4 ], %g1
40005c84:	82 05 40 01 	add  %l5, %g1, %g1
40005c88:	c2 25 a3 d4 	st  %g1, [ %l6 + 0x3d4 ]
40005c8c:	c4 24 a0 04 	st  %g2, [ %l2 + 4 ]
40005c90:	80 a4 40 13 	cmp  %l1, %l3
40005c94:	02 80 00 10 	be  40005cd4 <_malloc_r+0x584>
40005c98:	e4 24 60 08 	st  %l2, [ %l1 + 8 ]
40005c9c:	80 a5 20 0f 	cmp  %l4, 0xf
40005ca0:	08 80 00 3a 	bleu  40005d88 <_malloc_r+0x638>
40005ca4:	84 05 3f f4 	add  %l4, -12, %g2
40005ca8:	84 08 bf f8 	and  %g2, -8, %g2
40005cac:	86 04 c0 02 	add  %l3, %g2, %g3
40005cb0:	c8 04 e0 04 	ld  [ %l3 + 4 ], %g4
40005cb4:	88 09 20 01 	and  %g4, 1, %g4
40005cb8:	88 10 80 04 	or  %g2, %g4, %g4
40005cbc:	c8 24 e0 04 	st  %g4, [ %l3 + 4 ]
40005cc0:	88 10 20 05 	mov  5, %g4
40005cc4:	c8 20 e0 08 	st  %g4, [ %g3 + 8 ]
40005cc8:	80 a0 a0 0f 	cmp  %g2, 0xf
40005ccc:	18 80 00 42 	bgu  40005dd4 <_malloc_r+0x684>
40005cd0:	c8 20 e0 04 	st  %g4, [ %g3 + 4 ]
40005cd4:	05 10 00 31 	sethi  %hi(0x4000c400), %g2
40005cd8:	c6 00 a3 cc 	ld  [ %g2 + 0x3cc ], %g3	! 4000c7cc <__malloc_max_sbrked_mem>
40005cdc:	80 a0 40 03 	cmp  %g1, %g3
40005ce0:	38 80 00 02 	bgu,a   40005ce8 <_malloc_r+0x598>
40005ce4:	c2 20 a3 cc 	st  %g1, [ %g2 + 0x3cc ]
40005ce8:	05 10 00 31 	sethi  %hi(0x4000c400), %g2
40005cec:	c6 00 a3 d0 	ld  [ %g2 + 0x3d0 ], %g3	! 4000c7d0 <__malloc_max_total_mem>
40005cf0:	80 a0 40 03 	cmp  %g1, %g3
40005cf4:	38 bf fe dd 	bgu,a   40005868 <_malloc_r+0x118>
40005cf8:	c2 20 a3 d0 	st  %g1, [ %g2 + 0x3d0 ]
40005cfc:	10 bf fe dc 	b  4000586c <_malloc_r+0x11c>
40005d00:	c2 04 60 08 	ld  [ %l1 + 8 ], %g1
40005d04:	28 bf ff 95 	bleu,a   40005b58 <_malloc_r+0x408>
40005d08:	e4 04 60 08 	ld  [ %l1 + 8 ], %l2
40005d0c:	30 bf fe de 	b,a   40005884 <_malloc_r+0x134>
40005d10:	18 80 00 17 	bgu  40005d6c <_malloc_r+0x61c>
40005d14:	80 a0 65 54 	cmp  %g1, 0x554
40005d18:	99 34 20 0f 	srl  %l0, 0xf, %o4
40005d1c:	98 03 20 77 	add  %o4, 0x77, %o4
40005d20:	10 bf fe ee 	b  400058d8 <_malloc_r+0x188>
40005d24:	87 2b 20 03 	sll  %o4, 3, %g3
40005d28:	80 a0 60 14 	cmp  %g1, 0x14
40005d2c:	08 bf ff 1b 	bleu  40005998 <_malloc_r+0x248>
40005d30:	9b 29 20 03 	sll  %g4, 3, %o5
40005d34:	80 a0 60 54 	cmp  %g1, 0x54
40005d38:	18 80 00 17 	bgu  40005d94 <_malloc_r+0x644>
40005d3c:	80 a0 61 54 	cmp  %g1, 0x154
40005d40:	89 30 a0 0c 	srl  %g2, 0xc, %g4
40005d44:	88 01 20 6e 	add  %g4, 0x6e, %g4
40005d48:	10 bf ff 14 	b  40005998 <_malloc_r+0x248>
40005d4c:	9b 29 20 03 	sll  %g4, 3, %o5
40005d50:	89 39 20 02 	sra  %g4, 2, %g4
40005d54:	84 10 20 01 	mov  1, %g2
40005d58:	85 28 80 04 	sll  %g2, %g4, %g2
40005d5c:	84 13 40 02 	or  %o5, %g2, %g2
40005d60:	c4 24 60 04 	st  %g2, [ %l1 + 4 ]
40005d64:	10 bf ff 1d 	b  400059d8 <_malloc_r+0x288>
40005d68:	84 10 00 01 	mov  %g1, %g2
40005d6c:	86 10 23 f0 	mov  0x3f0, %g3
40005d70:	18 bf fe da 	bgu  400058d8 <_malloc_r+0x188>
40005d74:	98 10 20 7e 	mov  0x7e, %o4
40005d78:	99 34 20 12 	srl  %l0, 0x12, %o4
40005d7c:	98 03 20 7c 	add  %o4, 0x7c, %o4
40005d80:	10 bf fe d6 	b  400058d8 <_malloc_r+0x188>
40005d84:	87 2b 20 03 	sll  %o4, 3, %g3
40005d88:	82 10 20 01 	mov  1, %g1
40005d8c:	10 bf fe b7 	b  40005868 <_malloc_r+0x118>
40005d90:	c2 24 a0 04 	st  %g1, [ %l2 + 4 ]
40005d94:	18 80 00 18 	bgu  40005df4 <_malloc_r+0x6a4>
40005d98:	80 a0 65 54 	cmp  %g1, 0x554
40005d9c:	89 30 a0 0f 	srl  %g2, 0xf, %g4
40005da0:	88 01 20 77 	add  %g4, 0x77, %g4
40005da4:	10 bf fe fd 	b  40005998 <_malloc_r+0x248>
40005da8:	9b 29 20 03 	sll  %g4, 3, %o5
40005dac:	80 88 af ff 	btst  0xfff, %g2
40005db0:	12 bf ff 9b 	bne  40005c1c <_malloc_r+0x4cc>
40005db4:	c6 05 e2 54 	ld  [ %l7 + 0x254 ], %g3
40005db8:	c4 04 60 08 	ld  [ %l1 + 8 ], %g2
40005dbc:	86 05 40 14 	add  %l5, %l4, %g3
40005dc0:	86 10 e0 01 	or  %g3, 1, %g3
40005dc4:	10 bf ff c4 	b  40005cd4 <_malloc_r+0x584>
40005dc8:	c6 20 a0 04 	st  %g3, [ %g2 + 4 ]
40005dcc:	10 bf ff 9a 	b  40005c34 <_malloc_r+0x4e4>
40005dd0:	e4 20 62 54 	st  %l2, [ %g1 + 0x254 ]
40005dd4:	92 04 e0 08 	add  %l3, 8, %o1
40005dd8:	7f ff fb ac 	call  40004c88 <_free_r>
40005ddc:	90 10 00 18 	mov  %i0, %o0
40005de0:	03 10 00 31 	sethi  %hi(0x4000c400), %g1
40005de4:	10 bf ff bc 	b  40005cd4 <_malloc_r+0x584>
40005de8:	c2 00 63 d4 	ld  [ %g1 + 0x3d4 ], %g1	! 4000c7d4 <__malloc_current_mallinfo>
40005dec:	10 bf ff a5 	b  40005c80 <_malloc_r+0x530>
40005df0:	aa 10 20 00 	clr  %l5
40005df4:	9a 10 23 f0 	mov  0x3f0, %o5
40005df8:	18 bf fe e8 	bgu  40005998 <_malloc_r+0x248>
40005dfc:	88 10 20 7e 	mov  0x7e, %g4
40005e00:	89 30 a0 12 	srl  %g2, 0x12, %g4
40005e04:	88 01 20 7c 	add  %g4, 0x7c, %g4
40005e08:	10 bf fe e4 	b  40005998 <_malloc_r+0x248>
40005e0c:	9b 29 20 03 	sll  %g4, 3, %o5
40005e10:	c2 04 60 04 	ld  [ %l1 + 4 ], %g1
40005e14:	82 28 40 04 	andn  %g1, %g4, %g1
40005e18:	10 bf ff 68 	b  40005bb8 <_malloc_r+0x468>
40005e1c:	c2 24 60 04 	st  %g1, [ %l1 + 4 ]
40005e20:	10 bf ff 6d 	b  40005bd4 <_malloc_r+0x484>
40005e24:	96 02 e0 04 	add  %o3, 4, %o3

40005e28 <memchr>:
40005e28:	9d e3 bf a0 	save  %sp, -96, %sp
40005e2c:	b2 0e 60 ff 	and  %i1, 0xff, %i1
40005e30:	80 a6 a0 03 	cmp  %i2, 3
40005e34:	08 80 00 29 	bleu  40005ed8 <memchr+0xb0>
40005e38:	82 10 00 18 	mov  %i0, %g1
40005e3c:	80 8e 20 03 	btst  3, %i0
40005e40:	12 80 00 2e 	bne  40005ef8 <memchr+0xd0>
40005e44:	9b 2e 60 08 	sll  %i1, 8, %o5
40005e48:	09 3f bf bf 	sethi  %hi(0xfefefc00), %g4
40005e4c:	9a 03 40 19 	add  %o5, %i1, %o5
40005e50:	07 20 20 20 	sethi  %hi(0x80808000), %g3
40005e54:	9b 2b 60 08 	sll  %o5, 8, %o5
40005e58:	88 11 22 ff 	or  %g4, 0x2ff, %g4
40005e5c:	9a 03 40 19 	add  %o5, %i1, %o5
40005e60:	86 10 e0 80 	or  %g3, 0x80, %g3
40005e64:	9b 2b 60 08 	sll  %o5, 8, %o5
40005e68:	9a 03 40 19 	add  %o5, %i1, %o5
40005e6c:	c2 06 00 00 	ld  [ %i0 ], %g1
40005e70:	82 1b 40 01 	xor  %o5, %g1, %g1
40005e74:	84 00 40 04 	add  %g1, %g4, %g2
40005e78:	82 28 80 01 	andn  %g2, %g1, %g1
40005e7c:	80 88 40 03 	btst  %g1, %g3
40005e80:	02 80 00 12 	be  40005ec8 <memchr+0xa0>
40005e84:	b4 06 bf fc 	add  %i2, -4, %i2
40005e88:	c2 0e 00 00 	ldub  [ %i0 ], %g1
40005e8c:	80 a0 40 19 	cmp  %g1, %i1
40005e90:	02 80 00 20 	be  40005f10 <memchr+0xe8>
40005e94:	01 00 00 00 	nop 
40005e98:	c2 0e 20 01 	ldub  [ %i0 + 1 ], %g1
40005e9c:	80 a0 40 19 	cmp  %g1, %i1
40005ea0:	02 80 00 1a 	be  40005f08 <memchr+0xe0>
40005ea4:	82 06 20 01 	add  %i0, 1, %g1
40005ea8:	c2 0e 20 02 	ldub  [ %i0 + 2 ], %g1
40005eac:	80 a0 40 19 	cmp  %g1, %i1
40005eb0:	02 80 00 16 	be  40005f08 <memchr+0xe0>
40005eb4:	82 06 20 02 	add  %i0, 2, %g1
40005eb8:	c2 0e 20 03 	ldub  [ %i0 + 3 ], %g1
40005ebc:	80 a0 40 19 	cmp  %g1, %i1
40005ec0:	02 80 00 12 	be  40005f08 <memchr+0xe0>
40005ec4:	82 06 20 03 	add  %i0, 3, %g1
40005ec8:	80 a6 a0 03 	cmp  %i2, 3
40005ecc:	18 bf ff e8 	bgu  40005e6c <memchr+0x44>
40005ed0:	b0 06 20 04 	add  %i0, 4, %i0
40005ed4:	82 10 00 18 	mov  %i0, %g1
40005ed8:	80 a6 a0 00 	cmp  %i2, 0
40005edc:	32 80 00 08 	bne,a   40005efc <memchr+0xd4>
40005ee0:	c4 08 40 00 	ldub  [ %g1 ], %g2
40005ee4:	81 c7 e0 08 	ret 
40005ee8:	91 e8 20 00 	restore  %g0, 0, %o0
40005eec:	80 a6 a0 00 	cmp  %i2, 0
40005ef0:	02 bf ff fd 	be  40005ee4 <memchr+0xbc>
40005ef4:	82 00 60 01 	inc  %g1
40005ef8:	c4 08 40 00 	ldub  [ %g1 ], %g2
40005efc:	80 a0 80 19 	cmp  %g2, %i1
40005f00:	12 bf ff fb 	bne  40005eec <memchr+0xc4>
40005f04:	b4 06 bf ff 	add  %i2, -1, %i2
40005f08:	81 c7 e0 08 	ret 
40005f0c:	91 e8 00 01 	restore  %g0, %g1, %o0
40005f10:	81 c7 e0 08 	ret 
40005f14:	81 e8 00 00 	restore 

40005f18 <memcpy>:
40005f18:	9d e3 bf a0 	save  %sp, -96, %sp
40005f1c:	80 a6 a0 0f 	cmp  %i2, 0xf
40005f20:	9a 10 00 18 	mov  %i0, %o5
40005f24:	88 10 00 19 	mov  %i1, %g4
40005f28:	08 80 00 06 	bleu  40005f40 <memcpy+0x28>
40005f2c:	86 10 00 1a 	mov  %i2, %g3
40005f30:	82 16 40 18 	or  %i1, %i0, %g1
40005f34:	80 88 60 03 	btst  3, %g1
40005f38:	02 80 00 0d 	be  40005f6c <memcpy+0x54>
40005f3c:	84 10 00 19 	mov  %i1, %g2
40005f40:	80 a0 e0 00 	cmp  %g3, 0
40005f44:	02 80 00 08 	be  40005f64 <memcpy+0x4c>
40005f48:	82 10 20 00 	clr  %g1
40005f4c:	c4 09 00 01 	ldub  [ %g4 + %g1 ], %g2
40005f50:	c4 2b 40 01 	stb  %g2, [ %o5 + %g1 ]
40005f54:	82 00 60 01 	inc  %g1
40005f58:	80 a0 40 03 	cmp  %g1, %g3
40005f5c:	32 bf ff fd 	bne,a   40005f50 <memcpy+0x38>
40005f60:	c4 09 00 01 	ldub  [ %g4 + %g1 ], %g2
40005f64:	81 c7 e0 08 	ret 
40005f68:	81 e8 00 00 	restore 
40005f6c:	82 10 00 18 	mov  %i0, %g1
40005f70:	da 00 80 00 	ld  [ %g2 ], %o5
40005f74:	da 20 40 00 	st  %o5, [ %g1 ]
40005f78:	86 00 ff f0 	add  %g3, -16, %g3
40005f7c:	80 a0 e0 0f 	cmp  %g3, 0xf
40005f80:	da 00 a0 04 	ld  [ %g2 + 4 ], %o5
40005f84:	da 20 60 04 	st  %o5, [ %g1 + 4 ]
40005f88:	da 00 a0 08 	ld  [ %g2 + 8 ], %o5
40005f8c:	da 20 60 08 	st  %o5, [ %g1 + 8 ]
40005f90:	da 00 a0 0c 	ld  [ %g2 + 0xc ], %o5
40005f94:	da 20 60 0c 	st  %o5, [ %g1 + 0xc ]
40005f98:	84 00 a0 10 	add  %g2, 0x10, %g2
40005f9c:	18 bf ff f5 	bgu  40005f70 <memcpy+0x58>
40005fa0:	82 00 60 10 	add  %g1, 0x10, %g1
40005fa4:	b4 06 bf f0 	add  %i2, -16, %i2
40005fa8:	9b 36 a0 04 	srl  %i2, 4, %o5
40005fac:	83 2b 60 04 	sll  %o5, 4, %g1
40005fb0:	9a 03 60 01 	inc  %o5
40005fb4:	b4 26 80 01 	sub  %i2, %g1, %i2
40005fb8:	9b 2b 60 04 	sll  %o5, 4, %o5
40005fbc:	80 a6 a0 03 	cmp  %i2, 3
40005fc0:	88 06 40 0d 	add  %i1, %o5, %g4
40005fc4:	86 10 00 1a 	mov  %i2, %g3
40005fc8:	08 bf ff de 	bleu  40005f40 <memcpy+0x28>
40005fcc:	9a 06 00 0d 	add  %i0, %o5, %o5
40005fd0:	82 10 20 00 	clr  %g1
40005fd4:	c4 01 00 01 	ld  [ %g4 + %g1 ], %g2
40005fd8:	c4 23 40 01 	st  %g2, [ %o5 + %g1 ]
40005fdc:	82 00 60 04 	add  %g1, 4, %g1
40005fe0:	84 26 80 01 	sub  %i2, %g1, %g2
40005fe4:	80 a0 a0 03 	cmp  %g2, 3
40005fe8:	38 bf ff fc 	bgu,a   40005fd8 <memcpy+0xc0>
40005fec:	c4 01 00 01 	ld  [ %g4 + %g1 ], %g2
40005ff0:	b4 06 bf fc 	add  %i2, -4, %i2
40005ff4:	83 36 a0 02 	srl  %i2, 2, %g1
40005ff8:	87 28 60 02 	sll  %g1, 2, %g3
40005ffc:	82 00 60 01 	inc  %g1
40006000:	86 26 80 03 	sub  %i2, %g3, %g3
40006004:	83 28 60 02 	sll  %g1, 2, %g1
40006008:	88 01 00 01 	add  %g4, %g1, %g4
4000600c:	10 bf ff cd 	b  40005f40 <memcpy+0x28>
40006010:	9a 03 40 01 	add  %o5, %g1, %o5

40006014 <memmove>:
40006014:	9d e3 bf a0 	save  %sp, -96, %sp
40006018:	80 a6 00 19 	cmp  %i0, %i1
4000601c:	9a 10 00 18 	mov  %i0, %o5
40006020:	88 10 00 19 	mov  %i1, %g4
40006024:	08 80 00 13 	bleu  40006070 <memmove+0x5c>
40006028:	86 10 00 1a 	mov  %i2, %g3
4000602c:	82 06 40 1a 	add  %i1, %i2, %g1
40006030:	80 a6 00 01 	cmp  %i0, %g1
40006034:	1a 80 00 10 	bcc  40006074 <memmove+0x60>
40006038:	80 a6 a0 0f 	cmp  %i2, 0xf
4000603c:	80 a6 a0 00 	cmp  %i2, 0
40006040:	02 80 00 0a 	be  40006068 <memmove+0x54>
40006044:	86 06 bf ff 	add  %i2, -1, %g3
40006048:	84 06 00 1a 	add  %i0, %i2, %g2
4000604c:	82 00 7f ff 	add  %g1, -1, %g1
40006050:	c8 08 40 00 	ldub  [ %g1 ], %g4
40006054:	84 00 bf ff 	add  %g2, -1, %g2
40006058:	86 00 ff ff 	add  %g3, -1, %g3
4000605c:	80 a0 ff ff 	cmp  %g3, -1
40006060:	12 bf ff fb 	bne  4000604c <memmove+0x38>
40006064:	c8 28 80 00 	stb  %g4, [ %g2 ]
40006068:	81 c7 e0 08 	ret 
4000606c:	81 e8 00 00 	restore 
40006070:	80 a6 a0 0f 	cmp  %i2, 0xf
40006074:	18 80 00 0d 	bgu  400060a8 <memmove+0x94>
40006078:	82 16 40 18 	or  %i1, %i0, %g1
4000607c:	80 a0 e0 00 	cmp  %g3, 0
40006080:	02 bf ff fa 	be  40006068 <memmove+0x54>
40006084:	82 10 20 00 	clr  %g1
40006088:	c4 09 00 01 	ldub  [ %g4 + %g1 ], %g2
4000608c:	c4 2b 40 01 	stb  %g2, [ %o5 + %g1 ]
40006090:	82 00 60 01 	inc  %g1
40006094:	80 a0 40 03 	cmp  %g1, %g3
40006098:	32 bf ff fd 	bne,a   4000608c <memmove+0x78>
4000609c:	c4 09 00 01 	ldub  [ %g4 + %g1 ], %g2
400060a0:	81 c7 e0 08 	ret 
400060a4:	81 e8 00 00 	restore 
400060a8:	80 88 60 03 	btst  3, %g1
400060ac:	12 bf ff f5 	bne  40006080 <memmove+0x6c>
400060b0:	80 a0 e0 00 	cmp  %g3, 0
400060b4:	86 10 00 1a 	mov  %i2, %g3
400060b8:	84 10 00 19 	mov  %i1, %g2
400060bc:	82 10 00 18 	mov  %i0, %g1
400060c0:	c8 00 80 00 	ld  [ %g2 ], %g4
400060c4:	c8 20 40 00 	st  %g4, [ %g1 ]
400060c8:	86 00 ff f0 	add  %g3, -16, %g3
400060cc:	80 a0 e0 0f 	cmp  %g3, 0xf
400060d0:	c8 00 a0 04 	ld  [ %g2 + 4 ], %g4
400060d4:	c8 20 60 04 	st  %g4, [ %g1 + 4 ]
400060d8:	c8 00 a0 08 	ld  [ %g2 + 8 ], %g4
400060dc:	c8 20 60 08 	st  %g4, [ %g1 + 8 ]
400060e0:	c8 00 a0 0c 	ld  [ %g2 + 0xc ], %g4
400060e4:	c8 20 60 0c 	st  %g4, [ %g1 + 0xc ]
400060e8:	84 00 a0 10 	add  %g2, 0x10, %g2
400060ec:	18 bf ff f5 	bgu  400060c0 <memmove+0xac>
400060f0:	82 00 60 10 	add  %g1, 0x10, %g1
400060f4:	b4 06 bf f0 	add  %i2, -16, %i2
400060f8:	9b 36 a0 04 	srl  %i2, 4, %o5
400060fc:	83 2b 60 04 	sll  %o5, 4, %g1
40006100:	9a 03 60 01 	inc  %o5
40006104:	b4 26 80 01 	sub  %i2, %g1, %i2
40006108:	9b 2b 60 04 	sll  %o5, 4, %o5
4000610c:	80 a6 a0 03 	cmp  %i2, 3
40006110:	88 06 40 0d 	add  %i1, %o5, %g4
40006114:	86 10 00 1a 	mov  %i2, %g3
40006118:	08 bf ff d9 	bleu  4000607c <memmove+0x68>
4000611c:	9a 06 00 0d 	add  %i0, %o5, %o5
40006120:	82 10 20 00 	clr  %g1
40006124:	c4 01 00 01 	ld  [ %g4 + %g1 ], %g2
40006128:	c4 23 40 01 	st  %g2, [ %o5 + %g1 ]
4000612c:	82 00 60 04 	add  %g1, 4, %g1
40006130:	84 26 80 01 	sub  %i2, %g1, %g2
40006134:	80 a0 a0 03 	cmp  %g2, 3
40006138:	38 bf ff fc 	bgu,a   40006128 <memmove+0x114>
4000613c:	c4 01 00 01 	ld  [ %g4 + %g1 ], %g2
40006140:	b4 06 bf fc 	add  %i2, -4, %i2
40006144:	83 36 a0 02 	srl  %i2, 2, %g1
40006148:	87 28 60 02 	sll  %g1, 2, %g3
4000614c:	82 00 60 01 	inc  %g1
40006150:	86 26 80 03 	sub  %i2, %g3, %g3
40006154:	83 28 60 02 	sll  %g1, 2, %g1
40006158:	88 01 00 01 	add  %g4, %g1, %g4
4000615c:	10 bf ff c8 	b  4000607c <memmove+0x68>
40006160:	9a 03 40 01 	add  %o5, %g1, %o5

40006164 <memset>:
40006164:	9d e3 bf a0 	save  %sp, -96, %sp
40006168:	86 0e 60 ff 	and  %i1, 0xff, %g3
4000616c:	80 a6 a0 03 	cmp  %i2, 3
40006170:	08 80 00 2a 	bleu  40006218 <memset+0xb4>
40006174:	84 10 00 18 	mov  %i0, %g2
40006178:	80 8e 20 03 	btst  3, %i0
4000617c:	32 80 00 2a 	bne,a   40006224 <memset+0xc0>
40006180:	82 10 20 00 	clr  %g1
40006184:	83 28 e0 08 	sll  %g3, 8, %g1
40006188:	82 10 40 03 	or  %g1, %g3, %g1
4000618c:	80 a6 a0 0f 	cmp  %i2, 0xf
40006190:	85 28 60 10 	sll  %g1, 0x10, %g2
40006194:	9a 10 00 18 	mov  %i0, %o5
40006198:	84 10 80 01 	or  %g2, %g1, %g2
4000619c:	88 10 00 1a 	mov  %i2, %g4
400061a0:	08 80 00 11 	bleu  400061e4 <memset+0x80>
400061a4:	82 10 00 18 	mov  %i0, %g1
400061a8:	c4 20 40 00 	st  %g2, [ %g1 ]
400061ac:	c4 20 60 04 	st  %g2, [ %g1 + 4 ]
400061b0:	c4 20 60 08 	st  %g2, [ %g1 + 8 ]
400061b4:	c4 20 60 0c 	st  %g2, [ %g1 + 0xc ]
400061b8:	88 01 3f f0 	add  %g4, -16, %g4
400061bc:	80 a1 20 0f 	cmp  %g4, 0xf
400061c0:	18 bf ff fa 	bgu  400061a8 <memset+0x44>
400061c4:	82 00 60 10 	add  %g1, 0x10, %g1
400061c8:	82 06 bf f0 	add  %i2, -16, %g1
400061cc:	b4 08 60 0f 	and  %g1, 0xf, %i2
400061d0:	9a 08 7f f0 	and  %g1, -16, %o5
400061d4:	80 a6 a0 03 	cmp  %i2, 3
400061d8:	9a 03 60 10 	add  %o5, 0x10, %o5
400061dc:	08 80 00 0e 	bleu  40006214 <memset+0xb0>
400061e0:	9a 06 00 0d 	add  %i0, %o5, %o5
400061e4:	82 10 20 00 	clr  %g1
400061e8:	c4 23 40 01 	st  %g2, [ %o5 + %g1 ]
400061ec:	82 00 60 04 	add  %g1, 4, %g1
400061f0:	88 26 80 01 	sub  %i2, %g1, %g4
400061f4:	80 a1 20 03 	cmp  %g4, 3
400061f8:	38 bf ff fd 	bgu,a   400061ec <memset+0x88>
400061fc:	c4 23 40 01 	st  %g2, [ %o5 + %g1 ]
40006200:	82 06 bf fc 	add  %i2, -4, %g1
40006204:	b4 08 60 03 	and  %g1, 3, %i2
40006208:	82 08 7f fc 	and  %g1, -4, %g1
4000620c:	82 00 60 04 	add  %g1, 4, %g1
40006210:	9a 03 40 01 	add  %o5, %g1, %o5
40006214:	84 10 00 0d 	mov  %o5, %g2
40006218:	80 a6 a0 00 	cmp  %i2, 0
4000621c:	02 80 00 07 	be  40006238 <memset+0xd4>
40006220:	82 10 20 00 	clr  %g1
40006224:	c6 28 80 01 	stb  %g3, [ %g2 + %g1 ]
40006228:	82 00 60 01 	inc  %g1
4000622c:	80 a0 40 1a 	cmp  %g1, %i2
40006230:	32 bf ff fe 	bne,a   40006228 <memset+0xc4>
40006234:	c6 28 80 01 	stb  %g3, [ %g2 + %g1 ]
40006238:	81 c7 e0 08 	ret 
4000623c:	81 e8 00 00 	restore 

40006240 <__malloc_unlock>:
40006240:	11 10 00 31 	sethi  %hi(0x4000c400), %o0
40006244:	90 12 22 58 	or  %o0, 0x258, %o0	! 4000c658 <__malloc_lock_object>
40006248:	82 13 c0 00 	mov  %o7, %g1
4000624c:	40 00 0e b3 	call  40009d18 <___st_pthread_mutex_unlock>
40006250:	9e 10 40 00 	mov  %g1, %o7
40006254:	01 00 00 00 	nop 

40006258 <__malloc_lock>:
40006258:	11 10 00 31 	sethi  %hi(0x4000c400), %o0
4000625c:	90 12 22 58 	or  %o0, 0x258, %o0	! 4000c658 <__malloc_lock_object>
40006260:	82 13 c0 00 	mov  %o7, %g1
40006264:	40 00 0e 97 	call  40009cc0 <___st_pthread_mutex_lock>
40006268:	9e 10 40 00 	mov  %g1, %o7
4000626c:	01 00 00 00 	nop 

40006270 <_Bfree>:
40006270:	80 a2 60 00 	cmp  %o1, 0
40006274:	02 80 00 08 	be  40006294 <_Bfree+0x24>
40006278:	01 00 00 00 	nop 
4000627c:	c4 02 20 4c 	ld  [ %o0 + 0x4c ], %g2
40006280:	c2 02 60 04 	ld  [ %o1 + 4 ], %g1
40006284:	83 28 60 02 	sll  %g1, 2, %g1
40006288:	c6 00 80 01 	ld  [ %g2 + %g1 ], %g3
4000628c:	c6 22 40 00 	st  %g3, [ %o1 ]
40006290:	d2 20 80 01 	st  %o1, [ %g2 + %g1 ]
40006294:	81 c3 e0 08 	retl 
40006298:	01 00 00 00 	nop 

4000629c <_hi0bits>:
4000629c:	82 10 00 08 	mov  %o0, %g1
400062a0:	05 3f ff c0 	sethi  %hi(0xffff0000), %g2
400062a4:	80 8a 00 02 	btst  %o0, %g2
400062a8:	12 80 00 04 	bne  400062b8 <_hi0bits+0x1c>
400062ac:	90 10 20 00 	clr  %o0
400062b0:	83 28 60 10 	sll  %g1, 0x10, %g1
400062b4:	90 10 20 10 	mov  0x10, %o0
400062b8:	05 3f c0 00 	sethi  %hi(0xff000000), %g2
400062bc:	80 88 40 02 	btst  %g1, %g2
400062c0:	12 80 00 04 	bne  400062d0 <_hi0bits+0x34>
400062c4:	05 3c 00 00 	sethi  %hi(0xf0000000), %g2
400062c8:	90 02 20 08 	add  %o0, 8, %o0
400062cc:	83 28 60 08 	sll  %g1, 8, %g1
400062d0:	80 88 40 02 	btst  %g1, %g2
400062d4:	12 80 00 04 	bne  400062e4 <_hi0bits+0x48>
400062d8:	05 30 00 00 	sethi  %hi(0xc0000000), %g2
400062dc:	90 02 20 04 	add  %o0, 4, %o0
400062e0:	83 28 60 04 	sll  %g1, 4, %g1
400062e4:	80 88 40 02 	btst  %g1, %g2
400062e8:	12 80 00 05 	bne  400062fc <_hi0bits+0x60>
400062ec:	80 a0 60 00 	cmp  %g1, 0
400062f0:	90 02 20 02 	add  %o0, 2, %o0
400062f4:	83 28 60 02 	sll  %g1, 2, %g1
400062f8:	80 a0 60 00 	cmp  %g1, 0
400062fc:	06 80 00 05 	bl  40006310 <_hi0bits+0x74>
40006300:	05 10 00 00 	sethi  %hi(0x40000000), %g2
40006304:	80 88 40 02 	btst  %g1, %g2
40006308:	02 80 00 04 	be  40006318 <_hi0bits+0x7c>
4000630c:	90 02 20 01 	inc  %o0
40006310:	81 c3 e0 08 	retl 
40006314:	01 00 00 00 	nop 
40006318:	81 c3 e0 08 	retl 
4000631c:	90 10 20 20 	mov  0x20, %o0	! 20 <_trap_table-0x3fffffe0>

40006320 <_lo0bits>:
40006320:	c2 02 00 00 	ld  [ %o0 ], %g1
40006324:	80 88 60 07 	btst  7, %g1
40006328:	02 80 00 0c 	be  40006358 <_lo0bits+0x38>
4000632c:	05 00 00 3f 	sethi  %hi(0xfc00), %g2
40006330:	80 88 60 01 	btst  1, %g1
40006334:	12 80 00 07 	bne  40006350 <_lo0bits+0x30>
40006338:	84 10 20 00 	clr  %g2
4000633c:	80 88 60 02 	btst  2, %g1
40006340:	12 80 00 2c 	bne  400063f0 <_lo0bits+0xd0>
40006344:	84 10 20 02 	mov  2, %g2
40006348:	83 30 60 02 	srl  %g1, 2, %g1
4000634c:	c2 22 00 00 	st  %g1, [ %o0 ]
40006350:	81 c3 e0 08 	retl 
40006354:	90 10 00 02 	mov  %g2, %o0
40006358:	84 10 a3 ff 	or  %g2, 0x3ff, %g2
4000635c:	80 88 40 02 	btst  %g1, %g2
40006360:	02 80 00 1b 	be  400063cc <_lo0bits+0xac>
40006364:	84 10 20 00 	clr  %g2
40006368:	80 88 60 ff 	btst  0xff, %g1
4000636c:	12 80 00 05 	bne  40006380 <_lo0bits+0x60>
40006370:	80 88 60 0f 	btst  0xf, %g1
40006374:	84 00 a0 08 	add  %g2, 8, %g2
40006378:	83 30 60 08 	srl  %g1, 8, %g1
4000637c:	80 88 60 0f 	btst  0xf, %g1
40006380:	12 80 00 05 	bne  40006394 <_lo0bits+0x74>
40006384:	80 88 60 03 	btst  3, %g1
40006388:	84 00 a0 04 	add  %g2, 4, %g2
4000638c:	83 30 60 04 	srl  %g1, 4, %g1
40006390:	80 88 60 03 	btst  3, %g1
40006394:	12 80 00 05 	bne  400063a8 <_lo0bits+0x88>
40006398:	80 88 60 01 	btst  1, %g1
4000639c:	84 00 a0 02 	add  %g2, 2, %g2
400063a0:	83 30 60 02 	srl  %g1, 2, %g1
400063a4:	80 88 60 01 	btst  1, %g1
400063a8:	32 80 00 07 	bne,a   400063c4 <_lo0bits+0xa4>
400063ac:	c2 22 00 00 	st  %g1, [ %o0 ]
400063b0:	83 30 60 01 	srl  %g1, 1, %g1
400063b4:	80 a0 60 00 	cmp  %g1, 0
400063b8:	02 80 00 0b 	be  400063e4 <_lo0bits+0xc4>
400063bc:	84 00 a0 01 	inc  %g2
400063c0:	c2 22 00 00 	st  %g1, [ %o0 ]
400063c4:	81 c3 e0 08 	retl 
400063c8:	90 10 00 02 	mov  %g2, %o0
400063cc:	83 30 60 10 	srl  %g1, 0x10, %g1
400063d0:	80 88 60 ff 	btst  0xff, %g1
400063d4:	12 bf ff ea 	bne  4000637c <_lo0bits+0x5c>
400063d8:	84 10 20 10 	mov  0x10, %g2
400063dc:	10 bf ff e7 	b  40006378 <_lo0bits+0x58>
400063e0:	84 00 a0 08 	add  %g2, 8, %g2
400063e4:	84 10 20 20 	mov  0x20, %g2
400063e8:	81 c3 e0 08 	retl 
400063ec:	90 10 00 02 	mov  %g2, %o0
400063f0:	83 30 60 01 	srl  %g1, 1, %g1
400063f4:	84 10 20 01 	mov  1, %g2
400063f8:	c2 22 00 00 	st  %g1, [ %o0 ]
400063fc:	81 c3 e0 08 	retl 
40006400:	90 10 00 02 	mov  %g2, %o0

40006404 <__mcmp>:
40006404:	9d e3 bf a0 	save  %sp, -96, %sp
40006408:	82 10 00 18 	mov  %i0, %g1
4000640c:	c4 06 60 10 	ld  [ %i1 + 0x10 ], %g2
40006410:	f0 06 20 10 	ld  [ %i0 + 0x10 ], %i0
40006414:	b0 a6 00 02 	subcc  %i0, %g2, %i0
40006418:	12 80 00 11 	bne  4000645c <__mcmp+0x58>
4000641c:	84 00 a0 04 	add  %g2, 4, %g2
40006420:	85 28 a0 02 	sll  %g2, 2, %g2
40006424:	86 06 40 02 	add  %i1, %g2, %g3
40006428:	84 00 40 02 	add  %g1, %g2, %g2
4000642c:	86 00 e0 04 	add  %g3, 4, %g3
40006430:	84 00 a0 04 	add  %g2, 4, %g2
40006434:	82 00 60 14 	add  %g1, 0x14, %g1
40006438:	84 00 bf fc 	add  %g2, -4, %g2
4000643c:	86 00 ff fc 	add  %g3, -4, %g3
40006440:	da 00 80 00 	ld  [ %g2 ], %o5
40006444:	c8 00 c0 00 	ld  [ %g3 ], %g4
40006448:	80 a3 40 04 	cmp  %o5, %g4
4000644c:	12 80 00 06 	bne  40006464 <__mcmp+0x60>
40006450:	80 a0 40 02 	cmp  %g1, %g2
40006454:	0a bf ff fa 	bcs  4000643c <__mcmp+0x38>
40006458:	84 00 bf fc 	add  %g2, -4, %g2
4000645c:	81 c7 e0 08 	ret 
40006460:	81 e8 00 00 	restore 
40006464:	80 a3 40 04 	cmp  %o5, %g4
40006468:	b0 60 20 00 	subx  %g0, 0, %i0
4000646c:	b0 16 20 01 	or  %i0, 1, %i0
40006470:	81 c7 e0 08 	ret 
40006474:	81 e8 00 00 	restore 

40006478 <_ulp>:
40006478:	03 1f fc 00 	sethi  %hi(0x7ff00000), %g1
4000647c:	05 3f 30 00 	sethi  %hi(0xfcc00000), %g2
40006480:	82 0a 00 01 	and  %o0, %g1, %g1
40006484:	82 00 40 02 	add  %g1, %g2, %g1
40006488:	80 a0 60 00 	cmp  %g1, 0
4000648c:	04 80 00 04 	ble  4000649c <_ulp+0x24>
40006490:	90 10 00 01 	mov  %g1, %o0
40006494:	81 c3 e0 08 	retl 
40006498:	92 10 20 00 	clr  %o1
4000649c:	82 20 00 01 	neg  %g1
400064a0:	83 38 60 14 	sra  %g1, 0x14, %g1
400064a4:	80 a0 60 13 	cmp  %g1, 0x13
400064a8:	04 80 00 0e 	ble  400064e0 <_ulp+0x68>
400064ac:	05 00 02 00 	sethi  %hi(0x80000), %g2
400064b0:	82 00 7f ec 	add  %g1, -20, %g1
400064b4:	80 a0 60 1e 	cmp  %g1, 0x1e
400064b8:	04 80 00 05 	ble  400064cc <_ulp+0x54>
400064bc:	84 10 20 01 	mov  1, %g2
400064c0:	90 10 20 00 	clr  %o0
400064c4:	81 c3 e0 08 	retl 
400064c8:	92 10 00 02 	mov  %g2, %o1
400064cc:	82 38 00 01 	xnor  %g0, %g1, %g1
400064d0:	90 10 20 00 	clr  %o0
400064d4:	85 28 80 01 	sll  %g2, %g1, %g2
400064d8:	81 c3 e0 08 	retl 
400064dc:	92 10 00 02 	mov  %g2, %o1
400064e0:	92 10 20 00 	clr  %o1
400064e4:	81 c3 e0 08 	retl 
400064e8:	91 38 80 01 	sra  %g2, %g1, %o0

400064ec <_b2d>:
400064ec:	9d e3 bf a0 	save  %sp, -96, %sp
400064f0:	e0 06 20 10 	ld  [ %i0 + 0x10 ], %l0
400064f4:	a0 04 20 04 	add  %l0, 4, %l0
400064f8:	a1 2c 20 02 	sll  %l0, 2, %l0
400064fc:	e2 06 00 10 	ld  [ %i0 + %l0 ], %l1
40006500:	7f ff ff 67 	call  4000629c <_hi0bits>
40006504:	90 10 00 11 	mov  %l1, %o0
40006508:	82 10 20 20 	mov  0x20, %g1
4000650c:	82 20 40 08 	sub  %g1, %o0, %g1
40006510:	c2 26 40 00 	st  %g1, [ %i1 ]
40006514:	a0 06 00 10 	add  %i0, %l0, %l0
40006518:	80 a2 20 0a 	cmp  %o0, 0xa
4000651c:	14 80 00 11 	bg  40006560 <_b2d+0x74>
40006520:	b0 06 20 14 	add  %i0, 0x14, %i0
40006524:	84 10 20 0b 	mov  0xb, %g2
40006528:	80 a6 00 10 	cmp  %i0, %l0
4000652c:	84 20 80 08 	sub  %g2, %o0, %g2
40006530:	1a 80 00 04 	bcc  40006540 <_b2d+0x54>
40006534:	82 10 20 00 	clr  %g1
40006538:	c2 04 3f fc 	ld  [ %l0 + -4 ], %g1
4000653c:	83 30 40 02 	srl  %g1, %g2, %g1
40006540:	85 34 40 02 	srl  %l1, %g2, %g2
40006544:	90 02 20 15 	add  %o0, 0x15, %o0
40006548:	07 0f fc 00 	sethi  %hi(0x3ff00000), %g3
4000654c:	a3 2c 40 08 	sll  %l1, %o0, %l1
40006550:	b0 10 80 03 	or  %g2, %g3, %i0
40006554:	b2 10 40 11 	or  %g1, %l1, %i1
40006558:	81 c7 e0 08 	ret 
4000655c:	81 e8 00 00 	restore 
40006560:	80 a6 00 10 	cmp  %i0, %l0
40006564:	0a 80 00 19 	bcs  400065c8 <_b2d+0xdc>
40006568:	82 10 20 00 	clr  %g1
4000656c:	90 82 3f f5 	addcc  %o0, -11, %o0
40006570:	02 80 00 13 	be  400065bc <_b2d+0xd0>
40006574:	05 0f fc 00 	sethi  %hi(0x3ff00000), %g2
40006578:	86 10 20 20 	mov  0x20, %g3
4000657c:	80 a4 00 18 	cmp  %l0, %i0
40006580:	86 20 c0 08 	sub  %g3, %o0, %g3
40006584:	08 80 00 04 	bleu  40006594 <_b2d+0xa8>
40006588:	84 10 20 00 	clr  %g2
4000658c:	c4 04 3f fc 	ld  [ %l0 + -4 ], %g2
40006590:	85 30 80 03 	srl  %g2, %g3, %g2
40006594:	89 28 40 08 	sll  %g1, %o0, %g4
40006598:	83 30 40 03 	srl  %g1, %g3, %g1
4000659c:	91 2c 40 08 	sll  %l1, %o0, %o0
400065a0:	07 0f fc 00 	sethi  %hi(0x3ff00000), %g3
400065a4:	b2 10 80 04 	or  %g2, %g4, %i1
400065a8:	90 12 00 03 	or  %o0, %g3, %o0
400065ac:	b0 12 00 01 	or  %o0, %g1, %i0
400065b0:	81 c7 e0 08 	ret 
400065b4:	81 e8 00 00 	restore 
400065b8:	05 0f fc 00 	sethi  %hi(0x3ff00000), %g2
400065bc:	b0 14 40 02 	or  %l1, %g2, %i0
400065c0:	81 c7 e0 08 	ret 
400065c4:	93 e8 00 01 	restore  %g0, %g1, %o1
400065c8:	c2 04 3f fc 	ld  [ %l0 + -4 ], %g1
400065cc:	90 82 3f f5 	addcc  %o0, -11, %o0
400065d0:	02 bf ff fa 	be  400065b8 <_b2d+0xcc>
400065d4:	a0 04 3f fc 	add  %l0, -4, %l0
400065d8:	10 bf ff e9 	b  4000657c <_b2d+0x90>
400065dc:	86 10 20 20 	mov  0x20, %g3

400065e0 <_ratio>:
400065e0:	9d e3 bf 98 	save  %sp, -104, %sp
400065e4:	92 07 bf fc 	add  %fp, -4, %o1
400065e8:	7f ff ff c1 	call  400064ec <_b2d>
400065ec:	90 10 00 18 	mov  %i0, %o0
400065f0:	a0 10 00 08 	mov  %o0, %l0
400065f4:	a2 10 00 09 	mov  %o1, %l1
400065f8:	90 10 00 19 	mov  %i1, %o0
400065fc:	7f ff ff bc 	call  400064ec <_b2d>
40006600:	92 07 bf f8 	add  %fp, -8, %o1
40006604:	c6 06 20 10 	ld  [ %i0 + 0x10 ], %g3
40006608:	c4 06 60 10 	ld  [ %i1 + 0x10 ], %g2
4000660c:	c2 07 bf f8 	ld  [ %fp + -8 ], %g1
40006610:	c8 07 bf fc 	ld  [ %fp + -4 ], %g4
40006614:	82 21 00 01 	sub  %g4, %g1, %g1
40006618:	84 20 c0 02 	sub  %g3, %g2, %g2
4000661c:	94 10 00 08 	mov  %o0, %o2
40006620:	85 28 a0 05 	sll  %g2, 5, %g2
40006624:	82 00 40 02 	add  %g1, %g2, %g1
40006628:	80 a0 60 00 	cmp  %g1, 0
4000662c:	04 80 00 0b 	ble  40006658 <_ratio+0x78>
40006630:	96 10 00 09 	mov  %o1, %o3
40006634:	83 28 60 14 	sll  %g1, 0x14, %g1
40006638:	84 00 40 10 	add  %g1, %l0, %g2
4000663c:	92 10 00 11 	mov  %l1, %o1
40006640:	a0 10 00 02 	mov  %g2, %l0
40006644:	40 00 09 79 	call  40008c28 <__divdf3>
40006648:	90 10 00 10 	mov  %l0, %o0
4000664c:	b0 10 00 08 	mov  %o0, %i0
40006650:	81 c7 e0 08 	ret 
40006654:	93 e8 00 09 	restore  %g0, %o1, %o1
40006658:	83 28 60 14 	sll  %g1, 0x14, %g1
4000665c:	98 22 80 01 	sub  %o2, %g1, %o4
40006660:	94 10 00 0c 	mov  %o4, %o2
40006664:	90 10 00 10 	mov  %l0, %o0
40006668:	40 00 09 70 	call  40008c28 <__divdf3>
4000666c:	92 10 00 11 	mov  %l1, %o1
40006670:	b0 10 00 08 	mov  %o0, %i0
40006674:	81 c7 e0 08 	ret 
40006678:	93 e8 00 09 	restore  %g0, %o1, %o1

4000667c <_mprec_log10>:
4000667c:	9d e3 bf a0 	save  %sp, -96, %sp
40006680:	80 a6 20 17 	cmp  %i0, 0x17
40006684:	04 80 00 0d 	ble  400066b8 <_mprec_log10+0x3c>
40006688:	a0 10 00 18 	mov  %i0, %l0
4000668c:	03 10 00 2e 	sethi  %hi(0x4000b800), %g1
40006690:	d0 18 60 08 	ldd  [ %g1 + 8 ], %o0	! 4000b808 <blanks.3054+0x60>
40006694:	03 10 00 2e 	sethi  %hi(0x4000b800), %g1
40006698:	40 00 08 8b 	call  400088c4 <__muldf3>
4000669c:	d4 18 60 10 	ldd  [ %g1 + 0x10 ], %o2	! 4000b810 <blanks.3054+0x68>
400066a0:	a0 84 3f ff 	addcc  %l0, -1, %l0
400066a4:	12 bf ff fd 	bne  40006698 <_mprec_log10+0x1c>
400066a8:	03 10 00 2e 	sethi  %hi(0x4000b800), %g1
400066ac:	b0 10 00 08 	mov  %o0, %i0
400066b0:	81 c7 e0 08 	ret 
400066b4:	93 e8 00 09 	restore  %g0, %o1, %o1
400066b8:	a1 2e 20 03 	sll  %i0, 3, %l0
400066bc:	03 10 00 2e 	sethi  %hi(0x4000b800), %g1
400066c0:	82 10 60 88 	or  %g1, 0x88, %g1	! 4000b888 <__mprec_tens>
400066c4:	d0 18 40 10 	ldd  [ %g1 + %l0 ], %o0
400066c8:	b0 10 00 08 	mov  %o0, %i0
400066cc:	81 c7 e0 08 	ret 
400066d0:	93 e8 00 09 	restore  %g0, %o1, %o1

400066d4 <_Balloc>:
400066d4:	9d e3 bf a0 	save  %sp, -96, %sp
400066d8:	c2 06 20 4c 	ld  [ %i0 + 0x4c ], %g1
400066dc:	80 a0 60 00 	cmp  %g1, 0
400066e0:	02 80 00 0d 	be  40006714 <_Balloc+0x40>
400066e4:	a0 10 00 18 	mov  %i0, %l0
400066e8:	85 2e 60 02 	sll  %i1, 2, %g2
400066ec:	f0 00 40 02 	ld  [ %g1 + %g2 ], %i0
400066f0:	80 a6 20 00 	cmp  %i0, 0
400066f4:	02 80 00 13 	be  40006740 <_Balloc+0x6c>
400066f8:	90 10 00 10 	mov  %l0, %o0
400066fc:	c6 06 00 00 	ld  [ %i0 ], %g3
40006700:	c6 20 40 02 	st  %g3, [ %g1 + %g2 ]
40006704:	c0 26 20 10 	clr  [ %i0 + 0x10 ]
40006708:	c0 26 20 0c 	clr  [ %i0 + 0xc ]
4000670c:	81 c7 e0 08 	ret 
40006710:	81 e8 00 00 	restore 
40006714:	90 10 00 18 	mov  %i0, %o0
40006718:	92 10 20 04 	mov  4, %o1
4000671c:	40 00 04 7d 	call  40007910 <_calloc_r>
40006720:	94 10 20 10 	mov  0x10, %o2
40006724:	d0 24 20 4c 	st  %o0, [ %l0 + 0x4c ]
40006728:	82 10 00 08 	mov  %o0, %g1
4000672c:	80 a2 20 00 	cmp  %o0, 0
40006730:	12 bf ff ee 	bne  400066e8 <_Balloc+0x14>
40006734:	b0 10 20 00 	clr  %i0
40006738:	81 c7 e0 08 	ret 
4000673c:	81 e8 00 00 	restore 
40006740:	92 10 20 01 	mov  1, %o1
40006744:	a0 10 20 01 	mov  1, %l0
40006748:	a1 2c 00 19 	sll  %l0, %i1, %l0
4000674c:	94 04 20 05 	add  %l0, 5, %o2
40006750:	40 00 04 70 	call  40007910 <_calloc_r>
40006754:	95 2a a0 02 	sll  %o2, 2, %o2
40006758:	b0 92 20 00 	orcc  %o0, 0, %i0
4000675c:	02 bf ff f7 	be  40006738 <_Balloc+0x64>
40006760:	01 00 00 00 	nop 
40006764:	f2 26 20 04 	st  %i1, [ %i0 + 4 ]
40006768:	e0 26 20 08 	st  %l0, [ %i0 + 8 ]
4000676c:	c0 26 20 10 	clr  [ %i0 + 0x10 ]
40006770:	c0 26 20 0c 	clr  [ %i0 + 0xc ]
40006774:	81 c7 e0 08 	ret 
40006778:	81 e8 00 00 	restore 

4000677c <_d2b>:
4000677c:	9d e3 bf 98 	save  %sp, -104, %sp
40006780:	92 10 20 01 	mov  1, %o1
40006784:	7f ff ff d4 	call  400066d4 <_Balloc>
40006788:	90 10 00 18 	mov  %i0, %o0
4000678c:	05 3f fc 00 	sethi  %hi(0xfff00000), %g2
40006790:	84 2e 40 02 	andn  %i1, %g2, %g2
40006794:	c4 27 bf f8 	st  %g2, [ %fp + -8 ]
40006798:	07 20 00 00 	sethi  %hi(0x80000000), %g3
4000679c:	a2 10 00 1a 	mov  %i2, %l1
400067a0:	82 2e 40 03 	andn  %i1, %g3, %g1
400067a4:	a5 30 60 14 	srl  %g1, 0x14, %l2
400067a8:	80 a4 a0 00 	cmp  %l2, 0
400067ac:	02 80 00 05 	be  400067c0 <_d2b+0x44>
400067b0:	b0 10 00 08 	mov  %o0, %i0
400067b4:	07 00 04 00 	sethi  %hi(0x100000), %g3
400067b8:	84 10 80 03 	or  %g2, %g3, %g2
400067bc:	c4 27 bf f8 	st  %g2, [ %fp + -8 ]
400067c0:	80 a4 60 00 	cmp  %l1, 0
400067c4:	02 80 00 1e 	be  4000683c <_d2b+0xc0>
400067c8:	01 00 00 00 	nop 
400067cc:	e2 27 bf fc 	st  %l1, [ %fp + -4 ]
400067d0:	7f ff fe d4 	call  40006320 <_lo0bits>
400067d4:	90 07 bf fc 	add  %fp, -4, %o0
400067d8:	80 a2 20 00 	cmp  %o0, 0
400067dc:	12 80 00 2a 	bne  40006884 <_d2b+0x108>
400067e0:	c2 07 bf f8 	ld  [ %fp + -8 ], %g1
400067e4:	c2 07 bf fc 	ld  [ %fp + -4 ], %g1
400067e8:	c2 26 20 14 	st  %g1, [ %i0 + 0x14 ]
400067ec:	c2 07 bf f8 	ld  [ %fp + -8 ], %g1
400067f0:	80 a0 00 01 	cmp  %g0, %g1
400067f4:	c2 26 20 18 	st  %g1, [ %i0 + 0x18 ]
400067f8:	a0 40 20 00 	addx  %g0, 0, %l0
400067fc:	a0 04 20 01 	inc  %l0
40006800:	80 a4 a0 00 	cmp  %l2, 0
40006804:	12 80 00 18 	bne  40006864 <_d2b+0xe8>
40006808:	e0 26 20 10 	st  %l0, [ %i0 + 0x10 ]
4000680c:	90 02 3b ce 	add  %o0, -1074, %o0
40006810:	82 04 20 03 	add  %l0, 3, %g1
40006814:	d0 26 c0 00 	st  %o0, [ %i3 ]
40006818:	83 28 60 02 	sll  %g1, 2, %g1
4000681c:	82 06 00 01 	add  %i0, %g1, %g1
40006820:	7f ff fe 9f 	call  4000629c <_hi0bits>
40006824:	d0 00 60 04 	ld  [ %g1 + 4 ], %o0
40006828:	a1 2c 20 05 	sll  %l0, 5, %l0
4000682c:	a0 24 00 08 	sub  %l0, %o0, %l0
40006830:	e0 27 00 00 	st  %l0, [ %i4 ]
40006834:	81 c7 e0 08 	ret 
40006838:	81 e8 00 00 	restore 
4000683c:	7f ff fe b9 	call  40006320 <_lo0bits>
40006840:	90 07 bf f8 	add  %fp, -8, %o0
40006844:	c2 07 bf f8 	ld  [ %fp + -8 ], %g1
40006848:	c2 26 20 14 	st  %g1, [ %i0 + 0x14 ]
4000684c:	82 10 20 01 	mov  1, %g1
40006850:	c2 26 20 10 	st  %g1, [ %i0 + 0x10 ]
40006854:	90 02 20 20 	add  %o0, 0x20, %o0
40006858:	80 a4 a0 00 	cmp  %l2, 0
4000685c:	02 bf ff ec 	be  4000680c <_d2b+0x90>
40006860:	a0 10 20 01 	mov  1, %l0
40006864:	a4 04 bb cd 	add  %l2, -1075, %l2
40006868:	a4 04 80 08 	add  %l2, %o0, %l2
4000686c:	e4 26 c0 00 	st  %l2, [ %i3 ]
40006870:	82 10 20 35 	mov  0x35, %g1
40006874:	90 20 40 08 	sub  %g1, %o0, %o0
40006878:	d0 27 00 00 	st  %o0, [ %i4 ]
4000687c:	81 c7 e0 08 	ret 
40006880:	81 e8 00 00 	restore 
40006884:	c6 07 bf fc 	ld  [ %fp + -4 ], %g3
40006888:	84 20 00 08 	neg  %o0, %g2
4000688c:	85 28 40 02 	sll  %g1, %g2, %g2
40006890:	84 10 80 03 	or  %g2, %g3, %g2
40006894:	c4 26 20 14 	st  %g2, [ %i0 + 0x14 ]
40006898:	83 30 40 08 	srl  %g1, %o0, %g1
4000689c:	10 bf ff d5 	b  400067f0 <_d2b+0x74>
400068a0:	c2 27 bf f8 	st  %g1, [ %fp + -8 ]

400068a4 <__mdiff>:
400068a4:	9d e3 bf a0 	save  %sp, -96, %sp
400068a8:	e2 06 60 10 	ld  [ %i1 + 0x10 ], %l1
400068ac:	c2 06 a0 10 	ld  [ %i2 + 0x10 ], %g1
400068b0:	a2 a4 40 01 	subcc  %l1, %g1, %l1
400068b4:	02 80 00 4a 	be  400069dc <__mdiff+0x138>
400068b8:	90 10 00 18 	mov  %i0, %o0
400068bc:	80 a4 60 00 	cmp  %l1, 0
400068c0:	06 80 00 61 	bl  40006a44 <__mdiff+0x1a0>
400068c4:	82 10 00 19 	mov  %i1, %g1
400068c8:	a2 10 20 00 	clr  %l1
400068cc:	a0 06 60 14 	add  %i1, 0x14, %l0
400068d0:	7f ff ff 81 	call  400066d4 <_Balloc>
400068d4:	d2 06 60 04 	ld  [ %i1 + 4 ], %o1
400068d8:	c8 06 60 10 	ld  [ %i1 + 0x10 ], %g4
400068dc:	d2 06 a0 10 	ld  [ %i2 + 0x10 ], %o1
400068e0:	82 01 20 04 	add  %g4, 4, %g1
400068e4:	e2 22 20 0c 	st  %l1, [ %o0 + 0xc ]
400068e8:	83 28 60 02 	sll  %g1, 2, %g1
400068ec:	92 02 60 04 	add  %o1, 4, %o1
400068f0:	b2 06 40 01 	add  %i1, %g1, %i1
400068f4:	93 2a 60 02 	sll  %o1, 2, %o1
400068f8:	19 00 00 3f 	sethi  %hi(0xfc00), %o4
400068fc:	92 06 80 09 	add  %i2, %o1, %o1
40006900:	b2 06 60 04 	add  %i1, 4, %i1
40006904:	92 02 60 04 	add  %o1, 4, %o1
40006908:	98 13 23 ff 	or  %o4, 0x3ff, %o4
4000690c:	b4 06 a0 14 	add  %i2, 0x14, %i2
40006910:	82 02 20 14 	add  %o0, 0x14, %g1
40006914:	84 10 20 00 	clr  %g2
40006918:	da 06 80 00 	ld  [ %i2 ], %o5
4000691c:	c6 04 00 00 	ld  [ %l0 ], %g3
40006920:	97 33 60 10 	srl  %o5, 0x10, %o3
40006924:	9a 0b 40 0c 	and  %o5, %o4, %o5
40006928:	95 30 e0 10 	srl  %g3, 0x10, %o2
4000692c:	86 08 c0 0c 	and  %g3, %o4, %g3
40006930:	96 22 80 0b 	sub  %o2, %o3, %o3
40006934:	86 20 c0 0d 	sub  %g3, %o5, %g3
40006938:	86 00 c0 02 	add  %g3, %g2, %g3
4000693c:	9b 38 e0 10 	sra  %g3, 0x10, %o5
40006940:	84 02 c0 0d 	add  %o3, %o5, %g2
40006944:	c6 30 60 02 	sth  %g3, [ %g1 + 2 ]
40006948:	b4 06 a0 04 	add  %i2, 4, %i2
4000694c:	c4 30 40 00 	sth  %g2, [ %g1 ]
40006950:	a0 04 20 04 	add  %l0, 4, %l0
40006954:	82 00 60 04 	add  %g1, 4, %g1
40006958:	80 a2 40 1a 	cmp  %o1, %i2
4000695c:	18 bf ff ef 	bgu  40006918 <__mdiff+0x74>
40006960:	85 38 a0 10 	sra  %g2, 0x10, %g2
40006964:	80 a4 00 19 	cmp  %l0, %i1
40006968:	3a 80 00 12 	bcc,a   400069b0 <__mdiff+0x10c>
4000696c:	c4 00 7f fc 	ld  [ %g1 + -4 ], %g2
40006970:	19 00 00 3f 	sethi  %hi(0xfc00), %o4
40006974:	98 13 23 ff 	or  %o4, 0x3ff, %o4	! ffff <_trap_table-0x3fff0001>
40006978:	c6 04 00 00 	ld  [ %l0 ], %g3
4000697c:	9b 30 e0 10 	srl  %g3, 0x10, %o5
40006980:	86 08 c0 0c 	and  %g3, %o4, %g3
40006984:	86 00 80 03 	add  %g2, %g3, %g3
40006988:	85 38 e0 10 	sra  %g3, 0x10, %g2
4000698c:	84 00 80 0d 	add  %g2, %o5, %g2
40006990:	c6 30 60 02 	sth  %g3, [ %g1 + 2 ]
40006994:	a0 04 20 04 	add  %l0, 4, %l0
40006998:	c4 30 40 00 	sth  %g2, [ %g1 ]
4000699c:	80 a6 40 10 	cmp  %i1, %l0
400069a0:	82 00 60 04 	add  %g1, 4, %g1
400069a4:	18 bf ff f5 	bgu  40006978 <__mdiff+0xd4>
400069a8:	85 38 a0 10 	sra  %g2, 0x10, %g2
400069ac:	c4 00 7f fc 	ld  [ %g1 + -4 ], %g2
400069b0:	80 a0 a0 00 	cmp  %g2, 0
400069b4:	12 80 00 07 	bne  400069d0 <__mdiff+0x12c>
400069b8:	82 00 7f fc 	add  %g1, -4, %g1
400069bc:	82 00 7f fc 	add  %g1, -4, %g1
400069c0:	c4 00 40 00 	ld  [ %g1 ], %g2
400069c4:	80 a0 a0 00 	cmp  %g2, 0
400069c8:	02 bf ff fd 	be  400069bc <__mdiff+0x118>
400069cc:	88 01 3f ff 	add  %g4, -1, %g4
400069d0:	c8 22 20 10 	st  %g4, [ %o0 + 0x10 ]
400069d4:	81 c7 e0 08 	ret 
400069d8:	91 e8 00 08 	restore  %g0, %o0, %o0
400069dc:	82 00 60 04 	add  %g1, 4, %g1
400069e0:	a0 06 60 14 	add  %i1, 0x14, %l0
400069e4:	83 28 60 02 	sll  %g1, 2, %g1
400069e8:	84 06 80 01 	add  %i2, %g1, %g2
400069ec:	82 06 40 01 	add  %i1, %g1, %g1
400069f0:	84 00 a0 04 	add  %g2, 4, %g2
400069f4:	82 00 60 04 	add  %g1, 4, %g1
400069f8:	82 00 7f fc 	add  %g1, -4, %g1
400069fc:	84 00 bf fc 	add  %g2, -4, %g2
40006a00:	c8 00 40 00 	ld  [ %g1 ], %g4
40006a04:	c6 00 80 00 	ld  [ %g2 ], %g3
40006a08:	80 a1 00 03 	cmp  %g4, %g3
40006a0c:	12 80 00 0b 	bne  40006a38 <__mdiff+0x194>
40006a10:	80 a4 00 01 	cmp  %l0, %g1
40006a14:	0a bf ff fa 	bcs  400069fc <__mdiff+0x158>
40006a18:	82 00 7f fc 	add  %g1, -4, %g1
40006a1c:	7f ff ff 2e 	call  400066d4 <_Balloc>
40006a20:	92 10 20 00 	clr  %o1
40006a24:	82 10 20 01 	mov  1, %g1
40006a28:	c0 22 20 14 	clr  [ %o0 + 0x14 ]
40006a2c:	c2 22 20 10 	st  %g1, [ %o0 + 0x10 ]
40006a30:	81 c7 e0 08 	ret 
40006a34:	91 e8 00 08 	restore  %g0, %o0, %o0
40006a38:	80 a1 00 03 	cmp  %g4, %g3
40006a3c:	1a bf ff a5 	bcc  400068d0 <__mdiff+0x2c>
40006a40:	82 10 00 19 	mov  %i1, %g1
40006a44:	a2 10 20 01 	mov  1, %l1
40006a48:	b2 10 00 1a 	mov  %i2, %i1
40006a4c:	b4 10 00 01 	mov  %g1, %i2
40006a50:	10 bf ff a0 	b  400068d0 <__mdiff+0x2c>
40006a54:	a0 06 60 14 	add  %i1, 0x14, %l0

40006a58 <_lshift>:
40006a58:	9d e3 bf a0 	save  %sp, -96, %sp
40006a5c:	e0 06 60 10 	ld  [ %i1 + 0x10 ], %l0
40006a60:	c2 06 60 08 	ld  [ %i1 + 8 ], %g1
40006a64:	a0 04 20 01 	inc  %l0
40006a68:	a3 3e a0 05 	sra  %i2, 5, %l1
40006a6c:	a4 10 00 18 	mov  %i0, %l2
40006a70:	a0 04 00 11 	add  %l0, %l1, %l0
40006a74:	80 a4 00 01 	cmp  %l0, %g1
40006a78:	04 80 00 06 	ble  40006a90 <_lshift+0x38>
40006a7c:	d2 06 60 04 	ld  [ %i1 + 4 ], %o1
40006a80:	83 28 60 01 	sll  %g1, 1, %g1
40006a84:	80 a4 00 01 	cmp  %l0, %g1
40006a88:	14 bf ff fe 	bg  40006a80 <_lshift+0x28>
40006a8c:	92 02 60 01 	inc  %o1
40006a90:	7f ff ff 11 	call  400066d4 <_Balloc>
40006a94:	90 10 00 12 	mov  %l2, %o0
40006a98:	80 a4 60 00 	cmp  %l1, 0
40006a9c:	04 80 00 0c 	ble  40006acc <_lshift+0x74>
40006aa0:	82 02 20 14 	add  %o0, 0x14, %g1
40006aa4:	84 10 20 00 	clr  %g2
40006aa8:	c0 20 40 00 	clr  [ %g1 ]
40006aac:	84 00 a0 01 	inc  %g2
40006ab0:	80 a0 80 11 	cmp  %g2, %l1
40006ab4:	12 bf ff fd 	bne  40006aa8 <_lshift+0x50>
40006ab8:	82 00 60 04 	add  %g1, 4, %g1
40006abc:	82 00 a0 04 	add  %g2, 4, %g1
40006ac0:	83 28 60 02 	sll  %g1, 2, %g1
40006ac4:	82 02 00 01 	add  %o0, %g1, %g1
40006ac8:	82 00 60 04 	add  %g1, 4, %g1
40006acc:	c8 06 60 10 	ld  [ %i1 + 0x10 ], %g4
40006ad0:	88 01 20 04 	add  %g4, 4, %g4
40006ad4:	b4 8e a0 1f 	andcc  %i2, 0x1f, %i2
40006ad8:	89 29 20 02 	sll  %g4, 2, %g4
40006adc:	84 06 60 14 	add  %i1, 0x14, %g2
40006ae0:	88 06 40 04 	add  %i1, %g4, %g4
40006ae4:	02 80 00 1c 	be  40006b54 <_lshift+0xfc>
40006ae8:	88 01 20 04 	add  %g4, 4, %g4
40006aec:	98 10 20 20 	mov  0x20, %o4
40006af0:	86 10 20 00 	clr  %g3
40006af4:	98 23 00 1a 	sub  %o4, %i2, %o4
40006af8:	da 00 80 00 	ld  [ %g2 ], %o5
40006afc:	9b 2b 40 1a 	sll  %o5, %i2, %o5
40006b00:	86 10 c0 0d 	or  %g3, %o5, %g3
40006b04:	c6 20 40 00 	st  %g3, [ %g1 ]
40006b08:	82 00 60 04 	add  %g1, 4, %g1
40006b0c:	c6 00 80 00 	ld  [ %g2 ], %g3
40006b10:	84 00 a0 04 	add  %g2, 4, %g2
40006b14:	80 a1 00 02 	cmp  %g4, %g2
40006b18:	18 bf ff f8 	bgu  40006af8 <_lshift+0xa0>
40006b1c:	87 30 c0 0c 	srl  %g3, %o4, %g3
40006b20:	c6 20 40 00 	st  %g3, [ %g1 ]
40006b24:	80 a0 00 03 	cmp  %g0, %g3
40006b28:	a0 40 00 10 	addx  %g0, %l0, %l0
40006b2c:	c4 04 a0 4c 	ld  [ %l2 + 0x4c ], %g2
40006b30:	c2 06 60 04 	ld  [ %i1 + 4 ], %g1
40006b34:	83 28 60 02 	sll  %g1, 2, %g1
40006b38:	c6 00 80 01 	ld  [ %g2 + %g1 ], %g3
40006b3c:	c6 26 40 00 	st  %g3, [ %i1 ]
40006b40:	a0 04 3f ff 	add  %l0, -1, %l0
40006b44:	f2 20 80 01 	st  %i1, [ %g2 + %g1 ]
40006b48:	e0 22 20 10 	st  %l0, [ %o0 + 0x10 ]
40006b4c:	81 c7 e0 08 	ret 
40006b50:	91 e8 00 08 	restore  %g0, %o0, %o0
40006b54:	c6 00 80 00 	ld  [ %g2 ], %g3
40006b58:	c6 20 40 00 	st  %g3, [ %g1 ]
40006b5c:	84 00 a0 04 	add  %g2, 4, %g2
40006b60:	80 a1 00 02 	cmp  %g4, %g2
40006b64:	08 bf ff f2 	bleu  40006b2c <_lshift+0xd4>
40006b68:	82 00 60 04 	add  %g1, 4, %g1
40006b6c:	c6 00 80 00 	ld  [ %g2 ], %g3
40006b70:	c6 20 40 00 	st  %g3, [ %g1 ]
40006b74:	84 00 a0 04 	add  %g2, 4, %g2
40006b78:	80 a1 00 02 	cmp  %g4, %g2
40006b7c:	18 bf ff f6 	bgu  40006b54 <_lshift+0xfc>
40006b80:	82 00 60 04 	add  %g1, 4, %g1
40006b84:	10 bf ff eb 	b  40006b30 <_lshift+0xd8>
40006b88:	c4 04 a0 4c 	ld  [ %l2 + 0x4c ], %g2

40006b8c <_multiply>:
40006b8c:	9d e3 bf 98 	save  %sp, -104, %sp
40006b90:	e0 06 60 10 	ld  [ %i1 + 0x10 ], %l0
40006b94:	e2 06 a0 10 	ld  [ %i2 + 0x10 ], %l1
40006b98:	80 a4 00 11 	cmp  %l0, %l1
40006b9c:	06 80 00 80 	bl  40006d9c <_multiply+0x210>
40006ba0:	90 10 00 18 	mov  %i0, %o0
40006ba4:	82 10 00 11 	mov  %l1, %g1
40006ba8:	a2 10 00 10 	mov  %l0, %l1
40006bac:	a0 10 00 01 	mov  %g1, %l0
40006bb0:	c2 06 60 08 	ld  [ %i1 + 8 ], %g1
40006bb4:	ac 04 00 11 	add  %l0, %l1, %l6
40006bb8:	80 a5 80 01 	cmp  %l6, %g1
40006bbc:	04 80 00 03 	ble  40006bc8 <_multiply+0x3c>
40006bc0:	d2 06 60 04 	ld  [ %i1 + 4 ], %o1
40006bc4:	92 02 60 01 	inc  %o1
40006bc8:	7f ff fe c3 	call  400066d4 <_Balloc>
40006bcc:	ae 05 a0 04 	add  %l6, 4, %l7
40006bd0:	b6 02 20 14 	add  %o0, 0x14, %i3
40006bd4:	af 2d e0 02 	sll  %l7, 2, %l7
40006bd8:	ae 02 00 17 	add  %o0, %l7, %l7
40006bdc:	ae 05 e0 04 	add  %l7, 4, %l7
40006be0:	80 a6 c0 17 	cmp  %i3, %l7
40006be4:	1a 80 00 08 	bcc  40006c04 <_multiply+0x78>
40006be8:	b0 10 00 08 	mov  %o0, %i0
40006bec:	82 10 00 1b 	mov  %i3, %g1
40006bf0:	c0 20 40 00 	clr  [ %g1 ]
40006bf4:	82 00 60 04 	add  %g1, 4, %g1
40006bf8:	80 a5 c0 01 	cmp  %l7, %g1
40006bfc:	38 bf ff fe 	bgu,a   40006bf4 <_multiply+0x68>
40006c00:	c0 20 40 00 	clr  [ %g1 ]
40006c04:	aa 04 60 04 	add  %l1, 4, %l5
40006c08:	ab 2d 60 02 	sll  %l5, 2, %l5
40006c0c:	aa 06 40 15 	add  %i1, %l5, %l5
40006c10:	b2 06 60 14 	add  %i1, 0x14, %i1
40006c14:	f2 27 bf f8 	st  %i1, [ %fp + -8 ]
40006c18:	b8 04 20 04 	add  %l0, 4, %i4
40006c1c:	ba 06 a0 14 	add  %i2, 0x14, %i5
40006c20:	b9 2f 20 02 	sll  %i4, 2, %i4
40006c24:	b8 06 80 1c 	add  %i2, %i4, %i4
40006c28:	b8 07 20 04 	add  %i4, 4, %i4
40006c2c:	80 a7 40 1c 	cmp  %i5, %i4
40006c30:	1a 80 00 47 	bcc  40006d4c <_multiply+0x1c0>
40006c34:	aa 05 60 04 	add  %l5, 4, %l5
40006c38:	23 00 00 3f 	sethi  %hi(0xfc00), %l1
40006c3c:	a2 14 63 ff 	or  %l1, 0x3ff, %l1	! ffff <_trap_table-0x3fff0001>
40006c40:	c2 07 40 00 	ld  [ %i5 ], %g1
40006c44:	84 88 40 11 	andcc  %g1, %l1, %g2
40006c48:	02 80 00 1d 	be  40006cbc <_multiply+0x130>
40006c4c:	c4 27 bf fc 	st  %g2, [ %fp + -4 ]
40006c50:	f4 07 bf f8 	ld  [ %fp + -8 ], %i2
40006c54:	a0 10 00 1b 	mov  %i3, %l0
40006c58:	b2 10 20 00 	clr  %i1
40006c5c:	e8 06 80 00 	ld  [ %i2 ], %l4
40006c60:	d2 07 bf fc 	ld  [ %fp + -4 ], %o1
40006c64:	40 00 04 69 	call  40007e08 <.umul>
40006c68:	90 0d 00 11 	and  %l4, %l1, %o0
40006c6c:	e6 04 00 00 	ld  [ %l0 ], %l3
40006c70:	d2 07 bf fc 	ld  [ %fp + -4 ], %o1
40006c74:	a4 0c c0 11 	and  %l3, %l1, %l2
40006c78:	a4 02 00 12 	add  %o0, %l2, %l2
40006c7c:	40 00 04 63 	call  40007e08 <.umul>
40006c80:	91 35 20 10 	srl  %l4, 0x10, %o0
40006c84:	a4 04 80 19 	add  %l2, %i1, %l2
40006c88:	a7 34 e0 10 	srl  %l3, 0x10, %l3
40006c8c:	83 34 a0 10 	srl  %l2, 0x10, %g1
40006c90:	a6 02 00 13 	add  %o0, %l3, %l3
40006c94:	b2 04 c0 01 	add  %l3, %g1, %i1
40006c98:	e4 34 20 02 	sth  %l2, [ %l0 + 2 ]
40006c9c:	b4 06 a0 04 	add  %i2, 4, %i2
40006ca0:	f2 34 00 00 	sth  %i1, [ %l0 ]
40006ca4:	80 a5 40 1a 	cmp  %l5, %i2
40006ca8:	a0 04 20 04 	add  %l0, 4, %l0
40006cac:	18 bf ff ec 	bgu  40006c5c <_multiply+0xd0>
40006cb0:	b3 36 60 10 	srl  %i1, 0x10, %i1
40006cb4:	f2 24 00 00 	st  %i1, [ %l0 ]
40006cb8:	c2 07 40 00 	ld  [ %i5 ], %g1
40006cbc:	83 30 60 10 	srl  %g1, 0x10, %g1
40006cc0:	80 a0 60 00 	cmp  %g1, 0
40006cc4:	02 80 00 1e 	be  40006d3c <_multiply+0x1b0>
40006cc8:	c2 27 bf fc 	st  %g1, [ %fp + -4 ]
40006ccc:	f2 06 c0 00 	ld  [ %i3 ], %i1
40006cd0:	f4 07 bf f8 	ld  [ %fp + -8 ], %i2
40006cd4:	a4 10 00 19 	mov  %i1, %l2
40006cd8:	a0 10 00 1b 	mov  %i3, %l0
40006cdc:	a6 10 20 00 	clr  %l3
40006ce0:	e8 06 80 00 	ld  [ %i2 ], %l4
40006ce4:	d0 07 bf fc 	ld  [ %fp + -4 ], %o0
40006ce8:	92 0d 00 11 	and  %l4, %l1, %o1
40006cec:	40 00 04 47 	call  40007e08 <.umul>
40006cf0:	a5 34 a0 10 	srl  %l2, 0x10, %l2
40006cf4:	a6 04 c0 08 	add  %l3, %o0, %l3
40006cf8:	a6 04 c0 12 	add  %l3, %l2, %l3
40006cfc:	f2 34 20 02 	sth  %i1, [ %l0 + 2 ]
40006d00:	d0 07 bf fc 	ld  [ %fp + -4 ], %o0
40006d04:	e6 34 00 00 	sth  %l3, [ %l0 ]
40006d08:	93 35 20 10 	srl  %l4, 0x10, %o1
40006d0c:	40 00 04 3f 	call  40007e08 <.umul>
40006d10:	a7 34 e0 10 	srl  %l3, 0x10, %l3
40006d14:	a0 04 20 04 	add  %l0, 4, %l0
40006d18:	e4 04 00 00 	ld  [ %l0 ], %l2
40006d1c:	b4 06 a0 04 	add  %i2, 4, %i2
40006d20:	b2 0c 80 11 	and  %l2, %l1, %i1
40006d24:	80 a5 40 1a 	cmp  %l5, %i2
40006d28:	b2 02 00 19 	add  %o0, %i1, %i1
40006d2c:	b2 06 40 13 	add  %i1, %l3, %i1
40006d30:	18 bf ff ec 	bgu  40006ce0 <_multiply+0x154>
40006d34:	a7 36 60 10 	srl  %i1, 0x10, %l3
40006d38:	f2 24 00 00 	st  %i1, [ %l0 ]
40006d3c:	ba 07 60 04 	add  %i5, 4, %i5
40006d40:	80 a7 00 1d 	cmp  %i4, %i5
40006d44:	18 bf ff bf 	bgu  40006c40 <_multiply+0xb4>
40006d48:	b6 06 e0 04 	add  %i3, 4, %i3
40006d4c:	80 a5 a0 00 	cmp  %l6, 0
40006d50:	24 80 00 11 	ble,a   40006d94 <_multiply+0x208>
40006d54:	ec 26 20 10 	st  %l6, [ %i0 + 0x10 ]
40006d58:	c2 05 ff fc 	ld  [ %l7 + -4 ], %g1
40006d5c:	80 a0 60 00 	cmp  %g1, 0
40006d60:	02 80 00 09 	be  40006d84 <_multiply+0x1f8>
40006d64:	ae 05 ff fc 	add  %l7, -4, %l7
40006d68:	ec 26 20 10 	st  %l6, [ %i0 + 0x10 ]
40006d6c:	81 c7 e0 08 	ret 
40006d70:	81 e8 00 00 	restore 
40006d74:	c2 05 c0 00 	ld  [ %l7 ], %g1
40006d78:	80 a0 60 00 	cmp  %g1, 0
40006d7c:	32 80 00 06 	bne,a   40006d94 <_multiply+0x208>
40006d80:	ec 26 20 10 	st  %l6, [ %i0 + 0x10 ]
40006d84:	ac 85 bf ff 	addcc  %l6, -1, %l6
40006d88:	12 bf ff fb 	bne  40006d74 <_multiply+0x1e8>
40006d8c:	ae 05 ff fc 	add  %l7, -4, %l7
40006d90:	ec 26 20 10 	st  %l6, [ %i0 + 0x10 ]
40006d94:	81 c7 e0 08 	ret 
40006d98:	81 e8 00 00 	restore 
40006d9c:	82 10 00 19 	mov  %i1, %g1
40006da0:	b2 10 00 1a 	mov  %i2, %i1
40006da4:	10 bf ff 83 	b  40006bb0 <_multiply+0x24>
40006da8:	b4 10 00 01 	mov  %g1, %i2

40006dac <_i2b>:
40006dac:	9d e3 bf a0 	save  %sp, -96, %sp
40006db0:	92 10 20 01 	mov  1, %o1
40006db4:	7f ff fe 48 	call  400066d4 <_Balloc>
40006db8:	90 10 00 18 	mov  %i0, %o0
40006dbc:	82 10 20 01 	mov  1, %g1
40006dc0:	f2 22 20 14 	st  %i1, [ %o0 + 0x14 ]
40006dc4:	c2 22 20 10 	st  %g1, [ %o0 + 0x10 ]
40006dc8:	81 c7 e0 08 	ret 
40006dcc:	91 e8 00 08 	restore  %g0, %o0, %o0

40006dd0 <_multadd>:
40006dd0:	9d e3 bf a0 	save  %sp, -96, %sp
40006dd4:	e0 06 60 10 	ld  [ %i1 + 0x10 ], %l0
40006dd8:	2b 00 00 3f 	sethi  %hi(0xfc00), %l5
40006ddc:	a2 06 60 14 	add  %i1, 0x14, %l1
40006de0:	aa 15 63 ff 	or  %l5, 0x3ff, %l5
40006de4:	a4 10 20 00 	clr  %l2
40006de8:	e8 04 40 00 	ld  [ %l1 ], %l4
40006dec:	92 0d 00 15 	and  %l4, %l5, %o1
40006df0:	40 00 04 06 	call  40007e08 <.umul>
40006df4:	90 10 00 1a 	mov  %i2, %o0
40006df8:	93 35 20 10 	srl  %l4, 0x10, %o1
40006dfc:	a6 06 c0 08 	add  %i3, %o0, %l3
40006e00:	40 00 04 02 	call  40007e08 <.umul>
40006e04:	90 10 00 1a 	mov  %i2, %o0
40006e08:	b7 34 e0 10 	srl  %l3, 0x10, %i3
40006e0c:	a6 0c c0 15 	and  %l3, %l5, %l3
40006e10:	b6 06 c0 08 	add  %i3, %o0, %i3
40006e14:	83 2e e0 10 	sll  %i3, 0x10, %g1
40006e18:	a6 00 40 13 	add  %g1, %l3, %l3
40006e1c:	e6 24 40 00 	st  %l3, [ %l1 ]
40006e20:	a4 04 a0 01 	inc  %l2
40006e24:	a2 04 60 04 	add  %l1, 4, %l1
40006e28:	80 a4 00 12 	cmp  %l0, %l2
40006e2c:	14 bf ff ef 	bg  40006de8 <_multadd+0x18>
40006e30:	b7 36 e0 10 	srl  %i3, 0x10, %i3
40006e34:	80 a6 e0 00 	cmp  %i3, 0
40006e38:	02 80 00 0c 	be  40006e68 <_multadd+0x98>
40006e3c:	01 00 00 00 	nop 
40006e40:	c2 06 60 08 	ld  [ %i1 + 8 ], %g1
40006e44:	80 a4 00 01 	cmp  %l0, %g1
40006e48:	36 80 00 0a 	bge,a   40006e70 <_multadd+0xa0>
40006e4c:	d2 06 60 04 	ld  [ %i1 + 4 ], %o1
40006e50:	82 04 20 04 	add  %l0, 4, %g1
40006e54:	83 28 60 02 	sll  %g1, 2, %g1
40006e58:	82 06 40 01 	add  %i1, %g1, %g1
40006e5c:	a0 04 20 01 	inc  %l0
40006e60:	e0 26 60 10 	st  %l0, [ %i1 + 0x10 ]
40006e64:	f6 20 60 04 	st  %i3, [ %g1 + 4 ]
40006e68:	81 c7 e0 08 	ret 
40006e6c:	91 e8 00 19 	restore  %g0, %i1, %o0
40006e70:	92 02 60 01 	inc  %o1
40006e74:	7f ff fe 18 	call  400066d4 <_Balloc>
40006e78:	90 10 00 18 	mov  %i0, %o0
40006e7c:	d4 06 60 10 	ld  [ %i1 + 0x10 ], %o2
40006e80:	b4 10 00 08 	mov  %o0, %i2
40006e84:	92 06 60 0c 	add  %i1, 0xc, %o1
40006e88:	94 02 a0 02 	add  %o2, 2, %o2
40006e8c:	90 02 20 0c 	add  %o0, 0xc, %o0
40006e90:	7f ff fc 22 	call  40005f18 <memcpy>
40006e94:	95 2a a0 02 	sll  %o2, 2, %o2
40006e98:	c4 06 20 4c 	ld  [ %i0 + 0x4c ], %g2
40006e9c:	c2 06 60 04 	ld  [ %i1 + 4 ], %g1
40006ea0:	83 28 60 02 	sll  %g1, 2, %g1
40006ea4:	c6 00 80 01 	ld  [ %g2 + %g1 ], %g3
40006ea8:	c6 26 40 00 	st  %g3, [ %i1 ]
40006eac:	f2 20 80 01 	st  %i1, [ %g2 + %g1 ]
40006eb0:	10 bf ff e8 	b  40006e50 <_multadd+0x80>
40006eb4:	b2 10 00 1a 	mov  %i2, %i1

40006eb8 <_pow5mult>:
40006eb8:	9d e3 bf a0 	save  %sp, -96, %sp
40006ebc:	82 8e a0 03 	andcc  %i2, 3, %g1
40006ec0:	12 80 00 32 	bne  40006f88 <_pow5mult+0xd0>
40006ec4:	a0 10 00 18 	mov  %i0, %l0
40006ec8:	b5 3e a0 02 	sra  %i2, 2, %i2
40006ecc:	80 a6 a0 00 	cmp  %i2, 0
40006ed0:	02 80 00 25 	be  40006f64 <_pow5mult+0xac>
40006ed4:	01 00 00 00 	nop 
40006ed8:	e2 04 20 48 	ld  [ %l0 + 0x48 ], %l1
40006edc:	80 a4 60 00 	cmp  %l1, 0
40006ee0:	02 80 00 35 	be  40006fb4 <_pow5mult+0xfc>
40006ee4:	90 10 00 10 	mov  %l0, %o0
40006ee8:	80 8e a0 01 	btst  1, %i2
40006eec:	12 80 00 0f 	bne  40006f28 <_pow5mult+0x70>
40006ef0:	92 10 00 19 	mov  %i1, %o1
40006ef4:	b5 3e a0 01 	sra  %i2, 1, %i2
40006ef8:	80 a6 a0 00 	cmp  %i2, 0
40006efc:	02 80 00 1a 	be  40006f64 <_pow5mult+0xac>
40006f00:	01 00 00 00 	nop 
40006f04:	d0 04 40 00 	ld  [ %l1 ], %o0
40006f08:	80 a2 20 00 	cmp  %o0, 0
40006f0c:	02 80 00 18 	be  40006f6c <_pow5mult+0xb4>
40006f10:	92 10 00 11 	mov  %l1, %o1
40006f14:	a2 10 00 08 	mov  %o0, %l1
40006f18:	80 8e a0 01 	btst  1, %i2
40006f1c:	22 bf ff f7 	be,a   40006ef8 <_pow5mult+0x40>
40006f20:	b5 3e a0 01 	sra  %i2, 1, %i2
40006f24:	92 10 00 19 	mov  %i1, %o1
40006f28:	94 10 00 11 	mov  %l1, %o2
40006f2c:	7f ff ff 18 	call  40006b8c <_multiply>
40006f30:	90 10 00 10 	mov  %l0, %o0
40006f34:	80 a6 60 00 	cmp  %i1, 0
40006f38:	02 80 00 08 	be  40006f58 <_pow5mult+0xa0>
40006f3c:	b5 3e a0 01 	sra  %i2, 1, %i2
40006f40:	c4 04 20 4c 	ld  [ %l0 + 0x4c ], %g2
40006f44:	c2 06 60 04 	ld  [ %i1 + 4 ], %g1
40006f48:	83 28 60 02 	sll  %g1, 2, %g1
40006f4c:	c6 00 80 01 	ld  [ %g2 + %g1 ], %g3
40006f50:	c6 26 40 00 	st  %g3, [ %i1 ]
40006f54:	f2 20 80 01 	st  %i1, [ %g2 + %g1 ]
40006f58:	80 a6 a0 00 	cmp  %i2, 0
40006f5c:	12 bf ff ea 	bne  40006f04 <_pow5mult+0x4c>
40006f60:	b2 10 00 08 	mov  %o0, %i1
40006f64:	81 c7 e0 08 	ret 
40006f68:	91 e8 00 19 	restore  %g0, %i1, %o0
40006f6c:	94 10 00 11 	mov  %l1, %o2
40006f70:	7f ff ff 07 	call  40006b8c <_multiply>
40006f74:	90 10 00 10 	mov  %l0, %o0
40006f78:	d0 24 40 00 	st  %o0, [ %l1 ]
40006f7c:	c0 22 00 00 	clr  [ %o0 ]
40006f80:	10 bf ff e6 	b  40006f18 <_pow5mult+0x60>
40006f84:	a2 10 00 08 	mov  %o0, %l1
40006f88:	82 00 7f ff 	add  %g1, -1, %g1
40006f8c:	05 10 00 2e 	sethi  %hi(0x4000b800), %g2
40006f90:	83 28 60 02 	sll  %g1, 2, %g1
40006f94:	84 10 a1 a0 	or  %g2, 0x1a0, %g2
40006f98:	d4 00 80 01 	ld  [ %g2 + %g1 ], %o2
40006f9c:	92 10 00 19 	mov  %i1, %o1
40006fa0:	90 10 00 18 	mov  %i0, %o0
40006fa4:	7f ff ff 8b 	call  40006dd0 <_multadd>
40006fa8:	96 10 20 00 	clr  %o3
40006fac:	10 bf ff c7 	b  40006ec8 <_pow5mult+0x10>
40006fb0:	b2 10 00 08 	mov  %o0, %i1
40006fb4:	7f ff ff 7e 	call  40006dac <_i2b>
40006fb8:	92 10 22 71 	mov  0x271, %o1
40006fbc:	d0 24 20 48 	st  %o0, [ %l0 + 0x48 ]
40006fc0:	a2 10 00 08 	mov  %o0, %l1
40006fc4:	10 bf ff c9 	b  40006ee8 <_pow5mult+0x30>
40006fc8:	c0 22 00 00 	clr  [ %o0 ]

40006fcc <_s2b>:
40006fcc:	9d e3 bf a0 	save  %sp, -96, %sp
40006fd0:	92 10 20 09 	mov  9, %o1
40006fd4:	40 00 03 c9 	call  40007ef8 <.div>
40006fd8:	90 06 e0 08 	add  %i3, 8, %o0
40006fdc:	a0 10 00 18 	mov  %i0, %l0
40006fe0:	80 a2 20 01 	cmp  %o0, 1
40006fe4:	82 10 20 01 	mov  1, %g1
40006fe8:	04 80 00 06 	ble  40007000 <_s2b+0x34>
40006fec:	92 10 20 00 	clr  %o1
40006ff0:	83 28 60 01 	sll  %g1, 1, %g1
40006ff4:	80 a2 00 01 	cmp  %o0, %g1
40006ff8:	14 bf ff fe 	bg  40006ff0 <_s2b+0x24>
40006ffc:	92 02 60 01 	inc  %o1
40007000:	7f ff fd b5 	call  400066d4 <_Balloc>
40007004:	90 10 00 10 	mov  %l0, %o0
40007008:	82 10 20 01 	mov  1, %g1
4000700c:	f8 22 20 14 	st  %i4, [ %o0 + 0x14 ]
40007010:	c2 22 20 10 	st  %g1, [ %o0 + 0x10 ]
40007014:	80 a6 a0 09 	cmp  %i2, 9
40007018:	a4 06 60 0a 	add  %i1, 0xa, %l2
4000701c:	04 80 00 10 	ble  4000705c <_s2b+0x90>
40007020:	a2 10 20 09 	mov  9, %l1
40007024:	a4 06 60 09 	add  %i1, 9, %l2
40007028:	d6 4e 40 11 	ldsb  [ %i1 + %l1 ], %o3
4000702c:	92 10 00 08 	mov  %o0, %o1
40007030:	96 02 ff d0 	add  %o3, -48, %o3
40007034:	90 10 00 10 	mov  %l0, %o0
40007038:	7f ff ff 66 	call  40006dd0 <_multadd>
4000703c:	94 10 20 0a 	mov  0xa, %o2
40007040:	a2 04 60 01 	inc  %l1
40007044:	80 a6 80 11 	cmp  %i2, %l1
40007048:	34 bf ff f9 	bg,a   4000702c <_s2b+0x60>
4000704c:	d6 4e 40 11 	ldsb  [ %i1 + %l1 ], %o3
40007050:	a4 04 80 1a 	add  %l2, %i2, %l2
40007054:	a2 10 00 1a 	mov  %i2, %l1
40007058:	a4 04 bf f8 	add  %l2, -8, %l2
4000705c:	80 a6 c0 11 	cmp  %i3, %l1
40007060:	04 80 00 0d 	ble  40007094 <_s2b+0xc8>
40007064:	b4 10 20 00 	clr  %i2
40007068:	d6 4c 80 1a 	ldsb  [ %l2 + %i2 ], %o3
4000706c:	92 10 00 08 	mov  %o0, %o1
40007070:	96 02 ff d0 	add  %o3, -48, %o3
40007074:	90 10 00 10 	mov  %l0, %o0
40007078:	7f ff ff 56 	call  40006dd0 <_multadd>
4000707c:	94 10 20 0a 	mov  0xa, %o2
40007080:	b4 06 a0 01 	inc  %i2
40007084:	82 06 80 11 	add  %i2, %l1, %g1
40007088:	80 a6 c0 01 	cmp  %i3, %g1
4000708c:	34 bf ff f8 	bg,a   4000706c <_s2b+0xa0>
40007090:	d6 4c 80 1a 	ldsb  [ %l2 + %i2 ], %o3
40007094:	81 c7 e0 08 	ret 
40007098:	91 e8 00 08 	restore  %g0, %o0, %o0

4000709c <_realloc_r>:
4000709c:	9d e3 bf a0 	save  %sp, -96, %sp
400070a0:	80 a6 60 00 	cmp  %i1, 0
400070a4:	12 80 00 04 	bne  400070b4 <_realloc_r+0x18>
400070a8:	a0 10 00 18 	mov  %i0, %l0
400070ac:	7f ff f9 a9 	call  40005750 <_malloc_r>
400070b0:	93 e8 00 1a 	restore  %g0, %i2, %o1
400070b4:	7f ff fc 69 	call  40006258 <__malloc_lock>
400070b8:	90 10 00 18 	mov  %i0, %o0
400070bc:	ac 06 7f f8 	add  %i1, -8, %l6
400070c0:	c4 05 a0 04 	ld  [ %l6 + 4 ], %g2
400070c4:	a2 06 a0 0b 	add  %i2, 0xb, %l1
400070c8:	80 a4 60 16 	cmp  %l1, 0x16
400070cc:	18 80 00 09 	bgu  400070f0 <_realloc_r+0x54>
400070d0:	82 10 00 02 	mov  %g2, %g1
400070d4:	a2 10 20 10 	mov  0x10, %l1
400070d8:	88 10 20 00 	clr  %g4
400070dc:	80 a4 40 1a 	cmp  %l1, %i2
400070e0:	1a 80 00 09 	bcc  40007104 <_realloc_r+0x68>
400070e4:	86 10 20 10 	mov  0x10, %g3
400070e8:	81 c7 e0 08 	ret 
400070ec:	91 e8 20 00 	restore  %g0, 0, %o0
400070f0:	a2 0c 7f f8 	and  %l1, -8, %l1
400070f4:	86 10 00 11 	mov  %l1, %g3
400070f8:	80 a4 40 1a 	cmp  %l1, %i2
400070fc:	0a bf ff fb 	bcs  400070e8 <_realloc_r+0x4c>
40007100:	89 34 60 1f 	srl  %l1, 0x1f, %g4
40007104:	80 89 20 ff 	btst  0xff, %g4
40007108:	12 bf ff f8 	bne  400070e8 <_realloc_r+0x4c>
4000710c:	ae 08 bf fc 	and  %g2, -4, %l7
40007110:	80 a5 c0 03 	cmp  %l7, %g3
40007114:	16 80 00 54 	bge  40007264 <_realloc_r+0x1c8>
40007118:	a4 10 00 17 	mov  %l7, %l2
4000711c:	29 10 00 30 	sethi  %hi(0x4000c000), %l4
40007120:	a8 15 22 48 	or  %l4, 0x248, %l4	! 4000c248 <__malloc_av_>
40007124:	c8 05 20 08 	ld  [ %l4 + 8 ], %g4
40007128:	82 05 80 17 	add  %l6, %l7, %g1
4000712c:	80 a1 00 01 	cmp  %g4, %g1
40007130:	22 80 00 f5 	be,a   40007504 <_realloc_r+0x468>
40007134:	82 04 60 10 	add  %l1, 0x10, %g1
40007138:	ea 00 60 04 	ld  [ %g1 + 4 ], %l5
4000713c:	9a 0d 7f fe 	and  %l5, -2, %o5
40007140:	9a 00 40 0d 	add  %g1, %o5, %o5
40007144:	da 03 60 04 	ld  [ %o5 + 4 ], %o5
40007148:	80 8b 60 01 	btst  1, %o5
4000714c:	32 80 00 64 	bne,a   400072dc <_realloc_r+0x240>
40007150:	aa 10 20 00 	clr  %l5
40007154:	aa 0d 7f fc 	and  %l5, -4, %l5
40007158:	a4 05 40 17 	add  %l5, %l7, %l2
4000715c:	80 a4 80 03 	cmp  %l2, %g3
40007160:	36 80 00 61 	bge,a   400072e4 <_realloc_r+0x248>
40007164:	c8 00 60 08 	ld  [ %g1 + 8 ], %g4
40007168:	80 88 a0 01 	btst  1, %g2
4000716c:	12 80 00 a0 	bne  400073ec <_realloc_r+0x350>
40007170:	80 a0 60 00 	cmp  %g1, 0
40007174:	e6 06 7f f8 	ld  [ %i1 + -8 ], %l3
40007178:	a6 25 80 13 	sub  %l6, %l3, %l3
4000717c:	e4 04 e0 04 	ld  [ %l3 + 4 ], %l2
40007180:	02 80 00 f8 	be  40007560 <_realloc_r+0x4c4>
40007184:	a4 0c bf fc 	and  %l2, -4, %l2
40007188:	80 a0 40 04 	cmp  %g1, %g4
4000718c:	02 80 00 5d 	be  40007300 <_realloc_r+0x264>
40007190:	84 04 80 17 	add  %l2, %l7, %g2
40007194:	a4 05 40 02 	add  %l5, %g2, %l2
40007198:	80 a4 80 03 	cmp  %l2, %g3
4000719c:	36 80 00 c9 	bge,a   400074c0 <_realloc_r+0x424>
400071a0:	c4 00 60 08 	ld  [ %g1 + 8 ], %g2
400071a4:	a4 10 00 02 	mov  %g2, %l2
400071a8:	80 a4 80 03 	cmp  %l2, %g3
400071ac:	06 80 00 91 	bl  400073f0 <_realloc_r+0x354>
400071b0:	92 10 00 1a 	mov  %i2, %o1
400071b4:	c4 04 e0 0c 	ld  [ %l3 + 0xc ], %g2
400071b8:	c2 04 e0 08 	ld  [ %l3 + 8 ], %g1
400071bc:	94 05 ff fc 	add  %l7, -4, %o2
400071c0:	90 04 e0 08 	add  %l3, 8, %o0
400071c4:	c2 20 a0 08 	st  %g1, [ %g2 + 8 ]
400071c8:	80 a2 a0 24 	cmp  %o2, 0x24
400071cc:	18 80 00 c8 	bgu  400074ec <_realloc_r+0x450>
400071d0:	c4 20 60 0c 	st  %g2, [ %g1 + 0xc ]
400071d4:	80 a2 a0 13 	cmp  %o2, 0x13
400071d8:	82 10 00 19 	mov  %i1, %g1
400071dc:	08 80 00 18 	bleu  4000723c <_realloc_r+0x1a0>
400071e0:	86 10 00 08 	mov  %o0, %g3
400071e4:	c4 06 40 00 	ld  [ %i1 ], %g2
400071e8:	c4 24 e0 08 	st  %g2, [ %l3 + 8 ]
400071ec:	80 a2 a0 1b 	cmp  %o2, 0x1b
400071f0:	86 04 e0 10 	add  %l3, 0x10, %g3
400071f4:	c4 06 60 04 	ld  [ %i1 + 4 ], %g2
400071f8:	c4 24 e0 0c 	st  %g2, [ %l3 + 0xc ]
400071fc:	08 80 00 10 	bleu  4000723c <_realloc_r+0x1a0>
40007200:	82 06 60 08 	add  %i1, 8, %g1
40007204:	c4 06 60 08 	ld  [ %i1 + 8 ], %g2
40007208:	c4 24 e0 10 	st  %g2, [ %l3 + 0x10 ]
4000720c:	80 a2 a0 24 	cmp  %o2, 0x24
40007210:	86 04 e0 18 	add  %l3, 0x18, %g3
40007214:	c4 00 60 04 	ld  [ %g1 + 4 ], %g2
40007218:	c4 24 e0 14 	st  %g2, [ %l3 + 0x14 ]
4000721c:	12 80 00 08 	bne  4000723c <_realloc_r+0x1a0>
40007220:	82 00 60 08 	add  %g1, 8, %g1
40007224:	c4 00 40 00 	ld  [ %g1 ], %g2
40007228:	c4 24 e0 18 	st  %g2, [ %l3 + 0x18 ]
4000722c:	86 04 e0 20 	add  %l3, 0x20, %g3
40007230:	c4 00 60 04 	ld  [ %g1 + 4 ], %g2
40007234:	c4 24 e0 1c 	st  %g2, [ %l3 + 0x1c ]
40007238:	82 00 60 08 	add  %g1, 8, %g1
4000723c:	c4 00 40 00 	ld  [ %g1 ], %g2
40007240:	c4 20 c0 00 	st  %g2, [ %g3 ]
40007244:	b0 10 00 08 	mov  %o0, %i0
40007248:	84 10 00 13 	mov  %l3, %g2
4000724c:	c8 00 60 04 	ld  [ %g1 + 4 ], %g4
40007250:	c8 20 e0 04 	st  %g4, [ %g3 + 4 ]
40007254:	c2 00 60 08 	ld  [ %g1 + 8 ], %g1
40007258:	c2 20 e0 08 	st  %g1, [ %g3 + 8 ]
4000725c:	10 80 00 04 	b  4000726c <_realloc_r+0x1d0>
40007260:	c2 04 e0 04 	ld  [ %l3 + 4 ], %g1
40007264:	84 10 00 16 	mov  %l6, %g2
40007268:	b0 05 a0 08 	add  %l6, 8, %i0
4000726c:	86 24 80 11 	sub  %l2, %l1, %g3
40007270:	80 a0 e0 0f 	cmp  %g3, 0xf
40007274:	18 80 00 0d 	bgu  400072a8 <_realloc_r+0x20c>
40007278:	92 00 80 11 	add  %g2, %l1, %o1
4000727c:	82 08 60 01 	and  %g1, 1, %g1
40007280:	82 10 40 12 	or  %g1, %l2, %g1
40007284:	c2 20 a0 04 	st  %g1, [ %g2 + 4 ]
40007288:	a4 00 80 12 	add  %g2, %l2, %l2
4000728c:	c2 04 a0 04 	ld  [ %l2 + 4 ], %g1
40007290:	82 10 60 01 	or  %g1, 1, %g1
40007294:	c2 24 a0 04 	st  %g1, [ %l2 + 4 ]
40007298:	7f ff fb ea 	call  40006240 <__malloc_unlock>
4000729c:	90 10 00 10 	mov  %l0, %o0
400072a0:	81 c7 e0 08 	ret 
400072a4:	81 e8 00 00 	restore 
400072a8:	82 08 60 01 	and  %g1, 1, %g1
400072ac:	a2 10 40 11 	or  %g1, %l1, %l1
400072b0:	e2 20 a0 04 	st  %l1, [ %g2 + 4 ]
400072b4:	82 10 e0 01 	or  %g3, 1, %g1
400072b8:	c2 22 60 04 	st  %g1, [ %o1 + 4 ]
400072bc:	82 02 40 03 	add  %o1, %g3, %g1
400072c0:	90 10 00 10 	mov  %l0, %o0
400072c4:	c4 00 60 04 	ld  [ %g1 + 4 ], %g2
400072c8:	84 10 a0 01 	or  %g2, 1, %g2
400072cc:	c4 20 60 04 	st  %g2, [ %g1 + 4 ]
400072d0:	7f ff f6 6e 	call  40004c88 <_free_r>
400072d4:	92 02 60 08 	add  %o1, 8, %o1
400072d8:	30 bf ff f0 	b,a   40007298 <_realloc_r+0x1fc>
400072dc:	10 bf ff a3 	b  40007168 <_realloc_r+0xcc>
400072e0:	82 10 20 00 	clr  %g1
400072e4:	c6 00 60 0c 	ld  [ %g1 + 0xc ], %g3
400072e8:	b0 05 a0 08 	add  %l6, 8, %i0
400072ec:	82 10 00 02 	mov  %g2, %g1
400072f0:	c6 21 20 0c 	st  %g3, [ %g4 + 0xc ]
400072f4:	84 10 00 16 	mov  %l6, %g2
400072f8:	10 bf ff dd 	b  4000726c <_realloc_r+0x1d0>
400072fc:	c8 20 e0 08 	st  %g4, [ %g3 + 8 ]
40007300:	a4 04 80 17 	add  %l2, %l7, %l2
40007304:	82 04 60 10 	add  %l1, 0x10, %g1
40007308:	aa 05 40 12 	add  %l5, %l2, %l5
4000730c:	80 a5 40 01 	cmp  %l5, %g1
40007310:	06 bf ff a7 	bl  400071ac <_realloc_r+0x110>
40007314:	80 a4 80 03 	cmp  %l2, %g3
40007318:	c4 04 e0 0c 	ld  [ %l3 + 0xc ], %g2
4000731c:	c2 04 e0 08 	ld  [ %l3 + 8 ], %g1
40007320:	94 05 ff fc 	add  %l7, -4, %o2
40007324:	b0 04 e0 08 	add  %l3, 8, %i0
40007328:	c2 20 a0 08 	st  %g1, [ %g2 + 8 ]
4000732c:	80 a2 a0 24 	cmp  %o2, 0x24
40007330:	18 80 00 94 	bgu  40007580 <_realloc_r+0x4e4>
40007334:	c4 20 60 0c 	st  %g2, [ %g1 + 0xc ]
40007338:	80 a2 a0 13 	cmp  %o2, 0x13
4000733c:	82 10 00 19 	mov  %i1, %g1
40007340:	08 80 00 18 	bleu  400073a0 <_realloc_r+0x304>
40007344:	84 10 00 18 	mov  %i0, %g2
40007348:	c4 06 40 00 	ld  [ %i1 ], %g2
4000734c:	c4 24 e0 08 	st  %g2, [ %l3 + 8 ]
40007350:	80 a2 a0 1b 	cmp  %o2, 0x1b
40007354:	84 04 e0 10 	add  %l3, 0x10, %g2
40007358:	c6 06 60 04 	ld  [ %i1 + 4 ], %g3
4000735c:	c6 24 e0 0c 	st  %g3, [ %l3 + 0xc ]
40007360:	08 80 00 10 	bleu  400073a0 <_realloc_r+0x304>
40007364:	82 06 60 08 	add  %i1, 8, %g1
40007368:	c4 06 60 08 	ld  [ %i1 + 8 ], %g2
4000736c:	c4 24 e0 10 	st  %g2, [ %l3 + 0x10 ]
40007370:	80 a2 a0 24 	cmp  %o2, 0x24
40007374:	84 04 e0 18 	add  %l3, 0x18, %g2
40007378:	c6 00 60 04 	ld  [ %g1 + 4 ], %g3
4000737c:	c6 24 e0 14 	st  %g3, [ %l3 + 0x14 ]
40007380:	12 80 00 08 	bne  400073a0 <_realloc_r+0x304>
40007384:	82 00 60 08 	add  %g1, 8, %g1
40007388:	c4 00 40 00 	ld  [ %g1 ], %g2
4000738c:	c4 24 e0 18 	st  %g2, [ %l3 + 0x18 ]
40007390:	84 04 e0 20 	add  %l3, 0x20, %g2
40007394:	c6 00 60 04 	ld  [ %g1 + 4 ], %g3
40007398:	c6 24 e0 1c 	st  %g3, [ %l3 + 0x1c ]
4000739c:	82 00 60 08 	add  %g1, 8, %g1
400073a0:	c6 00 40 00 	ld  [ %g1 ], %g3
400073a4:	c6 20 80 00 	st  %g3, [ %g2 ]
400073a8:	c6 00 60 04 	ld  [ %g1 + 4 ], %g3
400073ac:	c6 20 a0 04 	st  %g3, [ %g2 + 4 ]
400073b0:	c2 00 60 08 	ld  [ %g1 + 8 ], %g1
400073b4:	c2 20 a0 08 	st  %g1, [ %g2 + 8 ]
400073b8:	82 04 c0 11 	add  %l3, %l1, %g1
400073bc:	84 25 40 11 	sub  %l5, %l1, %g2
400073c0:	84 10 a0 01 	or  %g2, 1, %g2
400073c4:	c4 20 60 04 	st  %g2, [ %g1 + 4 ]
400073c8:	c2 25 20 08 	st  %g1, [ %l4 + 8 ]
400073cc:	90 10 00 10 	mov  %l0, %o0
400073d0:	c2 04 e0 04 	ld  [ %l3 + 4 ], %g1
400073d4:	82 08 60 01 	and  %g1, 1, %g1
400073d8:	a2 14 40 01 	or  %l1, %g1, %l1
400073dc:	7f ff fb 99 	call  40006240 <__malloc_unlock>
400073e0:	e2 24 e0 04 	st  %l1, [ %l3 + 4 ]
400073e4:	81 c7 e0 08 	ret 
400073e8:	81 e8 00 00 	restore 
400073ec:	92 10 00 1a 	mov  %i2, %o1
400073f0:	7f ff f8 d8 	call  40005750 <_malloc_r>
400073f4:	90 10 00 10 	mov  %l0, %o0
400073f8:	b0 92 20 00 	orcc  %o0, 0, %i0
400073fc:	02 80 00 2d 	be  400074b0 <_realloc_r+0x414>
40007400:	84 06 3f f8 	add  %i0, -8, %g2
40007404:	c2 05 a0 04 	ld  [ %l6 + 4 ], %g1
40007408:	86 08 7f fe 	and  %g1, -2, %g3
4000740c:	86 05 80 03 	add  %l6, %g3, %g3
40007410:	80 a0 80 03 	cmp  %g2, %g3
40007414:	02 80 00 55 	be  40007568 <_realloc_r+0x4cc>
40007418:	94 05 ff fc 	add  %l7, -4, %o2
4000741c:	80 a2 a0 24 	cmp  %o2, 0x24
40007420:	18 80 00 4c 	bgu  40007550 <_realloc_r+0x4b4>
40007424:	80 a2 a0 13 	cmp  %o2, 0x13
40007428:	84 10 00 19 	mov  %i1, %g2
4000742c:	08 80 00 18 	bleu  4000748c <_realloc_r+0x3f0>
40007430:	82 10 00 18 	mov  %i0, %g1
40007434:	c2 06 40 00 	ld  [ %i1 ], %g1
40007438:	c2 26 00 00 	st  %g1, [ %i0 ]
4000743c:	80 a2 a0 1b 	cmp  %o2, 0x1b
40007440:	82 06 20 08 	add  %i0, 8, %g1
40007444:	c4 06 60 04 	ld  [ %i1 + 4 ], %g2
40007448:	c4 26 20 04 	st  %g2, [ %i0 + 4 ]
4000744c:	08 80 00 10 	bleu  4000748c <_realloc_r+0x3f0>
40007450:	84 06 60 08 	add  %i1, 8, %g2
40007454:	c2 06 60 08 	ld  [ %i1 + 8 ], %g1
40007458:	c2 26 20 08 	st  %g1, [ %i0 + 8 ]
4000745c:	80 a2 a0 24 	cmp  %o2, 0x24
40007460:	82 06 20 10 	add  %i0, 0x10, %g1
40007464:	c4 06 60 0c 	ld  [ %i1 + 0xc ], %g2
40007468:	c4 26 20 0c 	st  %g2, [ %i0 + 0xc ]
4000746c:	12 80 00 08 	bne  4000748c <_realloc_r+0x3f0>
40007470:	84 06 60 10 	add  %i1, 0x10, %g2
40007474:	c2 06 60 10 	ld  [ %i1 + 0x10 ], %g1
40007478:	c2 26 20 10 	st  %g1, [ %i0 + 0x10 ]
4000747c:	84 06 60 18 	add  %i1, 0x18, %g2
40007480:	82 06 20 18 	add  %i0, 0x18, %g1
40007484:	c6 06 60 14 	ld  [ %i1 + 0x14 ], %g3
40007488:	c6 26 20 14 	st  %g3, [ %i0 + 0x14 ]
4000748c:	c6 00 80 00 	ld  [ %g2 ], %g3
40007490:	c6 20 40 00 	st  %g3, [ %g1 ]
40007494:	c6 00 a0 04 	ld  [ %g2 + 4 ], %g3
40007498:	c6 20 60 04 	st  %g3, [ %g1 + 4 ]
4000749c:	c4 00 a0 08 	ld  [ %g2 + 8 ], %g2
400074a0:	c4 20 60 08 	st  %g2, [ %g1 + 8 ]
400074a4:	92 10 00 19 	mov  %i1, %o1
400074a8:	7f ff f5 f8 	call  40004c88 <_free_r>
400074ac:	90 10 00 10 	mov  %l0, %o0
400074b0:	7f ff fb 64 	call  40006240 <__malloc_unlock>
400074b4:	90 10 00 10 	mov  %l0, %o0
400074b8:	81 c7 e0 08 	ret 
400074bc:	81 e8 00 00 	restore 
400074c0:	c2 00 60 0c 	ld  [ %g1 + 0xc ], %g1
400074c4:	94 05 ff fc 	add  %l7, -4, %o2
400074c8:	90 04 e0 08 	add  %l3, 8, %o0
400074cc:	c2 20 a0 0c 	st  %g1, [ %g2 + 0xc ]
400074d0:	c4 20 60 08 	st  %g2, [ %g1 + 8 ]
400074d4:	80 a2 a0 24 	cmp  %o2, 0x24
400074d8:	c4 04 e0 0c 	ld  [ %l3 + 0xc ], %g2
400074dc:	c2 04 e0 08 	ld  [ %l3 + 8 ], %g1
400074e0:	c2 20 a0 08 	st  %g1, [ %g2 + 8 ]
400074e4:	08 bf ff 3c 	bleu  400071d4 <_realloc_r+0x138>
400074e8:	c4 20 60 0c 	st  %g2, [ %g1 + 0xc ]
400074ec:	92 10 00 19 	mov  %i1, %o1
400074f0:	7f ff fa 8a 	call  40005f18 <memcpy>
400074f4:	b0 10 00 08 	mov  %o0, %i0
400074f8:	84 10 00 13 	mov  %l3, %g2
400074fc:	10 bf ff 5c 	b  4000726c <_realloc_r+0x1d0>
40007500:	c2 04 e0 04 	ld  [ %l3 + 4 ], %g1
40007504:	ea 01 20 04 	ld  [ %g4 + 4 ], %l5
40007508:	aa 0d 7f fc 	and  %l5, -4, %l5
4000750c:	9a 05 40 17 	add  %l5, %l7, %o5
40007510:	80 a3 40 01 	cmp  %o5, %g1
40007514:	06 bf ff 15 	bl  40007168 <_realloc_r+0xcc>
40007518:	82 10 00 04 	mov  %g4, %g1
4000751c:	82 05 80 11 	add  %l6, %l1, %g1
40007520:	84 23 40 11 	sub  %o5, %l1, %g2
40007524:	84 10 a0 01 	or  %g2, 1, %g2
40007528:	c4 20 60 04 	st  %g2, [ %g1 + 4 ]
4000752c:	c2 25 20 08 	st  %g1, [ %l4 + 8 ]
40007530:	90 10 00 10 	mov  %l0, %o0
40007534:	c2 05 a0 04 	ld  [ %l6 + 4 ], %g1
40007538:	82 08 60 01 	and  %g1, 1, %g1
4000753c:	a2 14 40 01 	or  %l1, %g1, %l1
40007540:	7f ff fb 40 	call  40006240 <__malloc_unlock>
40007544:	e2 25 a0 04 	st  %l1, [ %l6 + 4 ]
40007548:	81 c7 e0 08 	ret 
4000754c:	91 e8 00 19 	restore  %g0, %i1, %o0
40007550:	7f ff fa 72 	call  40005f18 <memcpy>
40007554:	92 10 00 19 	mov  %i1, %o1
40007558:	10 bf ff d4 	b  400074a8 <_realloc_r+0x40c>
4000755c:	92 10 00 19 	mov  %i1, %o1
40007560:	10 bf ff 12 	b  400071a8 <_realloc_r+0x10c>
40007564:	a4 04 80 17 	add  %l2, %l7, %l2
40007568:	e4 00 a0 04 	ld  [ %g2 + 4 ], %l2
4000756c:	a4 0c bf fc 	and  %l2, -4, %l2
40007570:	84 10 00 16 	mov  %l6, %g2
40007574:	a4 04 80 17 	add  %l2, %l7, %l2
40007578:	10 bf ff 3d 	b  4000726c <_realloc_r+0x1d0>
4000757c:	b0 05 a0 08 	add  %l6, 8, %i0
40007580:	92 10 00 19 	mov  %i1, %o1
40007584:	7f ff fa 65 	call  40005f18 <memcpy>
40007588:	90 10 00 18 	mov  %i0, %o0
4000758c:	10 bf ff 8c 	b  400073bc <_realloc_r+0x320>
40007590:	82 04 c0 11 	add  %l3, %l1, %g1

40007594 <_sbrk_r>:
40007594:	9d e3 bf a0 	save  %sp, -96, %sp
40007598:	21 10 00 32 	sethi  %hi(0x4000c800), %l0
4000759c:	90 10 00 19 	mov  %i1, %o0
400075a0:	40 00 09 58 	call  40009b00 <sbrk>
400075a4:	c0 24 23 3c 	clr  [ %l0 + 0x33c ]
400075a8:	80 a2 3f ff 	cmp  %o0, -1
400075ac:	02 80 00 04 	be  400075bc <_sbrk_r+0x28>
400075b0:	c2 04 23 3c 	ld  [ %l0 + 0x33c ], %g1
400075b4:	81 c7 e0 08 	ret 
400075b8:	91 e8 00 08 	restore  %g0, %o0, %o0
400075bc:	80 a0 60 00 	cmp  %g1, 0
400075c0:	02 bf ff fd 	be  400075b4 <_sbrk_r+0x20>
400075c4:	01 00 00 00 	nop 
400075c8:	c2 26 00 00 	st  %g1, [ %i0 ]
400075cc:	81 c7 e0 08 	ret 
400075d0:	91 e8 00 08 	restore  %g0, %o0, %o0

400075d4 <isinf>:
400075d4:	82 20 00 09 	neg  %o1, %g1
400075d8:	05 1f fc 00 	sethi  %hi(0x7ff00000), %g2
400075dc:	82 10 40 09 	or  %g1, %o1, %g1
400075e0:	09 20 00 00 	sethi  %hi(0x80000000), %g4
400075e4:	83 30 60 1f 	srl  %g1, 0x1f, %g1
400075e8:	88 2a 00 04 	andn  %o0, %g4, %g4
400075ec:	82 10 40 04 	or  %g1, %g4, %g1
400075f0:	82 20 80 01 	sub  %g2, %g1, %g1
400075f4:	90 20 00 01 	neg  %g1, %o0
400075f8:	82 12 00 01 	or  %o0, %g1, %g1
400075fc:	91 38 60 1f 	sra  %g1, 0x1f, %o0
40007600:	81 c3 e0 08 	retl 
40007604:	90 02 20 01 	inc  %o0

40007608 <isnan>:
40007608:	03 20 00 00 	sethi  %hi(0x80000000), %g1
4000760c:	82 2a 00 01 	andn  %o0, %g1, %g1
40007610:	90 20 00 09 	neg  %o1, %o0
40007614:	90 12 00 09 	or  %o0, %o1, %o0
40007618:	91 32 20 1f 	srl  %o0, 0x1f, %o0
4000761c:	90 12 00 01 	or  %o0, %g1, %o0
40007620:	03 1f fc 00 	sethi  %hi(0x7ff00000), %g1
40007624:	90 20 40 08 	sub  %g1, %o0, %o0
40007628:	81 c3 e0 08 	retl 
4000762c:	91 32 20 1f 	srl  %o0, 0x1f, %o0

40007630 <__sclose>:
40007630:	d2 52 20 0e 	ldsh  [ %o0 + 0xe ], %o1
40007634:	03 10 00 2f 	sethi  %hi(0x4000bc00), %g1
40007638:	d0 00 60 d8 	ld  [ %g1 + 0xd8 ], %o0	! 4000bcd8 <_impure_ptr>
4000763c:	82 13 c0 00 	mov  %o7, %g1
40007640:	40 00 00 dc 	call  400079b0 <_close_r>
40007644:	9e 10 40 00 	mov  %g1, %o7
40007648:	01 00 00 00 	nop 

4000764c <__sseek>:
4000764c:	9d e3 bf a0 	save  %sp, -96, %sp
40007650:	03 10 00 2f 	sethi  %hi(0x4000bc00), %g1
40007654:	d2 56 20 0e 	ldsh  [ %i0 + 0xe ], %o1
40007658:	d0 00 60 d8 	ld  [ %g1 + 0xd8 ], %o0
4000765c:	94 10 00 19 	mov  %i1, %o2
40007660:	40 00 01 58 	call  40007bc0 <_lseek_r>
40007664:	96 10 00 1a 	mov  %i2, %o3
40007668:	80 a2 3f ff 	cmp  %o0, -1
4000766c:	02 80 00 08 	be  4000768c <__sseek+0x40>
40007670:	03 00 00 04 	sethi  %hi(0x1000), %g1
40007674:	c4 16 20 0c 	lduh  [ %i0 + 0xc ], %g2
40007678:	82 10 80 01 	or  %g2, %g1, %g1
4000767c:	d0 26 20 50 	st  %o0, [ %i0 + 0x50 ]
40007680:	c2 36 20 0c 	sth  %g1, [ %i0 + 0xc ]
40007684:	81 c7 e0 08 	ret 
40007688:	91 e8 00 08 	restore  %g0, %o0, %o0
4000768c:	c2 16 20 0c 	lduh  [ %i0 + 0xc ], %g1
40007690:	05 00 00 04 	sethi  %hi(0x1000), %g2
40007694:	82 28 40 02 	andn  %g1, %g2, %g1
40007698:	c2 36 20 0c 	sth  %g1, [ %i0 + 0xc ]
4000769c:	81 c7 e0 08 	ret 
400076a0:	91 e8 00 08 	restore  %g0, %o0, %o0

400076a4 <__swrite>:
400076a4:	9d e3 bf a0 	save  %sp, -96, %sp
400076a8:	c2 16 20 0c 	lduh  [ %i0 + 0xc ], %g1
400076ac:	a0 10 00 18 	mov  %i0, %l0
400076b0:	80 88 61 00 	btst  0x100, %g1
400076b4:	a2 10 00 19 	mov  %i1, %l1
400076b8:	b6 10 00 1a 	mov  %i2, %i3
400076bc:	02 80 00 08 	be  400076dc <__swrite+0x38>
400076c0:	25 10 00 2f 	sethi  %hi(0x4000bc00), %l2
400076c4:	d0 04 a0 d8 	ld  [ %l2 + 0xd8 ], %o0	! 4000bcd8 <_impure_ptr>
400076c8:	d2 56 20 0e 	ldsh  [ %i0 + 0xe ], %o1
400076cc:	94 10 20 00 	clr  %o2
400076d0:	40 00 01 3c 	call  40007bc0 <_lseek_r>
400076d4:	96 10 20 02 	mov  2, %o3
400076d8:	c2 16 20 0c 	lduh  [ %i0 + 0xc ], %g1
400076dc:	05 00 00 04 	sethi  %hi(0x1000), %g2
400076e0:	82 28 40 02 	andn  %g1, %g2, %g1
400076e4:	f0 04 a0 d8 	ld  [ %l2 + 0xd8 ], %i0
400076e8:	f2 54 20 0e 	ldsh  [ %l0 + 0xe ], %i1
400076ec:	c2 34 20 0c 	sth  %g1, [ %l0 + 0xc ]
400076f0:	40 00 00 76 	call  400078c8 <_write_r>
400076f4:	95 e8 00 11 	restore  %g0, %l1, %o2
400076f8:	01 00 00 00 	nop 

400076fc <__sread>:
400076fc:	9d e3 bf a0 	save  %sp, -96, %sp
40007700:	03 10 00 2f 	sethi  %hi(0x4000bc00), %g1
40007704:	d2 56 20 0e 	ldsh  [ %i0 + 0xe ], %o1
40007708:	d0 00 60 d8 	ld  [ %g1 + 0xd8 ], %o0
4000770c:	94 10 00 19 	mov  %i1, %o2
40007710:	40 00 01 3e 	call  40007c08 <_read_r>
40007714:	96 10 00 1a 	mov  %i2, %o3
40007718:	80 a2 20 00 	cmp  %o0, 0
4000771c:	26 80 00 07 	bl,a   40007738 <__sread+0x3c>
40007720:	c2 16 20 0c 	lduh  [ %i0 + 0xc ], %g1
40007724:	c2 06 20 50 	ld  [ %i0 + 0x50 ], %g1
40007728:	82 00 40 08 	add  %g1, %o0, %g1
4000772c:	c2 26 20 50 	st  %g1, [ %i0 + 0x50 ]
40007730:	81 c7 e0 08 	ret 
40007734:	91 e8 00 08 	restore  %g0, %o0, %o0
40007738:	05 00 00 04 	sethi  %hi(0x1000), %g2
4000773c:	82 28 40 02 	andn  %g1, %g2, %g1
40007740:	c2 36 20 0c 	sth  %g1, [ %i0 + 0xc ]
40007744:	81 c7 e0 08 	ret 
40007748:	91 e8 00 08 	restore  %g0, %o0, %o0

4000774c <strcmp>:
4000774c:	82 12 40 08 	or  %o1, %o0, %g1
40007750:	80 88 60 03 	btst  3, %g1
40007754:	32 80 00 1e 	bne,a   400077cc <strcmp+0x80>
40007758:	c2 4a 00 00 	ldsb  [ %o0 ], %g1
4000775c:	c2 02 00 00 	ld  [ %o0 ], %g1
40007760:	c4 02 40 00 	ld  [ %o1 ], %g2
40007764:	80 a0 40 02 	cmp  %g1, %g2
40007768:	12 80 00 18 	bne  400077c8 <strcmp+0x7c>
4000776c:	05 3f bf bf 	sethi  %hi(0xfefefc00), %g2
40007770:	07 20 20 20 	sethi  %hi(0x80808000), %g3
40007774:	84 10 a2 ff 	or  %g2, 0x2ff, %g2
40007778:	86 10 e0 80 	or  %g3, 0x80, %g3
4000777c:	88 10 00 02 	mov  %g2, %g4
40007780:	84 00 40 02 	add  %g1, %g2, %g2
40007784:	82 28 80 01 	andn  %g2, %g1, %g1
40007788:	80 88 40 03 	btst  %g1, %g3
4000778c:	22 80 00 09 	be,a   400077b0 <strcmp+0x64>
40007790:	90 02 20 04 	add  %o0, 4, %o0
40007794:	81 c3 e0 08 	retl 
40007798:	90 10 20 00 	clr  %o0
4000779c:	82 28 80 01 	andn  %g2, %g1, %g1
400077a0:	80 88 40 03 	btst  %g1, %g3
400077a4:	32 80 00 22 	bne,a   4000782c <strcmp+0xe0>
400077a8:	90 10 20 00 	clr  %o0
400077ac:	90 02 20 04 	add  %o0, 4, %o0
400077b0:	92 02 60 04 	add  %o1, 4, %o1
400077b4:	c2 02 00 00 	ld  [ %o0 ], %g1
400077b8:	c4 02 40 00 	ld  [ %o1 ], %g2
400077bc:	80 a0 40 02 	cmp  %g1, %g2
400077c0:	02 bf ff f7 	be  4000779c <strcmp+0x50>
400077c4:	84 00 40 04 	add  %g1, %g4, %g2
400077c8:	c2 4a 00 00 	ldsb  [ %o0 ], %g1
400077cc:	80 a0 60 00 	cmp  %g1, 0
400077d0:	12 80 00 0a 	bne  400077f8 <strcmp+0xac>
400077d4:	c6 0a 00 00 	ldub  [ %o0 ], %g3
400077d8:	10 80 00 11 	b  4000781c <strcmp+0xd0>
400077dc:	c2 0a 40 00 	ldub  [ %o1 ], %g1
400077e0:	90 02 20 01 	inc  %o0
400077e4:	c2 4a 00 00 	ldsb  [ %o0 ], %g1
400077e8:	92 02 60 01 	inc  %o1
400077ec:	80 a0 60 00 	cmp  %g1, 0
400077f0:	02 80 00 0a 	be  40007818 <strcmp+0xcc>
400077f4:	c6 0a 00 00 	ldub  [ %o0 ], %g3
400077f8:	c4 4a 40 00 	ldsb  [ %o1 ], %g2
400077fc:	80 a0 40 02 	cmp  %g1, %g2
40007800:	02 bf ff f8 	be  400077e0 <strcmp+0x94>
40007804:	c2 0a 40 00 	ldub  [ %o1 ], %g1
40007808:	86 08 e0 ff 	and  %g3, 0xff, %g3
4000780c:	82 08 60 ff 	and  %g1, 0xff, %g1
40007810:	81 c3 e0 08 	retl 
40007814:	90 20 c0 01 	sub  %g3, %g1, %o0
40007818:	c2 0a 40 00 	ldub  [ %o1 ], %g1
4000781c:	86 08 e0 ff 	and  %g3, 0xff, %g3
40007820:	82 08 60 ff 	and  %g1, 0xff, %g1
40007824:	81 c3 e0 08 	retl 
40007828:	90 20 c0 01 	sub  %g3, %g1, %o0
4000782c:	81 c3 e0 08 	retl 
40007830:	01 00 00 00 	nop 

40007834 <strlen>:
40007834:	9d e3 bf a0 	save  %sp, -96, %sp
40007838:	80 8e 20 03 	btst  3, %i0
4000783c:	12 80 00 1c 	bne  400078ac <strlen+0x78>
40007840:	82 10 00 18 	mov  %i0, %g1
40007844:	c2 06 00 00 	ld  [ %i0 ], %g1
40007848:	1b 3f bf bf 	sethi  %hi(0xfefefc00), %o5
4000784c:	9a 13 62 ff 	or  %o5, 0x2ff, %o5	! fefefeff <__end+0xbefe33a7>
40007850:	84 00 40 0d 	add  %g1, %o5, %g2
40007854:	82 28 80 01 	andn  %g2, %g1, %g1
40007858:	09 20 20 20 	sethi  %hi(0x80808000), %g4
4000785c:	88 11 20 80 	or  %g4, 0x80, %g4	! 80808080 <__end+0x407fb528>
40007860:	80 88 40 04 	btst  %g1, %g4
40007864:	12 80 00 12 	bne  400078ac <strlen+0x78>
40007868:	82 10 00 18 	mov  %i0, %g1
4000786c:	82 00 60 04 	add  %g1, 4, %g1
40007870:	c4 00 40 00 	ld  [ %g1 ], %g2
40007874:	86 00 80 0d 	add  %g2, %o5, %g3
40007878:	84 28 c0 02 	andn  %g3, %g2, %g2
4000787c:	80 88 80 04 	btst  %g2, %g4
40007880:	32 80 00 0c 	bne,a   400078b0 <strlen+0x7c>
40007884:	c4 48 40 00 	ldsb  [ %g1 ], %g2
40007888:	82 00 60 04 	add  %g1, 4, %g1
4000788c:	c4 00 40 00 	ld  [ %g1 ], %g2
40007890:	86 00 80 0d 	add  %g2, %o5, %g3
40007894:	84 28 c0 02 	andn  %g3, %g2, %g2
40007898:	80 88 80 04 	btst  %g2, %g4
4000789c:	22 bf ff f5 	be,a   40007870 <strlen+0x3c>
400078a0:	82 00 60 04 	add  %g1, 4, %g1
400078a4:	10 80 00 03 	b  400078b0 <strlen+0x7c>
400078a8:	c4 48 40 00 	ldsb  [ %g1 ], %g2
400078ac:	c4 48 40 00 	ldsb  [ %g1 ], %g2
400078b0:	80 a0 a0 00 	cmp  %g2, 0
400078b4:	32 bf ff fe 	bne,a   400078ac <strlen+0x78>
400078b8:	82 00 60 01 	inc  %g1
400078bc:	b0 20 40 18 	sub  %g1, %i0, %i0
400078c0:	81 c7 e0 08 	ret 
400078c4:	81 e8 00 00 	restore 

400078c8 <_write_r>:
400078c8:	9d e3 bf a0 	save  %sp, -96, %sp
400078cc:	21 10 00 32 	sethi  %hi(0x4000c800), %l0
400078d0:	90 10 00 19 	mov  %i1, %o0
400078d4:	92 10 00 1a 	mov  %i2, %o1
400078d8:	c0 24 23 3c 	clr  [ %l0 + 0x33c ]
400078dc:	40 00 08 98 	call  40009b3c <write>
400078e0:	94 10 00 1b 	mov  %i3, %o2
400078e4:	80 a2 3f ff 	cmp  %o0, -1
400078e8:	02 80 00 04 	be  400078f8 <_write_r+0x30>
400078ec:	c2 04 23 3c 	ld  [ %l0 + 0x33c ], %g1
400078f0:	81 c7 e0 08 	ret 
400078f4:	91 e8 00 08 	restore  %g0, %o0, %o0
400078f8:	80 a0 60 00 	cmp  %g1, 0
400078fc:	02 bf ff fd 	be  400078f0 <_write_r+0x28>
40007900:	01 00 00 00 	nop 
40007904:	c2 26 00 00 	st  %g1, [ %i0 ]
40007908:	81 c7 e0 08 	ret 
4000790c:	91 e8 00 08 	restore  %g0, %o0, %o0

40007910 <_calloc_r>:
40007910:	9d e3 bf a0 	save  %sp, -96, %sp
40007914:	92 10 00 19 	mov  %i1, %o1
40007918:	40 00 01 3c 	call  40007e08 <.umul>
4000791c:	90 10 00 1a 	mov  %i2, %o0
40007920:	92 10 00 08 	mov  %o0, %o1
40007924:	7f ff f7 8b 	call  40005750 <_malloc_r>
40007928:	90 10 00 18 	mov  %i0, %o0
4000792c:	b0 92 20 00 	orcc  %o0, 0, %i0
40007930:	02 80 00 1e 	be  400079a8 <_calloc_r+0x98>
40007934:	01 00 00 00 	nop 
40007938:	d4 06 3f fc 	ld  [ %i0 + -4 ], %o2
4000793c:	94 0a bf fc 	and  %o2, -4, %o2
40007940:	94 02 bf fc 	add  %o2, -4, %o2
40007944:	80 a2 a0 24 	cmp  %o2, 0x24
40007948:	18 80 00 16 	bgu  400079a0 <_calloc_r+0x90>
4000794c:	80 a2 a0 13 	cmp  %o2, 0x13
40007950:	08 80 00 0f 	bleu  4000798c <_calloc_r+0x7c>
40007954:	82 10 00 18 	mov  %i0, %g1
40007958:	c0 26 00 00 	clr  [ %i0 ]
4000795c:	c0 26 20 04 	clr  [ %i0 + 4 ]
40007960:	80 a2 a0 1b 	cmp  %o2, 0x1b
40007964:	08 80 00 0a 	bleu  4000798c <_calloc_r+0x7c>
40007968:	82 06 20 08 	add  %i0, 8, %g1
4000796c:	c0 26 20 08 	clr  [ %i0 + 8 ]
40007970:	c0 26 20 0c 	clr  [ %i0 + 0xc ]
40007974:	80 a2 a0 24 	cmp  %o2, 0x24
40007978:	12 80 00 05 	bne  4000798c <_calloc_r+0x7c>
4000797c:	82 06 20 10 	add  %i0, 0x10, %g1
40007980:	c0 26 20 10 	clr  [ %i0 + 0x10 ]
40007984:	c0 26 20 14 	clr  [ %i0 + 0x14 ]
40007988:	82 06 20 18 	add  %i0, 0x18, %g1
4000798c:	c0 20 60 08 	clr  [ %g1 + 8 ]
40007990:	c0 20 40 00 	clr  [ %g1 ]
40007994:	c0 20 60 04 	clr  [ %g1 + 4 ]
40007998:	81 c7 e0 08 	ret 
4000799c:	81 e8 00 00 	restore 
400079a0:	7f ff f9 f1 	call  40006164 <memset>
400079a4:	92 10 20 00 	clr  %o1
400079a8:	81 c7 e0 08 	ret 
400079ac:	81 e8 00 00 	restore 

400079b0 <_close_r>:
400079b0:	9d e3 bf a0 	save  %sp, -96, %sp
400079b4:	21 10 00 32 	sethi  %hi(0x4000c800), %l0
400079b8:	90 10 00 19 	mov  %i1, %o0
400079bc:	40 00 08 2a 	call  40009a64 <close>
400079c0:	c0 24 23 3c 	clr  [ %l0 + 0x33c ]
400079c4:	80 a2 3f ff 	cmp  %o0, -1
400079c8:	02 80 00 04 	be  400079d8 <_close_r+0x28>
400079cc:	c2 04 23 3c 	ld  [ %l0 + 0x33c ], %g1
400079d0:	81 c7 e0 08 	ret 
400079d4:	91 e8 00 08 	restore  %g0, %o0, %o0
400079d8:	80 a0 60 00 	cmp  %g1, 0
400079dc:	02 bf ff fd 	be  400079d0 <_close_r+0x20>
400079e0:	01 00 00 00 	nop 
400079e4:	c2 26 00 00 	st  %g1, [ %i0 ]
400079e8:	81 c7 e0 08 	ret 
400079ec:	91 e8 00 08 	restore  %g0, %o0, %o0

400079f0 <_fclose_r>:
400079f0:	9d e3 bf a0 	save  %sp, -96, %sp
400079f4:	80 a6 60 00 	cmp  %i1, 0
400079f8:	02 80 00 3e 	be  40007af0 <_fclose_r+0x100>
400079fc:	a0 10 20 00 	clr  %l0
40007a00:	7f ff f3 c0 	call  40004900 <__sfp_lock_acquire>
40007a04:	a4 06 60 58 	add  %i1, 0x58, %l2
40007a08:	c2 16 60 0c 	lduh  [ %i1 + 0xc ], %g1
40007a0c:	80 88 62 00 	btst  0x200, %g1
40007a10:	02 80 00 3a 	be  40007af8 <_fclose_r+0x108>
40007a14:	01 00 00 00 	nop 
40007a18:	23 10 00 2f 	sethi  %hi(0x4000bc00), %l1
40007a1c:	d0 04 60 d8 	ld  [ %l1 + 0xd8 ], %o0	! 4000bcd8 <_impure_ptr>
40007a20:	80 a2 20 00 	cmp  %o0, 0
40007a24:	22 80 00 07 	be,a   40007a40 <_fclose_r+0x50>
40007a28:	c2 16 60 0c 	lduh  [ %i1 + 0xc ], %g1
40007a2c:	c2 02 20 38 	ld  [ %o0 + 0x38 ], %g1
40007a30:	80 a0 60 00 	cmp  %g1, 0
40007a34:	02 80 00 3b 	be  40007b20 <_fclose_r+0x130>
40007a38:	01 00 00 00 	nop 
40007a3c:	c2 16 60 0c 	lduh  [ %i1 + 0xc ], %g1
40007a40:	83 28 60 10 	sll  %g1, 0x10, %g1
40007a44:	80 a0 60 00 	cmp  %g1, 0
40007a48:	02 80 00 30 	be  40007b08 <_fclose_r+0x118>
40007a4c:	83 30 60 10 	srl  %g1, 0x10, %g1
40007a50:	80 88 60 08 	btst  8, %g1
40007a54:	12 80 00 3f 	bne  40007b50 <_fclose_r+0x160>
40007a58:	a0 10 20 00 	clr  %l0
40007a5c:	c2 06 60 2c 	ld  [ %i1 + 0x2c ], %g1
40007a60:	80 a0 60 00 	cmp  %g1, 0
40007a64:	22 80 00 08 	be,a   40007a84 <_fclose_r+0x94>
40007a68:	c2 16 60 0c 	lduh  [ %i1 + 0xc ], %g1
40007a6c:	9f c0 40 00 	call  %g1
40007a70:	d0 06 60 1c 	ld  [ %i1 + 0x1c ], %o0
40007a74:	80 a2 20 00 	cmp  %o0, 0
40007a78:	26 80 00 02 	bl,a   40007a80 <_fclose_r+0x90>
40007a7c:	a0 10 3f ff 	mov  -1, %l0
40007a80:	c2 16 60 0c 	lduh  [ %i1 + 0xc ], %g1
40007a84:	80 88 60 80 	btst  0x80, %g1
40007a88:	32 80 00 2e 	bne,a   40007b40 <_fclose_r+0x150>
40007a8c:	d2 06 60 10 	ld  [ %i1 + 0x10 ], %o1
40007a90:	d2 06 60 30 	ld  [ %i1 + 0x30 ], %o1
40007a94:	80 a2 60 00 	cmp  %o1, 0
40007a98:	02 80 00 08 	be  40007ab8 <_fclose_r+0xc8>
40007a9c:	82 06 60 40 	add  %i1, 0x40, %g1
40007aa0:	80 a2 40 01 	cmp  %o1, %g1
40007aa4:	22 80 00 05 	be,a   40007ab8 <_fclose_r+0xc8>
40007aa8:	c0 26 60 30 	clr  [ %i1 + 0x30 ]
40007aac:	7f ff f4 77 	call  40004c88 <_free_r>
40007ab0:	d0 04 60 d8 	ld  [ %l1 + 0xd8 ], %o0
40007ab4:	c0 26 60 30 	clr  [ %i1 + 0x30 ]
40007ab8:	d2 06 60 44 	ld  [ %i1 + 0x44 ], %o1
40007abc:	80 a2 60 00 	cmp  %o1, 0
40007ac0:	22 80 00 06 	be,a   40007ad8 <_fclose_r+0xe8>
40007ac4:	c0 36 60 0c 	clrh  [ %i1 + 0xc ]
40007ac8:	7f ff f4 70 	call  40004c88 <_free_r>
40007acc:	d0 04 60 d8 	ld  [ %l1 + 0xd8 ], %o0
40007ad0:	c0 26 60 44 	clr  [ %i1 + 0x44 ]
40007ad4:	c0 36 60 0c 	clrh  [ %i1 + 0xc ]
40007ad8:	40 00 08 90 	call  40009d18 <___st_pthread_mutex_unlock>
40007adc:	90 10 00 12 	mov  %l2, %o0
40007ae0:	40 00 08 6d 	call  40009c94 <___st_pthread_mutex_destroy>
40007ae4:	90 10 00 12 	mov  %l2, %o0
40007ae8:	7f ff f3 6e 	call  400048a0 <__sfp_lock_release>
40007aec:	01 00 00 00 	nop 
40007af0:	81 c7 e0 08 	ret 
40007af4:	91 e8 00 10 	restore  %g0, %l0, %o0
40007af8:	40 00 08 72 	call  40009cc0 <___st_pthread_mutex_lock>
40007afc:	90 10 00 12 	mov  %l2, %o0
40007b00:	10 bf ff c7 	b  40007a1c <_fclose_r+0x2c>
40007b04:	23 10 00 2f 	sethi  %hi(0x4000bc00), %l1
40007b08:	40 00 08 84 	call  40009d18 <___st_pthread_mutex_unlock>
40007b0c:	90 10 00 12 	mov  %l2, %o0
40007b10:	7f ff f3 64 	call  400048a0 <__sfp_lock_release>
40007b14:	a0 10 20 00 	clr  %l0
40007b18:	81 c7 e0 08 	ret 
40007b1c:	91 e8 00 10 	restore  %g0, %l0, %o0
40007b20:	7f ff f3 a9 	call  400049c4 <__sinit>
40007b24:	01 00 00 00 	nop 
40007b28:	c2 16 60 0c 	lduh  [ %i1 + 0xc ], %g1
40007b2c:	83 28 60 10 	sll  %g1, 0x10, %g1
40007b30:	80 a0 60 00 	cmp  %g1, 0
40007b34:	12 bf ff c7 	bne  40007a50 <_fclose_r+0x60>
40007b38:	83 30 60 10 	srl  %g1, 0x10, %g1
40007b3c:	30 bf ff f3 	b,a   40007b08 <_fclose_r+0x118>
40007b40:	7f ff f4 52 	call  40004c88 <_free_r>
40007b44:	90 10 00 18 	mov  %i0, %o0
40007b48:	10 bf ff d3 	b  40007a94 <_fclose_r+0xa4>
40007b4c:	d2 06 60 30 	ld  [ %i1 + 0x30 ], %o1
40007b50:	7f ff f2 e8 	call  400046f0 <fflush>
40007b54:	90 10 00 19 	mov  %i1, %o0
40007b58:	10 bf ff c1 	b  40007a5c <_fclose_r+0x6c>
40007b5c:	a0 10 00 08 	mov  %o0, %l0

40007b60 <fclose>:
40007b60:	92 10 00 08 	mov  %o0, %o1
40007b64:	03 10 00 2f 	sethi  %hi(0x4000bc00), %g1
40007b68:	d0 00 60 d8 	ld  [ %g1 + 0xd8 ], %o0	! 4000bcd8 <_impure_ptr>
40007b6c:	82 13 c0 00 	mov  %o7, %g1
40007b70:	7f ff ff a0 	call  400079f0 <_fclose_r>
40007b74:	9e 10 40 00 	mov  %g1, %o7
40007b78:	01 00 00 00 	nop 

40007b7c <_fstat_r>:
40007b7c:	9d e3 bf a0 	save  %sp, -96, %sp
40007b80:	21 10 00 32 	sethi  %hi(0x4000c800), %l0
40007b84:	90 10 00 19 	mov  %i1, %o0
40007b88:	92 10 00 1a 	mov  %i2, %o1
40007b8c:	40 00 07 b8 	call  40009a6c <fstat>
40007b90:	c0 24 23 3c 	clr  [ %l0 + 0x33c ]
40007b94:	80 a2 3f ff 	cmp  %o0, -1
40007b98:	02 80 00 04 	be  40007ba8 <_fstat_r+0x2c>
40007b9c:	c2 04 23 3c 	ld  [ %l0 + 0x33c ], %g1
40007ba0:	81 c7 e0 08 	ret 
40007ba4:	91 e8 00 08 	restore  %g0, %o0, %o0
40007ba8:	80 a0 60 00 	cmp  %g1, 0
40007bac:	02 bf ff fd 	be  40007ba0 <_fstat_r+0x24>
40007bb0:	01 00 00 00 	nop 
40007bb4:	c2 26 00 00 	st  %g1, [ %i0 ]
40007bb8:	81 c7 e0 08 	ret 
40007bbc:	91 e8 00 08 	restore  %g0, %o0, %o0

40007bc0 <_lseek_r>:
40007bc0:	9d e3 bf a0 	save  %sp, -96, %sp
40007bc4:	21 10 00 32 	sethi  %hi(0x4000c800), %l0
40007bc8:	90 10 00 19 	mov  %i1, %o0
40007bcc:	92 10 00 1a 	mov  %i2, %o1
40007bd0:	c0 24 23 3c 	clr  [ %l0 + 0x33c ]
40007bd4:	40 00 07 ad 	call  40009a88 <lseek>
40007bd8:	94 10 00 1b 	mov  %i3, %o2
40007bdc:	80 a2 3f ff 	cmp  %o0, -1
40007be0:	02 80 00 04 	be  40007bf0 <_lseek_r+0x30>
40007be4:	c2 04 23 3c 	ld  [ %l0 + 0x33c ], %g1
40007be8:	81 c7 e0 08 	ret 
40007bec:	91 e8 00 08 	restore  %g0, %o0, %o0
40007bf0:	80 a0 60 00 	cmp  %g1, 0
40007bf4:	02 bf ff fd 	be  40007be8 <_lseek_r+0x28>
40007bf8:	01 00 00 00 	nop 
40007bfc:	c2 26 00 00 	st  %g1, [ %i0 ]
40007c00:	81 c7 e0 08 	ret 
40007c04:	91 e8 00 08 	restore  %g0, %o0, %o0

40007c08 <_read_r>:
40007c08:	9d e3 bf a0 	save  %sp, -96, %sp
40007c0c:	21 10 00 32 	sethi  %hi(0x4000c800), %l0
40007c10:	90 10 00 19 	mov  %i1, %o0
40007c14:	92 10 00 1a 	mov  %i2, %o1
40007c18:	c0 24 23 3c 	clr  [ %l0 + 0x33c ]
40007c1c:	40 00 07 a2 	call  40009aa4 <read>
40007c20:	94 10 00 1b 	mov  %i3, %o2
40007c24:	80 a2 3f ff 	cmp  %o0, -1
40007c28:	02 80 00 04 	be  40007c38 <_read_r+0x30>
40007c2c:	c2 04 23 3c 	ld  [ %l0 + 0x33c ], %g1
40007c30:	81 c7 e0 08 	ret 
40007c34:	91 e8 00 08 	restore  %g0, %o0, %o0
40007c38:	80 a0 60 00 	cmp  %g1, 0
40007c3c:	02 bf ff fd 	be  40007c30 <_read_r+0x28>
40007c40:	01 00 00 00 	nop 
40007c44:	c2 26 00 00 	st  %g1, [ %i0 ]
40007c48:	81 c7 e0 08 	ret 
40007c4c:	91 e8 00 08 	restore  %g0, %o0, %o0

40007c50 <_wrapup_reent>:
40007c50:	9d e3 bf a0 	save  %sp, -96, %sp
40007c54:	80 a6 20 00 	cmp  %i0, 0
40007c58:	02 80 00 1f 	be  40007cd4 <_wrapup_reent+0x84>
40007c5c:	03 10 00 2f 	sethi  %hi(0x4000bc00), %g1
40007c60:	e4 06 21 48 	ld  [ %i0 + 0x148 ], %l2
40007c64:	80 a4 a0 00 	cmp  %l2, 0
40007c68:	22 80 00 14 	be,a   40007cb8 <_wrapup_reent+0x68>
40007c6c:	c2 06 20 3c 	ld  [ %i0 + 0x3c ], %g1
40007c70:	c2 04 a0 04 	ld  [ %l2 + 4 ], %g1
40007c74:	a0 80 7f ff 	addcc  %g1, -1, %l0
40007c78:	2c 80 00 0c 	bneg,a   40007ca8 <_wrapup_reent+0x58>
40007c7c:	e4 04 80 00 	ld  [ %l2 ], %l2
40007c80:	a2 00 60 01 	add  %g1, 1, %l1
40007c84:	a3 2c 60 02 	sll  %l1, 2, %l1
40007c88:	a2 04 80 11 	add  %l2, %l1, %l1
40007c8c:	c2 04 40 00 	ld  [ %l1 ], %g1
40007c90:	9f c0 40 00 	call  %g1
40007c94:	a2 04 7f fc 	add  %l1, -4, %l1
40007c98:	a0 84 3f ff 	addcc  %l0, -1, %l0
40007c9c:	3c bf ff fd 	bpos,a   40007c90 <_wrapup_reent+0x40>
40007ca0:	c2 04 40 00 	ld  [ %l1 ], %g1
40007ca4:	e4 04 80 00 	ld  [ %l2 ], %l2
40007ca8:	80 a4 a0 00 	cmp  %l2, 0
40007cac:	32 bf ff f2 	bne,a   40007c74 <_wrapup_reent+0x24>
40007cb0:	c2 04 a0 04 	ld  [ %l2 + 4 ], %g1
40007cb4:	c2 06 20 3c 	ld  [ %i0 + 0x3c ], %g1
40007cb8:	80 a0 60 00 	cmp  %g1, 0
40007cbc:	02 80 00 04 	be  40007ccc <_wrapup_reent+0x7c>
40007cc0:	01 00 00 00 	nop 
40007cc4:	9f c0 40 00 	call  %g1
40007cc8:	90 10 00 18 	mov  %i0, %o0
40007ccc:	81 c7 e0 08 	ret 
40007cd0:	81 e8 00 00 	restore 
40007cd4:	10 bf ff e3 	b  40007c60 <_wrapup_reent+0x10>
40007cd8:	f0 00 60 d8 	ld  [ %g1 + 0xd8 ], %i0

40007cdc <cleanup_glue>:
40007cdc:	9d e3 bf a0 	save  %sp, -96, %sp
40007ce0:	d2 06 40 00 	ld  [ %i1 ], %o1
40007ce4:	80 a2 60 00 	cmp  %o1, 0
40007ce8:	02 80 00 04 	be  40007cf8 <cleanup_glue+0x1c>
40007cec:	01 00 00 00 	nop 
40007cf0:	7f ff ff fb 	call  40007cdc <cleanup_glue>
40007cf4:	90 10 00 18 	mov  %i0, %o0
40007cf8:	7f ff f3 e4 	call  40004c88 <_free_r>
40007cfc:	81 e8 00 00 	restore 
40007d00:	01 00 00 00 	nop 

40007d04 <_reclaim_reent>:
40007d04:	9d e3 bf a0 	save  %sp, -96, %sp
40007d08:	03 10 00 2f 	sethi  %hi(0x4000bc00), %g1
40007d0c:	c2 00 60 d8 	ld  [ %g1 + 0xd8 ], %g1	! 4000bcd8 <_impure_ptr>
40007d10:	80 a6 00 01 	cmp  %i0, %g1
40007d14:	02 80 00 32 	be  40007ddc <_reclaim_reent+0xd8>
40007d18:	01 00 00 00 	nop 
40007d1c:	d2 06 20 4c 	ld  [ %i0 + 0x4c ], %o1
40007d20:	80 a2 60 00 	cmp  %o1, 0
40007d24:	22 80 00 16 	be,a   40007d7c <_reclaim_reent+0x78>
40007d28:	e0 06 21 48 	ld  [ %i0 + 0x148 ], %l0
40007d2c:	a2 10 20 00 	clr  %l1
40007d30:	e0 02 40 11 	ld  [ %o1 + %l1 ], %l0
40007d34:	80 a4 20 00 	cmp  %l0, 0
40007d38:	22 80 00 0b 	be,a   40007d64 <_reclaim_reent+0x60>
40007d3c:	a2 04 60 04 	add  %l1, 4, %l1
40007d40:	92 10 00 10 	mov  %l0, %o1
40007d44:	90 10 00 18 	mov  %i0, %o0
40007d48:	7f ff f3 d0 	call  40004c88 <_free_r>
40007d4c:	e0 04 00 00 	ld  [ %l0 ], %l0
40007d50:	80 a4 20 00 	cmp  %l0, 0
40007d54:	12 bf ff fc 	bne  40007d44 <_reclaim_reent+0x40>
40007d58:	92 10 00 10 	mov  %l0, %o1
40007d5c:	d2 06 20 4c 	ld  [ %i0 + 0x4c ], %o1
40007d60:	a2 04 60 04 	add  %l1, 4, %l1
40007d64:	80 a4 60 3c 	cmp  %l1, 0x3c
40007d68:	32 bf ff f3 	bne,a   40007d34 <_reclaim_reent+0x30>
40007d6c:	e0 02 40 11 	ld  [ %o1 + %l1 ], %l0
40007d70:	7f ff f3 c6 	call  40004c88 <_free_r>
40007d74:	90 10 00 18 	mov  %i0, %o0
40007d78:	e0 06 21 48 	ld  [ %i0 + 0x148 ], %l0
40007d7c:	80 a4 20 00 	cmp  %l0, 0
40007d80:	22 80 00 0e 	be,a   40007db8 <_reclaim_reent+0xb4>
40007d84:	d2 06 20 54 	ld  [ %i0 + 0x54 ], %o1
40007d88:	a2 06 21 4c 	add  %i0, 0x14c, %l1
40007d8c:	80 a4 00 11 	cmp  %l0, %l1
40007d90:	22 80 00 0a 	be,a   40007db8 <_reclaim_reent+0xb4>
40007d94:	d2 06 20 54 	ld  [ %i0 + 0x54 ], %o1
40007d98:	92 10 00 10 	mov  %l0, %o1
40007d9c:	90 10 00 18 	mov  %i0, %o0
40007da0:	7f ff f3 ba 	call  40004c88 <_free_r>
40007da4:	e0 04 00 00 	ld  [ %l0 ], %l0
40007da8:	80 a4 40 10 	cmp  %l1, %l0
40007dac:	12 bf ff fc 	bne  40007d9c <_reclaim_reent+0x98>
40007db0:	92 10 00 10 	mov  %l0, %o1
40007db4:	d2 06 20 54 	ld  [ %i0 + 0x54 ], %o1
40007db8:	80 a2 60 00 	cmp  %o1, 0
40007dbc:	22 80 00 05 	be,a   40007dd0 <_reclaim_reent+0xcc>
40007dc0:	c2 06 20 38 	ld  [ %i0 + 0x38 ], %g1
40007dc4:	7f ff f3 b1 	call  40004c88 <_free_r>
40007dc8:	90 10 00 18 	mov  %i0, %o0
40007dcc:	c2 06 20 38 	ld  [ %i0 + 0x38 ], %g1
40007dd0:	80 a0 60 00 	cmp  %g1, 0
40007dd4:	32 80 00 04 	bne,a   40007de4 <_reclaim_reent+0xe0>
40007dd8:	c2 06 20 3c 	ld  [ %i0 + 0x3c ], %g1
40007ddc:	81 c7 e0 08 	ret 
40007de0:	81 e8 00 00 	restore 
40007de4:	9f c0 40 00 	call  %g1
40007de8:	90 10 00 18 	mov  %i0, %o0
40007dec:	f2 06 22 e0 	ld  [ %i0 + 0x2e0 ], %i1
40007df0:	80 a6 60 00 	cmp  %i1, 0
40007df4:	02 bf ff fa 	be  40007ddc <_reclaim_reent+0xd8>
40007df8:	01 00 00 00 	nop 
40007dfc:	7f ff ff b8 	call  40007cdc <cleanup_glue>
40007e00:	81 e8 00 00 	restore 
40007e04:	01 00 00 00 	nop 

40007e08 <.umul>:
40007e08:	98 12 00 09 	or  %o0, %o1, %o4
40007e0c:	81 82 00 00 	mov  %o0, %y
40007e10:	9a ab 2f ff 	andncc  %o4, 0xfff, %o5
40007e14:	02 80 00 25 	be  40007ea8 <mul_shortway>
40007e18:	98 88 00 00 	andcc  %g0, %g0, %o4
40007e1c:	99 23 00 09 	mulscc  %o4, %o1, %o4
40007e20:	99 23 00 09 	mulscc  %o4, %o1, %o4
40007e24:	99 23 00 09 	mulscc  %o4, %o1, %o4
40007e28:	99 23 00 09 	mulscc  %o4, %o1, %o4
40007e2c:	99 23 00 09 	mulscc  %o4, %o1, %o4
40007e30:	99 23 00 09 	mulscc  %o4, %o1, %o4
40007e34:	99 23 00 09 	mulscc  %o4, %o1, %o4
40007e38:	99 23 00 09 	mulscc  %o4, %o1, %o4
40007e3c:	99 23 00 09 	mulscc  %o4, %o1, %o4
40007e40:	99 23 00 09 	mulscc  %o4, %o1, %o4
40007e44:	99 23 00 09 	mulscc  %o4, %o1, %o4
40007e48:	99 23 00 09 	mulscc  %o4, %o1, %o4
40007e4c:	99 23 00 09 	mulscc  %o4, %o1, %o4
40007e50:	99 23 00 09 	mulscc  %o4, %o1, %o4
40007e54:	99 23 00 09 	mulscc  %o4, %o1, %o4
40007e58:	99 23 00 09 	mulscc  %o4, %o1, %o4
40007e5c:	99 23 00 09 	mulscc  %o4, %o1, %o4
40007e60:	99 23 00 09 	mulscc  %o4, %o1, %o4
40007e64:	99 23 00 09 	mulscc  %o4, %o1, %o4
40007e68:	99 23 00 09 	mulscc  %o4, %o1, %o4
40007e6c:	99 23 00 09 	mulscc  %o4, %o1, %o4
40007e70:	99 23 00 09 	mulscc  %o4, %o1, %o4
40007e74:	99 23 00 09 	mulscc  %o4, %o1, %o4
40007e78:	99 23 00 09 	mulscc  %o4, %o1, %o4
40007e7c:	99 23 00 09 	mulscc  %o4, %o1, %o4
40007e80:	99 23 00 09 	mulscc  %o4, %o1, %o4
40007e84:	99 23 00 09 	mulscc  %o4, %o1, %o4
40007e88:	99 23 00 09 	mulscc  %o4, %o1, %o4
40007e8c:	99 23 00 09 	mulscc  %o4, %o1, %o4
40007e90:	99 23 00 09 	mulscc  %o4, %o1, %o4
40007e94:	99 23 00 09 	mulscc  %o4, %o1, %o4
40007e98:	99 23 00 09 	mulscc  %o4, %o1, %o4
40007e9c:	99 23 00 00 	mulscc  %o4, %g0, %o4
40007ea0:	81 c3 e0 08 	retl 
40007ea4:	91 40 00 00 	rd  %y, %o0

40007ea8 <mul_shortway>:
40007ea8:	99 23 00 09 	mulscc  %o4, %o1, %o4
40007eac:	99 23 00 09 	mulscc  %o4, %o1, %o4
40007eb0:	99 23 00 09 	mulscc  %o4, %o1, %o4
40007eb4:	99 23 00 09 	mulscc  %o4, %o1, %o4
40007eb8:	99 23 00 09 	mulscc  %o4, %o1, %o4
40007ebc:	99 23 00 09 	mulscc  %o4, %o1, %o4
40007ec0:	99 23 00 09 	mulscc  %o4, %o1, %o4
40007ec4:	99 23 00 09 	mulscc  %o4, %o1, %o4
40007ec8:	99 23 00 09 	mulscc  %o4, %o1, %o4
40007ecc:	99 23 00 09 	mulscc  %o4, %o1, %o4
40007ed0:	99 23 00 09 	mulscc  %o4, %o1, %o4
40007ed4:	99 23 00 09 	mulscc  %o4, %o1, %o4
40007ed8:	99 23 00 00 	mulscc  %o4, %g0, %o4
40007edc:	9b 40 00 00 	rd  %y, %o5
40007ee0:	99 2b 20 0c 	sll  %o4, 0xc, %o4
40007ee4:	9b 33 60 14 	srl  %o5, 0x14, %o5
40007ee8:	81 c3 e0 08 	retl 
40007eec:	90 13 40 0c 	or  %o5, %o4, %o0

40007ef0 <.udiv>:
40007ef0:	10 80 00 0b 	b  40007f1c <ready_to_divide>
40007ef4:	86 10 20 00 	clr  %g3

40007ef8 <.div>:
40007ef8:	80 92 40 08 	orcc  %o1, %o0, %g0
40007efc:	16 80 00 08 	bge  40007f1c <ready_to_divide>
40007f00:	86 1a 40 08 	xor  %o1, %o0, %g3
40007f04:	80 92 40 00 	tst  %o1
40007f08:	16 80 00 04 	bge  40007f18 <.div+0x20>
40007f0c:	80 92 00 00 	tst  %o0
40007f10:	16 80 00 03 	bge  40007f1c <ready_to_divide>
40007f14:	92 20 00 09 	neg  %o1
40007f18:	90 20 00 08 	neg  %o0

40007f1c <ready_to_divide>:
40007f1c:	9a 92 40 00 	orcc  %o1, %g0, %o5
40007f20:	12 80 00 05 	bne  40007f34 <ready_to_divide+0x18>
40007f24:	96 10 00 08 	mov  %o0, %o3
40007f28:	91 d0 20 02 	ta  2
40007f2c:	81 c3 e0 08 	retl 
40007f30:	90 10 00 00 	mov  %g0, %o0
40007f34:	80 a2 c0 0d 	cmp  %o3, %o5
40007f38:	0a 80 00 95 	bcs  4000818c <got_result>
40007f3c:	94 10 00 00 	mov  %g0, %o2
40007f40:	03 02 00 00 	sethi  %hi(0x8000000), %g1
40007f44:	80 a2 c0 01 	cmp  %o3, %g1
40007f48:	0a 80 00 28 	bcs  40007fe8 <not_really_big>
40007f4c:	98 10 00 00 	mov  %g0, %o4
40007f50:	80 a3 40 01 	cmp  %o5, %g1
40007f54:	1a 80 00 0d 	bcc  40007f88 <not_too_big>
40007f58:	84 10 20 01 	mov  1, %g2
40007f5c:	9b 2b 60 04 	sll  %o5, 4, %o5
40007f60:	10 bf ff fc 	b  40007f50 <ready_to_divide+0x34>
40007f64:	98 03 20 01 	inc  %o4
40007f68:	9a 83 40 0d 	addcc  %o5, %o5, %o5
40007f6c:	1a 80 00 07 	bcc  40007f88 <not_too_big>
40007f70:	84 00 a0 01 	inc  %g2
40007f74:	83 28 60 04 	sll  %g1, 4, %g1
40007f78:	9b 33 60 01 	srl  %o5, 1, %o5
40007f7c:	9a 03 40 01 	add  %o5, %g1, %o5
40007f80:	10 80 00 07 	b  40007f9c <do_single_div>
40007f84:	84 20 a0 01 	dec  %g2

40007f88 <not_too_big>:
40007f88:	80 a3 40 0b 	cmp  %o5, %o3
40007f8c:	0a bf ff f7 	bcs  40007f68 <ready_to_divide+0x4c>
40007f90:	01 00 00 00 	nop 
40007f94:	02 80 00 02 	be  40007f9c <do_single_div>
40007f98:	01 00 00 00 	nop 

40007f9c <do_single_div>:
40007f9c:	84 a0 a0 01 	deccc  %g2
40007fa0:	06 80 00 76 	bl  40008178 <end_regular_divide>
40007fa4:	01 00 00 00 	nop 
40007fa8:	96 22 c0 0d 	sub  %o3, %o5, %o3
40007fac:	94 10 20 01 	mov  1, %o2
40007fb0:	10 80 00 0a 	b  40007fd8 <end_single_divloop>
40007fb4:	01 00 00 00 	nop 

40007fb8 <single_divloop>:
40007fb8:	95 2a a0 01 	sll  %o2, 1, %o2
40007fbc:	06 80 00 05 	bl  40007fd0 <single_divloop+0x18>
40007fc0:	9b 33 60 01 	srl  %o5, 1, %o5
40007fc4:	96 22 c0 0d 	sub  %o3, %o5, %o3
40007fc8:	10 80 00 04 	b  40007fd8 <end_single_divloop>
40007fcc:	94 02 a0 01 	inc  %o2
40007fd0:	96 02 c0 0d 	add  %o3, %o5, %o3
40007fd4:	94 22 a0 01 	dec  %o2

40007fd8 <end_single_divloop>:
40007fd8:	84 a0 a0 01 	deccc  %g2
40007fdc:	16 bf ff f7 	bge  40007fb8 <single_divloop>
40007fe0:	80 92 c0 00 	tst  %o3
40007fe4:	30 80 00 65 	b,a   40008178 <end_regular_divide>

40007fe8 <not_really_big>:
40007fe8:	9b 2b 60 04 	sll  %o5, 4, %o5
40007fec:	80 a3 40 0b 	cmp  %o5, %o3
40007ff0:	08 bf ff fe 	bleu  40007fe8 <not_really_big>
40007ff4:	98 83 20 01 	inccc  %o4
40007ff8:	02 80 00 65 	be  4000818c <got_result>
40007ffc:	98 23 20 01 	dec  %o4
40008000:	80 92 c0 00 	tst  %o3

40008004 <divloop>:
40008004:	95 2a a0 04 	sll  %o2, 4, %o2
40008008:	06 80 00 2f 	bl  400080c4 <L1.16>
4000800c:	9b 33 60 01 	srl  %o5, 1, %o5
40008010:	96 a2 c0 0d 	subcc  %o3, %o5, %o3
40008014:	06 80 00 17 	bl  40008070 <L2.17>
40008018:	9b 33 60 01 	srl  %o5, 1, %o5
4000801c:	96 a2 c0 0d 	subcc  %o3, %o5, %o3
40008020:	06 80 00 0b 	bl  4000804c <L3.19>
40008024:	9b 33 60 01 	srl  %o5, 1, %o5
40008028:	96 a2 c0 0d 	subcc  %o3, %o5, %o3
4000802c:	06 80 00 05 	bl  40008040 <L4.23>
40008030:	9b 33 60 01 	srl  %o5, 1, %o5
40008034:	96 a2 c0 0d 	subcc  %o3, %o5, %o3
40008038:	10 80 00 50 	b  40008178 <end_regular_divide>
4000803c:	94 02 a0 0f 	add  %o2, 0xf, %o2

40008040 <L4.23>:
40008040:	96 82 c0 0d 	addcc  %o3, %o5, %o3
40008044:	10 80 00 4d 	b  40008178 <end_regular_divide>
40008048:	94 02 a0 0d 	add  %o2, 0xd, %o2

4000804c <L3.19>:
4000804c:	96 82 c0 0d 	addcc  %o3, %o5, %o3
40008050:	06 80 00 05 	bl  40008064 <L4.21>
40008054:	9b 33 60 01 	srl  %o5, 1, %o5
40008058:	96 a2 c0 0d 	subcc  %o3, %o5, %o3
4000805c:	10 80 00 47 	b  40008178 <end_regular_divide>
40008060:	94 02 a0 0b 	add  %o2, 0xb, %o2

40008064 <L4.21>:
40008064:	96 82 c0 0d 	addcc  %o3, %o5, %o3
40008068:	10 80 00 44 	b  40008178 <end_regular_divide>
4000806c:	94 02 a0 09 	add  %o2, 9, %o2

40008070 <L2.17>:
40008070:	96 82 c0 0d 	addcc  %o3, %o5, %o3
40008074:	06 80 00 0b 	bl  400080a0 <L3.17>
40008078:	9b 33 60 01 	srl  %o5, 1, %o5
4000807c:	96 a2 c0 0d 	subcc  %o3, %o5, %o3
40008080:	06 80 00 05 	bl  40008094 <L4.19>
40008084:	9b 33 60 01 	srl  %o5, 1, %o5
40008088:	96 a2 c0 0d 	subcc  %o3, %o5, %o3
4000808c:	10 80 00 3b 	b  40008178 <end_regular_divide>
40008090:	94 02 a0 07 	add  %o2, 7, %o2

40008094 <L4.19>:
40008094:	96 82 c0 0d 	addcc  %o3, %o5, %o3
40008098:	10 80 00 38 	b  40008178 <end_regular_divide>
4000809c:	94 02 a0 05 	add  %o2, 5, %o2

400080a0 <L3.17>:
400080a0:	96 82 c0 0d 	addcc  %o3, %o5, %o3
400080a4:	06 80 00 05 	bl  400080b8 <L4.17>
400080a8:	9b 33 60 01 	srl  %o5, 1, %o5
400080ac:	96 a2 c0 0d 	subcc  %o3, %o5, %o3
400080b0:	10 80 00 32 	b  40008178 <end_regular_divide>
400080b4:	94 02 a0 03 	add  %o2, 3, %o2

400080b8 <L4.17>:
400080b8:	96 82 c0 0d 	addcc  %o3, %o5, %o3
400080bc:	10 80 00 2f 	b  40008178 <end_regular_divide>
400080c0:	94 02 a0 01 	inc  %o2

400080c4 <L1.16>:
400080c4:	96 82 c0 0d 	addcc  %o3, %o5, %o3
400080c8:	06 80 00 17 	bl  40008124 <L2.15>
400080cc:	9b 33 60 01 	srl  %o5, 1, %o5
400080d0:	96 a2 c0 0d 	subcc  %o3, %o5, %o3
400080d4:	06 80 00 0b 	bl  40008100 <L3.15>
400080d8:	9b 33 60 01 	srl  %o5, 1, %o5
400080dc:	96 a2 c0 0d 	subcc  %o3, %o5, %o3
400080e0:	06 80 00 05 	bl  400080f4 <L4.15>
400080e4:	9b 33 60 01 	srl  %o5, 1, %o5
400080e8:	96 a2 c0 0d 	subcc  %o3, %o5, %o3
400080ec:	10 80 00 23 	b  40008178 <end_regular_divide>
400080f0:	94 02 bf ff 	add  %o2, -1, %o2

400080f4 <L4.15>:
400080f4:	96 82 c0 0d 	addcc  %o3, %o5, %o3
400080f8:	10 80 00 20 	b  40008178 <end_regular_divide>
400080fc:	94 02 bf fd 	add  %o2, -3, %o2

40008100 <L3.15>:
40008100:	96 82 c0 0d 	addcc  %o3, %o5, %o3
40008104:	06 80 00 05 	bl  40008118 <L4.13>
40008108:	9b 33 60 01 	srl  %o5, 1, %o5
4000810c:	96 a2 c0 0d 	subcc  %o3, %o5, %o3
40008110:	10 80 00 1a 	b  40008178 <end_regular_divide>
40008114:	94 02 bf fb 	add  %o2, -5, %o2

40008118 <L4.13>:
40008118:	96 82 c0 0d 	addcc  %o3, %o5, %o3
4000811c:	10 80 00 17 	b  40008178 <end_regular_divide>
40008120:	94 02 bf f9 	add  %o2, -7, %o2

40008124 <L2.15>:
40008124:	96 82 c0 0d 	addcc  %o3, %o5, %o3
40008128:	06 80 00 0b 	bl  40008154 <L3.13>
4000812c:	9b 33 60 01 	srl  %o5, 1, %o5
40008130:	96 a2 c0 0d 	subcc  %o3, %o5, %o3
40008134:	06 80 00 05 	bl  40008148 <L4.11>
40008138:	9b 33 60 01 	srl  %o5, 1, %o5
4000813c:	96 a2 c0 0d 	subcc  %o3, %o5, %o3
40008140:	10 80 00 0e 	b  40008178 <end_regular_divide>
40008144:	94 02 bf f7 	add  %o2, -9, %o2

40008148 <L4.11>:
40008148:	96 82 c0 0d 	addcc  %o3, %o5, %o3
4000814c:	10 80 00 0b 	b  40008178 <end_regular_divide>
40008150:	94 02 bf f5 	add  %o2, -11, %o2

40008154 <L3.13>:
40008154:	96 82 c0 0d 	addcc  %o3, %o5, %o3
40008158:	06 80 00 05 	bl  4000816c <L4.9>
4000815c:	9b 33 60 01 	srl  %o5, 1, %o5
40008160:	96 a2 c0 0d 	subcc  %o3, %o5, %o3
40008164:	10 80 00 05 	b  40008178 <end_regular_divide>
40008168:	94 02 bf f3 	add  %o2, -13, %o2

4000816c <L4.9>:
4000816c:	96 82 c0 0d 	addcc  %o3, %o5, %o3
40008170:	10 80 00 02 	b  40008178 <end_regular_divide>
40008174:	94 02 bf f1 	add  %o2, -15, %o2

40008178 <end_regular_divide>:
40008178:	98 a3 20 01 	deccc  %o4
4000817c:	16 bf ff a2 	bge  40008004 <divloop>
40008180:	80 92 c0 00 	tst  %o3
40008184:	26 80 00 02 	bl,a   4000818c <got_result>
40008188:	94 22 a0 01 	dec  %o2

4000818c <got_result>:
4000818c:	80 90 c0 00 	tst  %g3
40008190:	26 80 00 02 	bl,a   40008198 <got_result+0xc>
40008194:	94 20 00 0a 	neg  %o2
40008198:	81 c3 e0 08 	retl 
4000819c:	90 10 00 0a 	mov  %o2, %o0

400081a0 <.urem>:
400081a0:	10 80 00 0b 	b  400081cc <divide>
400081a4:	86 10 20 00 	clr  %g3

400081a8 <.rem>:
400081a8:	80 92 40 08 	orcc  %o1, %o0, %g0
400081ac:	16 80 00 08 	bge  400081cc <divide>
400081b0:	86 10 00 08 	mov  %o0, %g3
400081b4:	80 92 40 00 	tst  %o1
400081b8:	16 80 00 04 	bge  400081c8 <.rem+0x20>
400081bc:	80 92 00 00 	tst  %o0
400081c0:	16 80 00 03 	bge  400081cc <divide>
400081c4:	92 20 00 09 	neg  %o1
400081c8:	90 20 00 08 	neg  %o0

400081cc <divide>:
400081cc:	9a 92 40 00 	orcc  %o1, %g0, %o5
400081d0:	12 80 00 05 	bne  400081e4 <divide+0x18>
400081d4:	96 10 00 08 	mov  %o0, %o3
400081d8:	91 d0 20 02 	ta  2
400081dc:	81 c3 e0 08 	retl 
400081e0:	90 10 00 00 	mov  %g0, %o0
400081e4:	80 a2 c0 0d 	cmp  %o3, %o5
400081e8:	0a 80 00 95 	bcs  4000843c <got_result>
400081ec:	94 10 00 00 	mov  %g0, %o2
400081f0:	03 02 00 00 	sethi  %hi(0x8000000), %g1
400081f4:	80 a2 c0 01 	cmp  %o3, %g1
400081f8:	0a 80 00 28 	bcs  40008298 <not_really_big>
400081fc:	98 10 00 00 	mov  %g0, %o4
40008200:	80 a3 40 01 	cmp  %o5, %g1
40008204:	1a 80 00 0d 	bcc  40008238 <not_too_big>
40008208:	84 10 20 01 	mov  1, %g2
4000820c:	9b 2b 60 04 	sll  %o5, 4, %o5
40008210:	10 bf ff fc 	b  40008200 <divide+0x34>
40008214:	98 03 20 01 	inc  %o4
40008218:	9a 83 40 0d 	addcc  %o5, %o5, %o5
4000821c:	1a 80 00 07 	bcc  40008238 <not_too_big>
40008220:	84 00 a0 01 	inc  %g2
40008224:	83 28 60 04 	sll  %g1, 4, %g1
40008228:	9b 33 60 01 	srl  %o5, 1, %o5
4000822c:	9a 03 40 01 	add  %o5, %g1, %o5
40008230:	10 80 00 07 	b  4000824c <do_single_div>
40008234:	84 20 a0 01 	dec  %g2

40008238 <not_too_big>:
40008238:	80 a3 40 0b 	cmp  %o5, %o3
4000823c:	0a bf ff f7 	bcs  40008218 <divide+0x4c>
40008240:	01 00 00 00 	nop 
40008244:	02 80 00 02 	be  4000824c <do_single_div>
40008248:	01 00 00 00 	nop 

4000824c <do_single_div>:
4000824c:	84 a0 a0 01 	deccc  %g2
40008250:	06 80 00 76 	bl  40008428 <end_regular_divide>
40008254:	01 00 00 00 	nop 
40008258:	96 22 c0 0d 	sub  %o3, %o5, %o3
4000825c:	94 10 20 01 	mov  1, %o2
40008260:	10 80 00 0a 	b  40008288 <end_single_divloop>
40008264:	01 00 00 00 	nop 

40008268 <single_divloop>:
40008268:	95 2a a0 01 	sll  %o2, 1, %o2
4000826c:	06 80 00 05 	bl  40008280 <single_divloop+0x18>
40008270:	9b 33 60 01 	srl  %o5, 1, %o5
40008274:	96 22 c0 0d 	sub  %o3, %o5, %o3
40008278:	10 80 00 04 	b  40008288 <end_single_divloop>
4000827c:	94 02 a0 01 	inc  %o2
40008280:	96 02 c0 0d 	add  %o3, %o5, %o3
40008284:	94 22 a0 01 	dec  %o2

40008288 <end_single_divloop>:
40008288:	84 a0 a0 01 	deccc  %g2
4000828c:	16 bf ff f7 	bge  40008268 <single_divloop>
40008290:	80 92 c0 00 	tst  %o3
40008294:	30 80 00 65 	b,a   40008428 <end_regular_divide>

40008298 <not_really_big>:
40008298:	9b 2b 60 04 	sll  %o5, 4, %o5
4000829c:	80 a3 40 0b 	cmp  %o5, %o3
400082a0:	08 bf ff fe 	bleu  40008298 <not_really_big>
400082a4:	98 83 20 01 	inccc  %o4
400082a8:	02 80 00 65 	be  4000843c <got_result>
400082ac:	98 23 20 01 	dec  %o4
400082b0:	80 92 c0 00 	tst  %o3

400082b4 <divloop>:
400082b4:	95 2a a0 04 	sll  %o2, 4, %o2
400082b8:	06 80 00 2f 	bl  40008374 <L1.16>
400082bc:	9b 33 60 01 	srl  %o5, 1, %o5
400082c0:	96 a2 c0 0d 	subcc  %o3, %o5, %o3
400082c4:	06 80 00 17 	bl  40008320 <L2.17>
400082c8:	9b 33 60 01 	srl  %o5, 1, %o5
400082cc:	96 a2 c0 0d 	subcc  %o3, %o5, %o3
400082d0:	06 80 00 0b 	bl  400082fc <L3.19>
400082d4:	9b 33 60 01 	srl  %o5, 1, %o5
400082d8:	96 a2 c0 0d 	subcc  %o3, %o5, %o3
400082dc:	06 80 00 05 	bl  400082f0 <L4.23>
400082e0:	9b 33 60 01 	srl  %o5, 1, %o5
400082e4:	96 a2 c0 0d 	subcc  %o3, %o5, %o3
400082e8:	10 80 00 50 	b  40008428 <end_regular_divide>
400082ec:	94 02 a0 0f 	add  %o2, 0xf, %o2

400082f0 <L4.23>:
400082f0:	96 82 c0 0d 	addcc  %o3, %o5, %o3
400082f4:	10 80 00 4d 	b  40008428 <end_regular_divide>
400082f8:	94 02 a0 0d 	add  %o2, 0xd, %o2

400082fc <L3.19>:
400082fc:	96 82 c0 0d 	addcc  %o3, %o5, %o3
40008300:	06 80 00 05 	bl  40008314 <L4.21>
40008304:	9b 33 60 01 	srl  %o5, 1, %o5
40008308:	96 a2 c0 0d 	subcc  %o3, %o5, %o3
4000830c:	10 80 00 47 	b  40008428 <end_regular_divide>
40008310:	94 02 a0 0b 	add  %o2, 0xb, %o2

40008314 <L4.21>:
40008314:	96 82 c0 0d 	addcc  %o3, %o5, %o3
40008318:	10 80 00 44 	b  40008428 <end_regular_divide>
4000831c:	94 02 a0 09 	add  %o2, 9, %o2

40008320 <L2.17>:
40008320:	96 82 c0 0d 	addcc  %o3, %o5, %o3
40008324:	06 80 00 0b 	bl  40008350 <L3.17>
40008328:	9b 33 60 01 	srl  %o5, 1, %o5
4000832c:	96 a2 c0 0d 	subcc  %o3, %o5, %o3
40008330:	06 80 00 05 	bl  40008344 <L4.19>
40008334:	9b 33 60 01 	srl  %o5, 1, %o5
40008338:	96 a2 c0 0d 	subcc  %o3, %o5, %o3
4000833c:	10 80 00 3b 	b  40008428 <end_regular_divide>
40008340:	94 02 a0 07 	add  %o2, 7, %o2

40008344 <L4.19>:
40008344:	96 82 c0 0d 	addcc  %o3, %o5, %o3
40008348:	10 80 00 38 	b  40008428 <end_regular_divide>
4000834c:	94 02 a0 05 	add  %o2, 5, %o2

40008350 <L3.17>:
40008350:	96 82 c0 0d 	addcc  %o3, %o5, %o3
40008354:	06 80 00 05 	bl  40008368 <L4.17>
40008358:	9b 33 60 01 	srl  %o5, 1, %o5
4000835c:	96 a2 c0 0d 	subcc  %o3, %o5, %o3
40008360:	10 80 00 32 	b  40008428 <end_regular_divide>
40008364:	94 02 a0 03 	add  %o2, 3, %o2

40008368 <L4.17>:
40008368:	96 82 c0 0d 	addcc  %o3, %o5, %o3
4000836c:	10 80 00 2f 	b  40008428 <end_regular_divide>
40008370:	94 02 a0 01 	inc  %o2

40008374 <L1.16>:
40008374:	96 82 c0 0d 	addcc  %o3, %o5, %o3
40008378:	06 80 00 17 	bl  400083d4 <L2.15>
4000837c:	9b 33 60 01 	srl  %o5, 1, %o5
40008380:	96 a2 c0 0d 	subcc  %o3, %o5, %o3
40008384:	06 80 00 0b 	bl  400083b0 <L3.15>
40008388:	9b 33 60 01 	srl  %o5, 1, %o5
4000838c:	96 a2 c0 0d 	subcc  %o3, %o5, %o3
40008390:	06 80 00 05 	bl  400083a4 <L4.15>
40008394:	9b 33 60 01 	srl  %o5, 1, %o5
40008398:	96 a2 c0 0d 	subcc  %o3, %o5, %o3
4000839c:	10 80 00 23 	b  40008428 <end_regular_divide>
400083a0:	94 02 bf ff 	add  %o2, -1, %o2

400083a4 <L4.15>:
400083a4:	96 82 c0 0d 	addcc  %o3, %o5, %o3
400083a8:	10 80 00 20 	b  40008428 <end_regular_divide>
400083ac:	94 02 bf fd 	add  %o2, -3, %o2

400083b0 <L3.15>:
400083b0:	96 82 c0 0d 	addcc  %o3, %o5, %o3
400083b4:	06 80 00 05 	bl  400083c8 <L4.13>
400083b8:	9b 33 60 01 	srl  %o5, 1, %o5
400083bc:	96 a2 c0 0d 	subcc  %o3, %o5, %o3
400083c0:	10 80 00 1a 	b  40008428 <end_regular_divide>
400083c4:	94 02 bf fb 	add  %o2, -5, %o2

400083c8 <L4.13>:
400083c8:	96 82 c0 0d 	addcc  %o3, %o5, %o3
400083cc:	10 80 00 17 	b  40008428 <end_regular_divide>
400083d0:	94 02 bf f9 	add  %o2, -7, %o2

400083d4 <L2.15>:
400083d4:	96 82 c0 0d 	addcc  %o3, %o5, %o3
400083d8:	06 80 00 0b 	bl  40008404 <L3.13>
400083dc:	9b 33 60 01 	srl  %o5, 1, %o5
400083e0:	96 a2 c0 0d 	subcc  %o3, %o5, %o3
400083e4:	06 80 00 05 	bl  400083f8 <L4.11>
400083e8:	9b 33 60 01 	srl  %o5, 1, %o5
400083ec:	96 a2 c0 0d 	subcc  %o3, %o5, %o3
400083f0:	10 80 00 0e 	b  40008428 <end_regular_divide>
400083f4:	94 02 bf f7 	add  %o2, -9, %o2

400083f8 <L4.11>:
400083f8:	96 82 c0 0d 	addcc  %o3, %o5, %o3
400083fc:	10 80 00 0b 	b  40008428 <end_regular_divide>
40008400:	94 02 bf f5 	add  %o2, -11, %o2

40008404 <L3.13>:
40008404:	96 82 c0 0d 	addcc  %o3, %o5, %o3
40008408:	06 80 00 05 	bl  4000841c <L4.9>
4000840c:	9b 33 60 01 	srl  %o5, 1, %o5
40008410:	96 a2 c0 0d 	subcc  %o3, %o5, %o3
40008414:	10 80 00 05 	b  40008428 <end_regular_divide>
40008418:	94 02 bf f3 	add  %o2, -13, %o2

4000841c <L4.9>:
4000841c:	96 82 c0 0d 	addcc  %o3, %o5, %o3
40008420:	10 80 00 02 	b  40008428 <end_regular_divide>
40008424:	94 02 bf f1 	add  %o2, -15, %o2

40008428 <end_regular_divide>:
40008428:	98 a3 20 01 	deccc  %o4
4000842c:	16 bf ff a2 	bge  400082b4 <divloop>
40008430:	80 92 c0 00 	tst  %o3
40008434:	26 80 00 02 	bl,a   4000843c <got_result>
40008438:	96 02 c0 09 	add  %o3, %o1, %o3

4000843c <got_result>:
4000843c:	80 90 c0 00 	tst  %g3
40008440:	26 80 00 02 	bl,a   40008448 <got_result+0xc>
40008444:	96 20 00 0b 	neg  %o3
40008448:	81 c3 e0 08 	retl 
4000844c:	90 10 00 0b 	mov  %o3, %o0

40008450 <_fpadd_parts>:
40008450:	9d e3 bf a0 	save  %sp, -96, %sp
40008454:	c2 06 00 00 	ld  [ %i0 ], %g1
40008458:	80 a0 60 01 	cmp  %g1, 1
4000845c:	08 80 00 8c 	bleu  4000868c <_fpadd_parts+0x23c>
40008460:	01 00 00 00 	nop 
40008464:	c4 06 40 00 	ld  [ %i1 ], %g2
40008468:	80 a0 a0 01 	cmp  %g2, 1
4000846c:	08 80 00 ac 	bleu  4000871c <_fpadd_parts+0x2cc>
40008470:	80 a0 60 04 	cmp  %g1, 4
40008474:	02 80 00 df 	be  400087f0 <_fpadd_parts+0x3a0>
40008478:	80 a0 a0 04 	cmp  %g2, 4
4000847c:	02 80 00 a8 	be  4000871c <_fpadd_parts+0x2cc>
40008480:	80 a0 a0 02 	cmp  %g2, 2
40008484:	02 80 00 84 	be  40008694 <_fpadd_parts+0x244>
40008488:	80 a0 60 02 	cmp  %g1, 2
4000848c:	02 80 00 a4 	be  4000871c <_fpadd_parts+0x2cc>
40008490:	01 00 00 00 	nop 
40008494:	e0 06 20 08 	ld  [ %i0 + 8 ], %l0
40008498:	c8 06 60 08 	ld  [ %i1 + 8 ], %g4
4000849c:	84 24 00 04 	sub  %l0, %g4, %g2
400084a0:	e8 1e 20 10 	ldd  [ %i0 + 0x10 ], %l4
400084a4:	87 38 a0 1f 	sra  %g2, 0x1f, %g3
400084a8:	82 18 c0 02 	xor  %g3, %g2, %g1
400084ac:	82 20 40 03 	sub  %g1, %g3, %g1
400084b0:	80 a0 60 3f 	cmp  %g1, 0x3f
400084b4:	14 80 00 2f 	bg  40008570 <_fpadd_parts+0x120>
400084b8:	e4 1e 60 10 	ldd  [ %i1 + 0x10 ], %l2
400084bc:	80 a0 a0 00 	cmp  %g2, 0
400084c0:	04 80 00 9f 	ble  4000873c <_fpadd_parts+0x2ec>
400084c4:	80 88 60 20 	btst  0x20, %g1
400084c8:	02 80 00 83 	be  400086d4 <_fpadd_parts+0x284>
400084cc:	87 2c a0 01 	sll  %l2, 1, %g3
400084d0:	88 10 20 01 	mov  1, %g4
400084d4:	af 34 80 01 	srl  %l2, %g1, %l7
400084d8:	85 29 00 01 	sll  %g4, %g1, %g2
400084dc:	ac 10 20 00 	clr  %l6
400084e0:	86 10 20 00 	clr  %g3
400084e4:	86 80 ff ff 	addcc  %g3, -1, %g3
400084e8:	84 40 bf ff 	addx  %g2, -1, %g2
400084ec:	a6 08 c0 13 	and  %g3, %l3, %l3
400084f0:	a4 08 80 12 	and  %g2, %l2, %l2
400084f4:	94 10 20 00 	clr  %o2
400084f8:	96 10 20 00 	clr  %o3
400084fc:	90 10 00 12 	mov  %l2, %o0
40008500:	40 00 03 c5 	call  40009414 <__ucmpdi2>
40008504:	92 10 00 13 	mov  %l3, %o1
40008508:	80 a2 20 01 	cmp  %o0, 1
4000850c:	02 80 00 04 	be  4000851c <_fpadd_parts+0xcc>
40008510:	c2 06 20 04 	ld  [ %i0 + 4 ], %g1
40008514:	a4 10 20 00 	clr  %l2
40008518:	a6 10 20 01 	mov  1, %l3
4000851c:	c4 06 60 04 	ld  [ %i1 + 4 ], %g2
40008520:	a4 14 80 16 	or  %l2, %l6, %l2
40008524:	80 a0 40 02 	cmp  %g1, %g2
40008528:	12 80 00 1d 	bne  4000859c <_fpadd_parts+0x14c>
4000852c:	a6 14 c0 17 	or  %l3, %l7, %l3
40008530:	a6 84 c0 15 	addcc  %l3, %l5, %l3
40008534:	a4 44 80 14 	addx  %l2, %l4, %l2
40008538:	c2 26 a0 04 	st  %g1, [ %i2 + 4 ]
4000853c:	82 10 20 03 	mov  3, %g1
40008540:	e4 3e a0 10 	std  %l2, [ %i2 + 0x10 ]
40008544:	c2 26 80 00 	st  %g1, [ %i2 ]
40008548:	e0 26 a0 08 	st  %l0, [ %i2 + 8 ]
4000854c:	05 07 ff ff 	sethi  %hi(0x1ffffc00), %g2
40008550:	c8 06 a0 14 	ld  [ %i2 + 0x14 ], %g4
40008554:	84 10 a3 ff 	or  %g2, 0x3ff, %g2
40008558:	c2 06 a0 10 	ld  [ %i2 + 0x10 ], %g1
4000855c:	80 a0 40 02 	cmp  %g1, %g2
40008560:	18 80 00 3e 	bgu  40008658 <_fpadd_parts+0x208>
40008564:	b0 10 00 1a 	mov  %i2, %i0
40008568:	81 c7 e0 08 	ret 
4000856c:	81 e8 00 00 	restore 
40008570:	80 a4 00 04 	cmp  %l0, %g4
40008574:	34 80 00 56 	bg,a   400086cc <_fpadd_parts+0x27c>
40008578:	a4 10 20 00 	clr  %l2
4000857c:	a0 10 00 04 	mov  %g4, %l0
40008580:	a8 10 20 00 	clr  %l4
40008584:	aa 10 20 00 	clr  %l5
40008588:	c2 06 20 04 	ld  [ %i0 + 4 ], %g1
4000858c:	c4 06 60 04 	ld  [ %i1 + 4 ], %g2
40008590:	80 a0 40 02 	cmp  %g1, %g2
40008594:	22 bf ff e8 	be,a   40008534 <_fpadd_parts+0xe4>
40008598:	a6 84 c0 15 	addcc  %l3, %l5, %l3
4000859c:	80 a0 60 00 	cmp  %g1, 0
400085a0:	22 80 00 5d 	be,a   40008714 <_fpadd_parts+0x2c4>
400085a4:	a6 a5 40 13 	subcc  %l5, %l3, %l3
400085a8:	a6 a4 c0 15 	subcc  %l3, %l5, %l3
400085ac:	a4 64 80 14 	subx  %l2, %l4, %l2
400085b0:	80 a4 a0 00 	cmp  %l2, 0
400085b4:	26 80 00 5c 	bl,a   40008724 <_fpadd_parts+0x2d4>
400085b8:	a6 a0 00 13 	subcc  %g0, %l3, %l3
400085bc:	e0 26 a0 08 	st  %l0, [ %i2 + 8 ]
400085c0:	c0 26 a0 04 	clr  [ %i2 + 4 ]
400085c4:	e4 3e a0 10 	std  %l2, [ %i2 + 0x10 ]
400085c8:	86 84 ff ff 	addcc  %l3, -1, %g3
400085cc:	03 03 ff ff 	sethi  %hi(0xffffc00), %g1
400085d0:	84 44 bf ff 	addx  %l2, -1, %g2
400085d4:	82 10 63 ff 	or  %g1, 0x3ff, %g1
400085d8:	80 a0 80 01 	cmp  %g2, %g1
400085dc:	38 80 00 17 	bgu,a   40008638 <_fpadd_parts+0x1e8>
400085e0:	82 10 20 03 	mov  3, %g1
400085e4:	80 a0 80 01 	cmp  %g2, %g1
400085e8:	02 80 00 73 	be  400087b4 <_fpadd_parts+0x364>
400085ec:	80 a0 ff fe 	cmp  %g3, -2
400085f0:	c2 06 a0 08 	ld  [ %i2 + 8 ], %g1
400085f4:	1b 03 ff ff 	sethi  %hi(0xffffc00), %o5
400085f8:	9a 13 63 ff 	or  %o5, 0x3ff, %o5	! fffffff <_trap_table-0x30000001>
400085fc:	89 2c e0 01 	sll  %l3, 1, %g4
40008600:	a5 2c a0 01 	sll  %l2, 1, %l2
40008604:	86 81 3f ff 	addcc  %g4, -1, %g3
40008608:	a9 34 e0 1f 	srl  %l3, 0x1f, %l4
4000860c:	82 00 7f ff 	add  %g1, -1, %g1
40008610:	a8 15 00 12 	or  %l4, %l2, %l4
40008614:	a6 10 00 04 	mov  %g4, %l3
40008618:	84 45 3f ff 	addx  %l4, -1, %g2
4000861c:	80 a0 80 0d 	cmp  %g2, %o5
40008620:	08 80 00 36 	bleu  400086f8 <_fpadd_parts+0x2a8>
40008624:	a4 10 00 14 	mov  %l4, %l2
40008628:	e8 26 a0 10 	st  %l4, [ %i2 + 0x10 ]
4000862c:	c8 26 a0 14 	st  %g4, [ %i2 + 0x14 ]
40008630:	c2 26 a0 08 	st  %g1, [ %i2 + 8 ]
40008634:	82 10 20 03 	mov  3, %g1
40008638:	c2 26 80 00 	st  %g1, [ %i2 ]
4000863c:	c2 06 a0 10 	ld  [ %i2 + 0x10 ], %g1
40008640:	05 07 ff ff 	sethi  %hi(0x1ffffc00), %g2
40008644:	c8 06 a0 14 	ld  [ %i2 + 0x14 ], %g4
40008648:	84 10 a3 ff 	or  %g2, 0x3ff, %g2
4000864c:	80 a0 40 02 	cmp  %g1, %g2
40008650:	08 bf ff c6 	bleu  40008568 <_fpadd_parts+0x118>
40008654:	b0 10 00 1a 	mov  %i2, %i0
40008658:	c4 06 a0 08 	ld  [ %i2 + 8 ], %g2
4000865c:	84 00 a0 01 	inc  %g2
40008660:	98 10 20 00 	clr  %o4
40008664:	c4 26 a0 08 	st  %g2, [ %i2 + 8 ]
40008668:	98 0b 20 00 	and  %o4, 0, %o4
4000866c:	9a 09 20 01 	and  %g4, 1, %o5
40008670:	97 28 60 1f 	sll  %g1, 0x1f, %o3
40008674:	87 31 20 01 	srl  %g4, 1, %g3
40008678:	85 30 60 01 	srl  %g1, 1, %g2
4000867c:	86 12 c0 03 	or  %o3, %g3, %g3
40008680:	84 13 00 02 	or  %o4, %g2, %g2
40008684:	86 13 40 03 	or  %o5, %g3, %g3
40008688:	c4 3e a0 10 	std  %g2, [ %i2 + 0x10 ]
4000868c:	81 c7 e0 08 	ret 
40008690:	81 e8 00 00 	restore 
40008694:	12 bf ff fe 	bne  4000868c <_fpadd_parts+0x23c>
40008698:	01 00 00 00 	nop 
4000869c:	c4 1e 00 00 	ldd  [ %i0 ], %g2
400086a0:	c4 3e 80 00 	std  %g2, [ %i2 ]
400086a4:	c4 1e 20 08 	ldd  [ %i0 + 8 ], %g2
400086a8:	c4 3e a0 08 	std  %g2, [ %i2 + 8 ]
400086ac:	c4 1e 20 10 	ldd  [ %i0 + 0x10 ], %g2
400086b0:	c4 3e a0 10 	std  %g2, [ %i2 + 0x10 ]
400086b4:	c2 06 20 04 	ld  [ %i0 + 4 ], %g1
400086b8:	c4 06 60 04 	ld  [ %i1 + 4 ], %g2
400086bc:	82 08 80 01 	and  %g2, %g1, %g1
400086c0:	c2 26 a0 04 	st  %g1, [ %i2 + 4 ]
400086c4:	81 c7 e0 08 	ret 
400086c8:	91 e8 00 1a 	restore  %g0, %i2, %o0
400086cc:	10 bf ff af 	b  40008588 <_fpadd_parts+0x138>
400086d0:	a6 10 20 00 	clr  %l3
400086d4:	84 38 00 01 	xnor  %g0, %g1, %g2
400086d8:	85 28 c0 02 	sll  %g3, %g2, %g2
400086dc:	af 34 c0 01 	srl  %l3, %g1, %l7
400086e0:	88 10 20 01 	mov  1, %g4
400086e4:	ae 10 80 17 	or  %g2, %l7, %l7
400086e8:	87 29 00 01 	sll  %g4, %g1, %g3
400086ec:	84 10 20 00 	clr  %g2
400086f0:	10 bf ff 7d 	b  400084e4 <_fpadd_parts+0x94>
400086f4:	ad 34 80 01 	srl  %l2, %g1, %l6
400086f8:	32 bf ff c2 	bne,a   40008600 <_fpadd_parts+0x1b0>
400086fc:	89 2c e0 01 	sll  %l3, 1, %g4
40008700:	80 a0 ff fe 	cmp  %g3, -2
40008704:	28 bf ff bf 	bleu,a   40008600 <_fpadd_parts+0x1b0>
40008708:	89 2c e0 01 	sll  %l3, 1, %g4
4000870c:	10 bf ff c8 	b  4000862c <_fpadd_parts+0x1dc>
40008710:	e8 26 a0 10 	st  %l4, [ %i2 + 0x10 ]
40008714:	10 bf ff a7 	b  400085b0 <_fpadd_parts+0x160>
40008718:	a4 65 00 12 	subx  %l4, %l2, %l2
4000871c:	81 c7 e0 08 	ret 
40008720:	91 e8 00 19 	restore  %g0, %i1, %o0
40008724:	a4 60 00 12 	subx  %g0, %l2, %l2
40008728:	82 10 20 01 	mov  1, %g1
4000872c:	e0 26 a0 08 	st  %l0, [ %i2 + 8 ]
40008730:	e4 3e a0 10 	std  %l2, [ %i2 + 0x10 ]
40008734:	10 bf ff a5 	b  400085c8 <_fpadd_parts+0x178>
40008738:	c2 26 a0 04 	st  %g1, [ %i2 + 4 ]
4000873c:	80 a0 a0 00 	cmp  %g2, 0
40008740:	22 bf ff 93 	be,a   4000858c <_fpadd_parts+0x13c>
40008744:	c2 06 20 04 	ld  [ %i0 + 4 ], %g1
40008748:	84 88 60 20 	andcc  %g1, 0x20, %g2
4000874c:	02 80 00 22 	be  400087d4 <_fpadd_parts+0x384>
40008750:	a0 04 00 01 	add  %l0, %g1, %l0
40008754:	80 a0 a0 00 	cmp  %g2, 0
40008758:	af 35 00 01 	srl  %l4, %g1, %l7
4000875c:	12 80 00 1a 	bne  400087c4 <_fpadd_parts+0x374>
40008760:	ac 10 20 00 	clr  %l6
40008764:	88 10 20 01 	mov  1, %g4
40008768:	84 10 20 00 	clr  %g2
4000876c:	87 29 00 01 	sll  %g4, %g1, %g3
40008770:	86 80 ff ff 	addcc  %g3, -1, %g3
40008774:	84 40 bf ff 	addx  %g2, -1, %g2
40008778:	aa 08 c0 15 	and  %g3, %l5, %l5
4000877c:	a8 08 80 14 	and  %g2, %l4, %l4
40008780:	94 10 20 00 	clr  %o2
40008784:	96 10 20 00 	clr  %o3
40008788:	90 10 00 14 	mov  %l4, %o0
4000878c:	40 00 03 22 	call  40009414 <__ucmpdi2>
40008790:	92 10 00 15 	mov  %l5, %o1
40008794:	80 a2 20 01 	cmp  %o0, 1
40008798:	22 80 00 05 	be,a   400087ac <_fpadd_parts+0x35c>
4000879c:	a8 15 00 16 	or  %l4, %l6, %l4
400087a0:	a8 10 20 00 	clr  %l4
400087a4:	aa 10 20 01 	mov  1, %l5
400087a8:	a8 15 00 16 	or  %l4, %l6, %l4
400087ac:	10 bf ff 77 	b  40008588 <_fpadd_parts+0x138>
400087b0:	aa 15 40 17 	or  %l5, %l7, %l5
400087b4:	38 bf ff a1 	bgu,a   40008638 <_fpadd_parts+0x1e8>
400087b8:	82 10 20 03 	mov  3, %g1
400087bc:	10 bf ff 8e 	b  400085f4 <_fpadd_parts+0x1a4>
400087c0:	c2 06 a0 08 	ld  [ %i2 + 8 ], %g1
400087c4:	88 10 20 01 	mov  1, %g4
400087c8:	86 10 20 00 	clr  %g3
400087cc:	10 bf ff e9 	b  40008770 <_fpadd_parts+0x320>
400087d0:	85 29 00 01 	sll  %g4, %g1, %g2
400087d4:	87 2d 20 01 	sll  %l4, 1, %g3
400087d8:	84 38 00 01 	xnor  %g0, %g1, %g2
400087dc:	af 35 40 01 	srl  %l5, %g1, %l7
400087e0:	85 28 c0 02 	sll  %g3, %g2, %g2
400087e4:	ad 35 00 01 	srl  %l4, %g1, %l6
400087e8:	10 bf ff df 	b  40008764 <_fpadd_parts+0x314>
400087ec:	ae 10 80 17 	or  %g2, %l7, %l7
400087f0:	12 bf ff a7 	bne  4000868c <_fpadd_parts+0x23c>
400087f4:	01 00 00 00 	nop 
400087f8:	c2 06 60 04 	ld  [ %i1 + 4 ], %g1
400087fc:	c4 06 20 04 	ld  [ %i0 + 4 ], %g2
40008800:	80 a0 80 01 	cmp  %g2, %g1
40008804:	02 bf ff a2 	be  4000868c <_fpadd_parts+0x23c>
40008808:	01 00 00 00 	nop 
4000880c:	31 10 00 2e 	sethi  %hi(0x4000b800), %i0
40008810:	81 c7 e0 08 	ret 
40008814:	91 ee 21 b8 	restore  %i0, 0x1b8, %o0

40008818 <__subdf3>:
40008818:	9d e3 bf 48 	save  %sp, -184, %sp
4000881c:	f0 3f bf f8 	std  %i0, [ %fp + -8 ]
40008820:	a0 07 bf d8 	add  %fp, -40, %l0
40008824:	90 07 bf f8 	add  %fp, -8, %o0
40008828:	92 10 00 10 	mov  %l0, %o1
4000882c:	40 00 03 d1 	call  40009770 <__unpack_d>
40008830:	f4 3f bf f0 	std  %i2, [ %fp + -16 ]
40008834:	a2 07 bf c0 	add  %fp, -64, %l1
40008838:	90 07 bf f0 	add  %fp, -16, %o0
4000883c:	40 00 03 cd 	call  40009770 <__unpack_d>
40008840:	92 10 00 11 	mov  %l1, %o1
40008844:	c2 07 bf c4 	ld  [ %fp + -60 ], %g1
40008848:	82 18 60 01 	xor  %g1, 1, %g1
4000884c:	92 10 00 11 	mov  %l1, %o1
40008850:	94 07 bf a8 	add  %fp, -88, %o2
40008854:	c2 27 bf c4 	st  %g1, [ %fp + -60 ]
40008858:	7f ff fe fe 	call  40008450 <_fpadd_parts>
4000885c:	90 10 00 10 	mov  %l0, %o0
40008860:	40 00 03 1a 	call  400094c8 <__pack_d>
40008864:	01 00 00 00 	nop 
40008868:	b0 10 00 08 	mov  %o0, %i0
4000886c:	81 c7 e0 08 	ret 
40008870:	93 e8 00 09 	restore  %g0, %o1, %o1

40008874 <__adddf3>:
40008874:	9d e3 bf 48 	save  %sp, -184, %sp
40008878:	f0 3f bf f8 	std  %i0, [ %fp + -8 ]
4000887c:	a2 07 bf d8 	add  %fp, -40, %l1
40008880:	90 07 bf f8 	add  %fp, -8, %o0
40008884:	92 10 00 11 	mov  %l1, %o1
40008888:	40 00 03 ba 	call  40009770 <__unpack_d>
4000888c:	f4 3f bf f0 	std  %i2, [ %fp + -16 ]
40008890:	a0 07 bf c0 	add  %fp, -64, %l0
40008894:	90 07 bf f0 	add  %fp, -16, %o0
40008898:	40 00 03 b6 	call  40009770 <__unpack_d>
4000889c:	92 10 00 10 	mov  %l0, %o1
400088a0:	92 10 00 10 	mov  %l0, %o1
400088a4:	94 07 bf a8 	add  %fp, -88, %o2
400088a8:	7f ff fe ea 	call  40008450 <_fpadd_parts>
400088ac:	90 10 00 11 	mov  %l1, %o0
400088b0:	40 00 03 06 	call  400094c8 <__pack_d>
400088b4:	01 00 00 00 	nop 
400088b8:	b0 10 00 08 	mov  %o0, %i0
400088bc:	81 c7 e0 08 	ret 
400088c0:	93 e8 00 09 	restore  %g0, %o1, %o1

400088c4 <__muldf3>:
400088c4:	9d e3 bf 48 	save  %sp, -184, %sp
400088c8:	90 07 bf f8 	add  %fp, -8, %o0
400088cc:	f0 3f bf f8 	std  %i0, [ %fp + -8 ]
400088d0:	f4 3f bf f0 	std  %i2, [ %fp + -16 ]
400088d4:	a4 07 bf d8 	add  %fp, -40, %l2
400088d8:	40 00 03 a6 	call  40009770 <__unpack_d>
400088dc:	92 10 00 12 	mov  %l2, %o1
400088e0:	a8 07 bf c0 	add  %fp, -64, %l4
400088e4:	90 07 bf f0 	add  %fp, -16, %o0
400088e8:	40 00 03 a2 	call  40009770 <__unpack_d>
400088ec:	92 10 00 14 	mov  %l4, %o1
400088f0:	c2 07 bf d8 	ld  [ %fp + -40 ], %g1
400088f4:	80 a0 60 01 	cmp  %g1, 1
400088f8:	08 80 00 a2 	bleu  40008b80 <__muldf3+0x2bc>
400088fc:	c4 07 bf c0 	ld  [ %fp + -64 ], %g2
40008900:	80 a0 a0 01 	cmp  %g2, 1
40008904:	08 80 00 b9 	bleu  40008be8 <__muldf3+0x324>
40008908:	80 a0 60 04 	cmp  %g1, 4
4000890c:	02 80 00 99 	be  40008b70 <__muldf3+0x2ac>
40008910:	80 a0 a0 04 	cmp  %g2, 4
40008914:	02 80 00 b2 	be  40008bdc <__muldf3+0x318>
40008918:	80 a0 60 02 	cmp  %g1, 2
4000891c:	02 80 00 99 	be  40008b80 <__muldf3+0x2bc>
40008920:	80 a0 a0 02 	cmp  %g2, 2
40008924:	02 80 00 b1 	be  40008be8 <__muldf3+0x324>
40008928:	e4 07 bf d4 	ld  [ %fp + -44 ], %l2
4000892c:	e8 07 bf ec 	ld  [ %fp + -20 ], %l4
40008930:	96 10 00 12 	mov  %l2, %o3
40008934:	94 10 20 00 	clr  %o2
40008938:	92 10 00 14 	mov  %l4, %o1
4000893c:	fa 07 bf d0 	ld  [ %fp + -48 ], %i5
40008940:	40 00 02 82 	call  40009348 <__muldi3>
40008944:	90 10 20 00 	clr  %o0
40008948:	96 10 00 14 	mov  %l4, %o3
4000894c:	94 10 20 00 	clr  %o2
40008950:	f8 07 bf e8 	ld  [ %fp + -24 ], %i4
40008954:	a8 10 00 08 	mov  %o0, %l4
40008958:	aa 10 00 09 	mov  %o1, %l5
4000895c:	90 10 20 00 	clr  %o0
40008960:	40 00 02 7a 	call  40009348 <__muldi3>
40008964:	92 10 00 1d 	mov  %i5, %o1
40008968:	96 10 00 12 	mov  %l2, %o3
4000896c:	a6 10 00 09 	mov  %o1, %l3
40008970:	a4 10 00 08 	mov  %o0, %l2
40008974:	92 10 00 1c 	mov  %i4, %o1
40008978:	90 10 20 00 	clr  %o0
4000897c:	40 00 02 73 	call  40009348 <__muldi3>
40008980:	94 10 20 00 	clr  %o2
40008984:	86 82 40 13 	addcc  %o1, %l3, %g3
40008988:	84 42 00 12 	addx  %o0, %l2, %g2
4000898c:	80 a4 80 02 	cmp  %l2, %g2
40008990:	08 80 00 4c 	bleu  40008ac0 <__muldf3+0x1fc>
40008994:	01 00 00 00 	nop 
40008998:	a6 10 20 00 	clr  %l3	! 0 <_trap_table-0x40000000>
4000899c:	a6 84 c0 15 	addcc  %l3, %l5, %l3
400089a0:	ac 10 20 01 	mov  1, %l6
400089a4:	a4 40 c0 14 	addx  %g3, %l4, %l2
400089a8:	80 a5 00 12 	cmp  %l4, %l2
400089ac:	18 80 00 4e 	bgu  40008ae4 <__muldf3+0x220>
400089b0:	ae 10 20 00 	clr  %l7
400089b4:	80 a5 00 12 	cmp  %l4, %l2
400089b8:	02 80 00 97 	be  40008c14 <__muldf3+0x350>
400089bc:	80 a5 40 13 	cmp  %l5, %l3
400089c0:	aa 10 00 02 	mov  %g2, %l5
400089c4:	92 10 00 1c 	mov  %i4, %o1
400089c8:	96 10 00 1d 	mov  %i5, %o3
400089cc:	90 10 20 00 	clr  %o0
400089d0:	40 00 02 5e 	call  40009348 <__muldi3>
400089d4:	94 10 20 00 	clr  %o2
400089d8:	c4 07 bf c8 	ld  [ %fp + -56 ], %g2
400089dc:	c2 07 bf e0 	ld  [ %fp + -32 ], %g1
400089e0:	82 00 80 01 	add  %g2, %g1, %g1
400089e4:	c6 07 bf dc 	ld  [ %fp + -36 ], %g3
400089e8:	c4 07 bf c4 	ld  [ %fp + -60 ], %g2
400089ec:	aa 85 40 09 	addcc  %l5, %o1, %l5
400089f0:	84 18 c0 02 	xor  %g3, %g2, %g2
400089f4:	a8 10 20 00 	clr  %l4
400089f8:	a8 45 00 08 	addx  %l4, %o0, %l4
400089fc:	ae 85 40 17 	addcc  %l5, %l7, %l7
40008a00:	ac 45 00 16 	addx  %l4, %l6, %l6
40008a04:	80 a0 00 02 	cmp  %g0, %g2
40008a08:	84 40 20 00 	addx  %g0, 0, %g2
40008a0c:	c4 27 bf ac 	st  %g2, [ %fp + -84 ]
40008a10:	84 00 60 04 	add  %g1, 4, %g2
40008a14:	c4 27 bf b0 	st  %g2, [ %fp + -80 ]
40008a18:	19 07 ff ff 	sethi  %hi(0x1ffffc00), %o4
40008a1c:	98 13 23 ff 	or  %o4, 0x3ff, %o4	! 1fffffff <_trap_table-0x20000001>
40008a20:	80 a5 80 0c 	cmp  %l6, %o4
40008a24:	18 80 00 33 	bgu  40008af0 <__muldf3+0x22c>
40008a28:	82 00 60 05 	add  %g1, 5, %g1
40008a2c:	09 03 ff ff 	sethi  %hi(0xffffc00), %g4
40008a30:	88 11 23 ff 	or  %g4, 0x3ff, %g4	! fffffff <_trap_table-0x30000001>
40008a34:	80 a5 80 04 	cmp  %l6, %g4
40008a38:	18 80 00 16 	bgu  40008a90 <__muldf3+0x1cc>
40008a3c:	86 0d e0 ff 	and  %l7, 0xff, %g3
40008a40:	c2 07 bf b0 	ld  [ %fp + -80 ], %g1
40008a44:	ad 2d a0 01 	sll  %l6, 1, %l6
40008a48:	a9 35 e0 1f 	srl  %l7, 0x1f, %l4
40008a4c:	87 2d e0 01 	sll  %l7, 1, %g3
40008a50:	a8 15 00 16 	or  %l4, %l6, %l4
40008a54:	80 a4 a0 00 	cmp  %l2, 0
40008a58:	82 00 7f ff 	add  %g1, -1, %g1
40008a5c:	85 2c e0 01 	sll  %l3, 1, %g2
40008a60:	ac 10 00 14 	mov  %l4, %l6
40008a64:	06 80 00 3a 	bl  40008b4c <__muldf3+0x288>
40008a68:	ae 10 00 03 	mov  %g3, %l7
40008a6c:	a5 2c a0 01 	sll  %l2, 1, %l2
40008a70:	87 34 e0 1f 	srl  %l3, 0x1f, %g3
40008a74:	80 a5 80 04 	cmp  %l6, %g4
40008a78:	86 10 c0 12 	or  %g3, %l2, %g3
40008a7c:	a6 10 00 02 	mov  %g2, %l3
40008a80:	08 bf ff f1 	bleu  40008a44 <__muldf3+0x180>
40008a84:	a4 10 00 03 	mov  %g3, %l2
40008a88:	c2 27 bf b0 	st  %g1, [ %fp + -80 ]
40008a8c:	86 0d e0 ff 	and  %l7, 0xff, %g3
40008a90:	80 a0 e0 80 	cmp  %g3, 0x80
40008a94:	02 80 00 46 	be  40008bac <__muldf3+0x2e8>
40008a98:	84 0d a0 00 	and  %l6, 0, %g2
40008a9c:	82 10 20 03 	mov  3, %g1
40008aa0:	ec 3f bf b8 	std  %l6, [ %fp + -72 ]
40008aa4:	c2 27 bf a8 	st  %g1, [ %fp + -88 ]
40008aa8:	90 07 bf a8 	add  %fp, -88, %o0
40008aac:	40 00 02 87 	call  400094c8 <__pack_d>
40008ab0:	01 00 00 00 	nop 
40008ab4:	b0 10 00 08 	mov  %o0, %i0
40008ab8:	81 c7 e0 08 	ret 
40008abc:	93 e8 00 09 	restore  %g0, %o1, %o1
40008ac0:	02 80 00 26 	be  40008b58 <__muldf3+0x294>
40008ac4:	ac 10 20 00 	clr  %l6
40008ac8:	ae 10 20 00 	clr  %l7
40008acc:	a6 10 20 00 	clr  %l3
40008ad0:	a6 84 c0 15 	addcc  %l3, %l5, %l3
40008ad4:	a4 40 c0 14 	addx  %g3, %l4, %l2
40008ad8:	80 a5 00 12 	cmp  %l4, %l2
40008adc:	08 bf ff b7 	bleu  400089b8 <__muldf3+0xf4>
40008ae0:	01 00 00 00 	nop 
40008ae4:	ae 85 e0 01 	inccc  %l7
40008ae8:	10 bf ff b6 	b  400089c0 <__muldf3+0xfc>
40008aec:	ac 45 a0 00 	addx  %l6, 0, %l6
40008af0:	15 20 00 00 	sethi  %hi(0x80000000), %o2
40008af4:	96 10 20 00 	clr  %o3
40008af8:	84 0d e0 01 	and  %l7, 1, %g2
40008afc:	87 35 a0 01 	srl  %l6, 1, %g3
40008b00:	80 a0 a0 00 	cmp  %g2, 0
40008b04:	02 80 00 08 	be  40008b24 <__muldf3+0x260>
40008b08:	9a 10 00 01 	mov  %g1, %o5
40008b0c:	85 2c a0 1f 	sll  %l2, 0x1f, %g2
40008b10:	a3 34 e0 01 	srl  %l3, 1, %l1
40008b14:	a1 34 a0 01 	srl  %l2, 1, %l0
40008b18:	a2 10 80 11 	or  %g2, %l1, %l1
40008b1c:	a4 14 00 0a 	or  %l0, %o2, %l2
40008b20:	a6 14 40 0b 	or  %l1, %o3, %l3
40008b24:	89 2d a0 1f 	sll  %l6, 0x1f, %g4
40008b28:	85 35 e0 01 	srl  %l7, 1, %g2
40008b2c:	82 00 60 01 	inc  %g1
40008b30:	84 11 00 02 	or  %g4, %g2, %g2
40008b34:	ac 10 00 03 	mov  %g3, %l6
40008b38:	80 a0 c0 0c 	cmp  %g3, %o4
40008b3c:	18 bf ff ef 	bgu  40008af8 <__muldf3+0x234>
40008b40:	ae 10 00 02 	mov  %g2, %l7
40008b44:	10 bf ff ba 	b  40008a2c <__muldf3+0x168>
40008b48:	da 27 bf b0 	st  %o5, [ %fp + -80 ]
40008b4c:	ac 15 20 00 	mov  %l4, %l6
40008b50:	10 bf ff c7 	b  40008a6c <__muldf3+0x1a8>
40008b54:	ae 10 e0 01 	or  %g3, 1, %l7
40008b58:	80 a4 c0 03 	cmp  %l3, %g3
40008b5c:	18 bf ff 90 	bgu  4000899c <__muldf3+0xd8>
40008b60:	a6 10 20 00 	clr  %l3
40008b64:	ac 10 20 00 	clr  %l6
40008b68:	10 bf ff da 	b  40008ad0 <__muldf3+0x20c>
40008b6c:	ae 10 20 00 	clr  %l7
40008b70:	11 10 00 2e 	sethi  %hi(0x4000b800), %o0
40008b74:	80 a0 a0 02 	cmp  %g2, 2
40008b78:	02 bf ff cd 	be  40008aac <__muldf3+0x1e8>
40008b7c:	90 12 21 b8 	or  %o0, 0x1b8, %o0
40008b80:	c4 07 bf dc 	ld  [ %fp + -36 ], %g2
40008b84:	c2 07 bf c4 	ld  [ %fp + -60 ], %g1
40008b88:	82 18 80 01 	xor  %g2, %g1, %g1
40008b8c:	80 a0 00 01 	cmp  %g0, %g1
40008b90:	82 40 20 00 	addx  %g0, 0, %g1
40008b94:	90 10 00 12 	mov  %l2, %o0
40008b98:	40 00 02 4c 	call  400094c8 <__pack_d>
40008b9c:	c2 27 bf dc 	st  %g1, [ %fp + -36 ]
40008ba0:	b0 10 00 08 	mov  %o0, %i0
40008ba4:	81 c7 e0 08 	ret 
40008ba8:	93 e8 00 09 	restore  %g0, %o1, %o1
40008bac:	86 0d e1 00 	and  %l7, 0x100, %g3
40008bb0:	80 90 80 03 	orcc  %g2, %g3, %g0
40008bb4:	12 bf ff bb 	bne  40008aa0 <__muldf3+0x1dc>
40008bb8:	82 10 20 03 	mov  3, %g1
40008bbc:	80 94 80 13 	orcc  %l2, %l3, %g0
40008bc0:	22 bf ff b9 	be,a   40008aa4 <__muldf3+0x1e0>
40008bc4:	ec 3f bf b8 	std  %l6, [ %fp + -72 ]
40008bc8:	ae 85 e0 80 	addcc  %l7, 0x80, %l7
40008bcc:	ac 45 a0 00 	addx  %l6, 0, %l6
40008bd0:	ae 0d ff 00 	and  %l7, -256, %l7
40008bd4:	10 bf ff b3 	b  40008aa0 <__muldf3+0x1dc>
40008bd8:	ac 0d bf ff 	and  %l6, -1, %l6
40008bdc:	11 10 00 2e 	sethi  %hi(0x4000b800), %o0
40008be0:	02 bf ff b3 	be  40008aac <__muldf3+0x1e8>
40008be4:	90 12 21 b8 	or  %o0, 0x1b8, %o0	! 4000b9b8 <__thenan_df>
40008be8:	c2 07 bf c4 	ld  [ %fp + -60 ], %g1
40008bec:	c4 07 bf dc 	ld  [ %fp + -36 ], %g2
40008bf0:	82 18 80 01 	xor  %g2, %g1, %g1
40008bf4:	80 a0 00 01 	cmp  %g0, %g1
40008bf8:	82 40 20 00 	addx  %g0, 0, %g1
40008bfc:	90 10 00 14 	mov  %l4, %o0
40008c00:	40 00 02 32 	call  400094c8 <__pack_d>
40008c04:	c2 27 bf c4 	st  %g1, [ %fp + -60 ]
40008c08:	b0 10 00 08 	mov  %o0, %i0
40008c0c:	81 c7 e0 08 	ret 
40008c10:	93 e8 00 09 	restore  %g0, %o1, %o1
40008c14:	08 bf ff 6c 	bleu  400089c4 <__muldf3+0x100>
40008c18:	aa 10 00 02 	mov  %g2, %l5
40008c1c:	ae 85 e0 01 	inccc  %l7
40008c20:	10 bf ff 69 	b  400089c4 <__muldf3+0x100>
40008c24:	ac 45 a0 00 	addx  %l6, 0, %l6

40008c28 <__divdf3>:
40008c28:	9d e3 bf 60 	save  %sp, -160, %sp
40008c2c:	a0 07 bf d8 	add  %fp, -40, %l0
40008c30:	90 07 bf f8 	add  %fp, -8, %o0
40008c34:	92 10 00 10 	mov  %l0, %o1
40008c38:	f0 3f bf f8 	std  %i0, [ %fp + -8 ]
40008c3c:	40 00 02 cd 	call  40009770 <__unpack_d>
40008c40:	f4 3f bf f0 	std  %i2, [ %fp + -16 ]
40008c44:	90 07 bf f0 	add  %fp, -16, %o0
40008c48:	a2 07 bf c0 	add  %fp, -64, %l1
40008c4c:	40 00 02 c9 	call  40009770 <__unpack_d>
40008c50:	92 10 00 11 	mov  %l1, %o1
40008c54:	c2 07 bf d8 	ld  [ %fp + -40 ], %g1
40008c58:	80 a0 60 01 	cmp  %g1, 1
40008c5c:	08 80 00 53 	bleu  40008da8 <__divdf3+0x180>
40008c60:	90 10 00 10 	mov  %l0, %o0
40008c64:	c4 07 bf c0 	ld  [ %fp + -64 ], %g2
40008c68:	80 a0 a0 01 	cmp  %g2, 1
40008c6c:	08 80 00 4f 	bleu  40008da8 <__divdf3+0x180>
40008c70:	90 10 00 11 	mov  %l1, %o0
40008c74:	c8 07 bf dc 	ld  [ %fp + -36 ], %g4
40008c78:	c6 07 bf c4 	ld  [ %fp + -60 ], %g3
40008c7c:	86 19 00 03 	xor  %g4, %g3, %g3
40008c80:	80 a0 60 04 	cmp  %g1, 4
40008c84:	02 80 00 59 	be  40008de8 <__divdf3+0x1c0>
40008c88:	c6 27 bf dc 	st  %g3, [ %fp + -36 ]
40008c8c:	80 a0 60 02 	cmp  %g1, 2
40008c90:	02 80 00 56 	be  40008de8 <__divdf3+0x1c0>
40008c94:	80 a0 a0 04 	cmp  %g2, 4
40008c98:	02 80 00 6e 	be  40008e50 <__divdf3+0x228>
40008c9c:	80 a0 a0 02 	cmp  %g2, 2
40008ca0:	02 80 00 65 	be  40008e34 <__divdf3+0x20c>
40008ca4:	c4 07 bf e0 	ld  [ %fp + -32 ], %g2
40008ca8:	c2 07 bf c8 	ld  [ %fp + -56 ], %g1
40008cac:	82 20 80 01 	sub  %g2, %g1, %g1
40008cb0:	d4 1f bf d0 	ldd  [ %fp + -48 ], %o2
40008cb4:	c4 1f bf e8 	ldd  [ %fp + -24 ], %g2
40008cb8:	80 a2 80 02 	cmp  %o2, %g2
40008cbc:	18 80 00 42 	bgu  40008dc4 <__divdf3+0x19c>
40008cc0:	c2 27 bf e0 	st  %g1, [ %fp + -32 ]
40008cc4:	80 a2 80 02 	cmp  %o2, %g2
40008cc8:	02 80 00 3d 	be  40008dbc <__divdf3+0x194>
40008ccc:	80 a2 c0 03 	cmp  %o3, %g3
40008cd0:	82 10 20 00 	clr  %g1
40008cd4:	19 04 00 00 	sethi  %hi(0x10000000), %o4
40008cd8:	9a 10 20 00 	clr  %o5
40008cdc:	a4 10 20 00 	clr  %l2
40008ce0:	10 80 00 14 	b  40008d30 <__divdf3+0x108>
40008ce4:	a6 10 20 00 	clr  %l3
40008ce8:	a4 14 80 0c 	or  %l2, %o4, %l2
40008cec:	84 60 80 0a 	subx  %g2, %o2, %g2
40008cf0:	a6 14 c0 0d 	or  %l3, %o5, %l3
40008cf4:	9b 33 60 01 	srl  %o5, 1, %o5
40008cf8:	85 28 a0 01 	sll  %g2, 1, %g2
40008cfc:	91 2b 20 1f 	sll  %o4, 0x1f, %o0
40008d00:	93 30 e0 1f 	srl  %g3, 0x1f, %o1
40008d04:	9f 33 20 01 	srl  %o4, 1, %o7
40008d08:	89 28 e0 01 	sll  %g3, 1, %g4
40008d0c:	82 00 60 01 	inc  %g1
40008d10:	90 12 00 0d 	or  %o0, %o5, %o0
40008d14:	92 12 40 02 	or  %o1, %g2, %o1
40008d18:	80 a0 60 3d 	cmp  %g1, 0x3d
40008d1c:	98 10 00 0f 	mov  %o7, %o4
40008d20:	9a 10 00 08 	mov  %o0, %o5
40008d24:	84 10 00 09 	mov  %o1, %g2
40008d28:	02 80 00 1a 	be  40008d90 <__divdf3+0x168>
40008d2c:	86 10 00 04 	mov  %g4, %g3
40008d30:	80 a2 80 02 	cmp  %o2, %g2
40008d34:	38 bf ff f1 	bgu,a   40008cf8 <__divdf3+0xd0>
40008d38:	9b 33 60 01 	srl  %o5, 1, %o5
40008d3c:	80 a2 80 02 	cmp  %o2, %g2
40008d40:	32 bf ff ea 	bne,a   40008ce8 <__divdf3+0xc0>
40008d44:	86 a0 c0 0b 	subcc  %g3, %o3, %g3
40008d48:	80 a2 c0 03 	cmp  %o3, %g3
40008d4c:	28 bf ff e7 	bleu,a   40008ce8 <__divdf3+0xc0>
40008d50:	86 a0 c0 0b 	subcc  %g3, %o3, %g3
40008d54:	9b 33 60 01 	srl  %o5, 1, %o5
40008d58:	85 28 a0 01 	sll  %g2, 1, %g2
40008d5c:	91 2b 20 1f 	sll  %o4, 0x1f, %o0
40008d60:	93 30 e0 1f 	srl  %g3, 0x1f, %o1
40008d64:	9f 33 20 01 	srl  %o4, 1, %o7
40008d68:	89 28 e0 01 	sll  %g3, 1, %g4
40008d6c:	82 00 60 01 	inc  %g1
40008d70:	90 12 00 0d 	or  %o0, %o5, %o0
40008d74:	92 12 40 02 	or  %o1, %g2, %o1
40008d78:	80 a0 60 3d 	cmp  %g1, 0x3d
40008d7c:	98 10 00 0f 	mov  %o7, %o4
40008d80:	9a 10 00 08 	mov  %o0, %o5
40008d84:	84 10 00 09 	mov  %o1, %g2
40008d88:	12 bf ff ea 	bne  40008d30 <__divdf3+0x108>
40008d8c:	86 10 00 04 	mov  %g4, %g3
40008d90:	9a 0c e0 ff 	and  %l3, 0xff, %o5
40008d94:	80 a3 60 80 	cmp  %o5, 0x80
40008d98:	02 80 00 1a 	be  40008e00 <__divdf3+0x1d8>
40008d9c:	98 0c a0 00 	and  %l2, 0, %o4
40008da0:	e4 3f bf e8 	std  %l2, [ %fp + -24 ]
40008da4:	90 10 00 10 	mov  %l0, %o0
40008da8:	40 00 01 c8 	call  400094c8 <__pack_d>
40008dac:	01 00 00 00 	nop 
40008db0:	b0 10 00 08 	mov  %o0, %i0
40008db4:	81 c7 e0 08 	ret 
40008db8:	93 e8 00 09 	restore  %g0, %o1, %o1
40008dbc:	28 bf ff c6 	bleu,a   40008cd4 <__divdf3+0xac>
40008dc0:	82 10 20 00 	clr  %g1
40008dc4:	82 00 7f ff 	add  %g1, -1, %g1
40008dc8:	85 28 a0 01 	sll  %g2, 1, %g2
40008dcc:	89 30 e0 1f 	srl  %g3, 0x1f, %g4
40008dd0:	c2 27 bf e0 	st  %g1, [ %fp + -32 ]
40008dd4:	88 11 00 02 	or  %g4, %g2, %g4
40008dd8:	83 28 e0 01 	sll  %g3, 1, %g1
40008ddc:	84 10 00 04 	mov  %g4, %g2
40008de0:	10 bf ff bc 	b  40008cd0 <__divdf3+0xa8>
40008de4:	86 10 00 01 	mov  %g1, %g3
40008de8:	11 10 00 2e 	sethi  %hi(0x4000b800), %o0
40008dec:	80 a0 80 01 	cmp  %g2, %g1
40008df0:	02 bf ff ee 	be  40008da8 <__divdf3+0x180>
40008df4:	90 12 21 b8 	or  %o0, 0x1b8, %o0
40008df8:	10 bf ff ec 	b  40008da8 <__divdf3+0x180>
40008dfc:	90 10 00 10 	mov  %l0, %o0
40008e00:	9a 0c e1 00 	and  %l3, 0x100, %o5
40008e04:	80 93 00 0d 	orcc  %o4, %o5, %g0
40008e08:	32 bf ff e7 	bne,a   40008da4 <__divdf3+0x17c>
40008e0c:	e4 3f bf e8 	std  %l2, [ %fp + -24 ]
40008e10:	80 92 40 04 	orcc  %o1, %g4, %g0
40008e14:	22 bf ff e4 	be,a   40008da4 <__divdf3+0x17c>
40008e18:	e4 3f bf e8 	std  %l2, [ %fp + -24 ]
40008e1c:	a6 84 e0 80 	addcc  %l3, 0x80, %l3
40008e20:	a4 44 a0 00 	addx  %l2, 0, %l2
40008e24:	a6 0c ff 00 	and  %l3, -256, %l3
40008e28:	a4 0c bf ff 	and  %l2, -1, %l2
40008e2c:	10 bf ff de 	b  40008da4 <__divdf3+0x17c>
40008e30:	e4 3f bf e8 	std  %l2, [ %fp + -24 ]
40008e34:	82 10 20 04 	mov  4, %g1
40008e38:	90 10 00 10 	mov  %l0, %o0
40008e3c:	40 00 01 a3 	call  400094c8 <__pack_d>
40008e40:	c2 27 bf d8 	st  %g1, [ %fp + -40 ]
40008e44:	b0 10 00 08 	mov  %o0, %i0
40008e48:	81 c7 e0 08 	ret 
40008e4c:	93 e8 00 09 	restore  %g0, %o1, %o1
40008e50:	c0 27 bf e8 	clr  [ %fp + -24 ]
40008e54:	c0 27 bf ec 	clr  [ %fp + -20 ]
40008e58:	c0 27 bf e0 	clr  [ %fp + -32 ]
40008e5c:	10 bf ff d3 	b  40008da8 <__divdf3+0x180>
40008e60:	90 10 00 10 	mov  %l0, %o0

40008e64 <__eqdf2>:
40008e64:	9d e3 bf 60 	save  %sp, -160, %sp
40008e68:	90 07 bf f8 	add  %fp, -8, %o0
40008e6c:	f0 3f bf f8 	std  %i0, [ %fp + -8 ]
40008e70:	f4 3f bf f0 	std  %i2, [ %fp + -16 ]
40008e74:	a2 07 bf d8 	add  %fp, -40, %l1
40008e78:	40 00 02 3e 	call  40009770 <__unpack_d>
40008e7c:	92 10 00 11 	mov  %l1, %o1
40008e80:	a0 07 bf c0 	add  %fp, -64, %l0
40008e84:	90 07 bf f0 	add  %fp, -16, %o0
40008e88:	40 00 02 3a 	call  40009770 <__unpack_d>
40008e8c:	92 10 00 10 	mov  %l0, %o1
40008e90:	c2 07 bf d8 	ld  [ %fp + -40 ], %g1
40008e94:	80 a0 60 01 	cmp  %g1, 1
40008e98:	08 80 00 0a 	bleu  40008ec0 <__eqdf2+0x5c>
40008e9c:	c2 07 bf c0 	ld  [ %fp + -64 ], %g1
40008ea0:	80 a0 60 01 	cmp  %g1, 1
40008ea4:	08 80 00 05 	bleu  40008eb8 <__eqdf2+0x54>
40008ea8:	90 10 20 01 	mov  1, %o0
40008eac:	90 10 00 11 	mov  %l1, %o0
40008eb0:	40 00 02 7f 	call  400098ac <__fpcmp_parts_d>
40008eb4:	92 10 00 10 	mov  %l0, %o1
40008eb8:	81 c7 e0 08 	ret 
40008ebc:	91 e8 00 08 	restore  %g0, %o0, %o0
40008ec0:	10 bf ff fe 	b  40008eb8 <__eqdf2+0x54>
40008ec4:	90 10 20 01 	mov  1, %o0

40008ec8 <__nedf2>:
40008ec8:	9d e3 bf 60 	save  %sp, -160, %sp
40008ecc:	90 07 bf f8 	add  %fp, -8, %o0
40008ed0:	f0 3f bf f8 	std  %i0, [ %fp + -8 ]
40008ed4:	f4 3f bf f0 	std  %i2, [ %fp + -16 ]
40008ed8:	a2 07 bf d8 	add  %fp, -40, %l1
40008edc:	40 00 02 25 	call  40009770 <__unpack_d>
40008ee0:	92 10 00 11 	mov  %l1, %o1
40008ee4:	a0 07 bf c0 	add  %fp, -64, %l0
40008ee8:	90 07 bf f0 	add  %fp, -16, %o0
40008eec:	40 00 02 21 	call  40009770 <__unpack_d>
40008ef0:	92 10 00 10 	mov  %l0, %o1
40008ef4:	c2 07 bf d8 	ld  [ %fp + -40 ], %g1
40008ef8:	80 a0 60 01 	cmp  %g1, 1
40008efc:	08 80 00 0a 	bleu  40008f24 <__nedf2+0x5c>
40008f00:	c2 07 bf c0 	ld  [ %fp + -64 ], %g1
40008f04:	80 a0 60 01 	cmp  %g1, 1
40008f08:	08 80 00 05 	bleu  40008f1c <__nedf2+0x54>
40008f0c:	90 10 20 01 	mov  1, %o0
40008f10:	90 10 00 11 	mov  %l1, %o0
40008f14:	40 00 02 66 	call  400098ac <__fpcmp_parts_d>
40008f18:	92 10 00 10 	mov  %l0, %o1
40008f1c:	81 c7 e0 08 	ret 
40008f20:	91 e8 00 08 	restore  %g0, %o0, %o0
40008f24:	10 bf ff fe 	b  40008f1c <__nedf2+0x54>
40008f28:	90 10 20 01 	mov  1, %o0

40008f2c <__gtdf2>:
40008f2c:	9d e3 bf 60 	save  %sp, -160, %sp
40008f30:	90 07 bf f8 	add  %fp, -8, %o0
40008f34:	f0 3f bf f8 	std  %i0, [ %fp + -8 ]
40008f38:	f4 3f bf f0 	std  %i2, [ %fp + -16 ]
40008f3c:	a2 07 bf d8 	add  %fp, -40, %l1
40008f40:	40 00 02 0c 	call  40009770 <__unpack_d>
40008f44:	92 10 00 11 	mov  %l1, %o1
40008f48:	a0 07 bf c0 	add  %fp, -64, %l0
40008f4c:	90 07 bf f0 	add  %fp, -16, %o0
40008f50:	40 00 02 08 	call  40009770 <__unpack_d>
40008f54:	92 10 00 10 	mov  %l0, %o1
40008f58:	c2 07 bf d8 	ld  [ %fp + -40 ], %g1
40008f5c:	80 a0 60 01 	cmp  %g1, 1
40008f60:	08 80 00 0a 	bleu  40008f88 <__gtdf2+0x5c>
40008f64:	c2 07 bf c0 	ld  [ %fp + -64 ], %g1
40008f68:	80 a0 60 01 	cmp  %g1, 1
40008f6c:	08 80 00 05 	bleu  40008f80 <__gtdf2+0x54>
40008f70:	90 10 3f ff 	mov  -1, %o0
40008f74:	90 10 00 11 	mov  %l1, %o0
40008f78:	40 00 02 4d 	call  400098ac <__fpcmp_parts_d>
40008f7c:	92 10 00 10 	mov  %l0, %o1
40008f80:	81 c7 e0 08 	ret 
40008f84:	91 e8 00 08 	restore  %g0, %o0, %o0
40008f88:	10 bf ff fe 	b  40008f80 <__gtdf2+0x54>
40008f8c:	90 10 3f ff 	mov  -1, %o0

40008f90 <__gedf2>:
40008f90:	9d e3 bf 60 	save  %sp, -160, %sp
40008f94:	90 07 bf f8 	add  %fp, -8, %o0
40008f98:	f0 3f bf f8 	std  %i0, [ %fp + -8 ]
40008f9c:	f4 3f bf f0 	std  %i2, [ %fp + -16 ]
40008fa0:	a2 07 bf d8 	add  %fp, -40, %l1
40008fa4:	40 00 01 f3 	call  40009770 <__unpack_d>
40008fa8:	92 10 00 11 	mov  %l1, %o1
40008fac:	a0 07 bf c0 	add  %fp, -64, %l0
40008fb0:	90 07 bf f0 	add  %fp, -16, %o0
40008fb4:	40 00 01 ef 	call  40009770 <__unpack_d>
40008fb8:	92 10 00 10 	mov  %l0, %o1
40008fbc:	c2 07 bf d8 	ld  [ %fp + -40 ], %g1
40008fc0:	80 a0 60 01 	cmp  %g1, 1
40008fc4:	08 80 00 0a 	bleu  40008fec <__gedf2+0x5c>
40008fc8:	c2 07 bf c0 	ld  [ %fp + -64 ], %g1
40008fcc:	80 a0 60 01 	cmp  %g1, 1
40008fd0:	08 80 00 05 	bleu  40008fe4 <__gedf2+0x54>
40008fd4:	90 10 3f ff 	mov  -1, %o0
40008fd8:	90 10 00 11 	mov  %l1, %o0
40008fdc:	40 00 02 34 	call  400098ac <__fpcmp_parts_d>
40008fe0:	92 10 00 10 	mov  %l0, %o1
40008fe4:	81 c7 e0 08 	ret 
40008fe8:	91 e8 00 08 	restore  %g0, %o0, %o0
40008fec:	10 bf ff fe 	b  40008fe4 <__gedf2+0x54>
40008ff0:	90 10 3f ff 	mov  -1, %o0

40008ff4 <__ltdf2>:
40008ff4:	9d e3 bf 60 	save  %sp, -160, %sp
40008ff8:	90 07 bf f8 	add  %fp, -8, %o0
40008ffc:	f0 3f bf f8 	std  %i0, [ %fp + -8 ]
40009000:	f4 3f bf f0 	std  %i2, [ %fp + -16 ]
40009004:	a2 07 bf d8 	add  %fp, -40, %l1
40009008:	40 00 01 da 	call  40009770 <__unpack_d>
4000900c:	92 10 00 11 	mov  %l1, %o1
40009010:	a0 07 bf c0 	add  %fp, -64, %l0
40009014:	90 07 bf f0 	add  %fp, -16, %o0
40009018:	40 00 01 d6 	call  40009770 <__unpack_d>
4000901c:	92 10 00 10 	mov  %l0, %o1
40009020:	c2 07 bf d8 	ld  [ %fp + -40 ], %g1
40009024:	80 a0 60 01 	cmp  %g1, 1
40009028:	08 80 00 0a 	bleu  40009050 <__ltdf2+0x5c>
4000902c:	c2 07 bf c0 	ld  [ %fp + -64 ], %g1
40009030:	80 a0 60 01 	cmp  %g1, 1
40009034:	08 80 00 05 	bleu  40009048 <__ltdf2+0x54>
40009038:	90 10 20 01 	mov  1, %o0
4000903c:	90 10 00 11 	mov  %l1, %o0
40009040:	40 00 02 1b 	call  400098ac <__fpcmp_parts_d>
40009044:	92 10 00 10 	mov  %l0, %o1
40009048:	81 c7 e0 08 	ret 
4000904c:	91 e8 00 08 	restore  %g0, %o0, %o0
40009050:	10 bf ff fe 	b  40009048 <__ltdf2+0x54>
40009054:	90 10 20 01 	mov  1, %o0

40009058 <__floatsidf>:
40009058:	9d e3 bf 88 	save  %sp, -120, %sp
4000905c:	82 10 20 03 	mov  3, %g1
40009060:	c2 27 bf e8 	st  %g1, [ %fp + -24 ]
40009064:	83 36 20 1f 	srl  %i0, 0x1f, %g1
40009068:	80 a6 20 00 	cmp  %i0, 0
4000906c:	12 80 00 09 	bne  40009090 <__floatsidf+0x38>
40009070:	c2 27 bf ec 	st  %g1, [ %fp + -20 ]
40009074:	82 10 20 02 	mov  2, %g1
40009078:	c2 27 bf e8 	st  %g1, [ %fp + -24 ]
4000907c:	40 00 01 13 	call  400094c8 <__pack_d>
40009080:	90 07 bf e8 	add  %fp, -24, %o0
40009084:	b0 10 00 08 	mov  %o0, %i0
40009088:	81 c7 e0 08 	ret 
4000908c:	93 e8 00 09 	restore  %g0, %o1, %o1
40009090:	80 a0 60 00 	cmp  %g1, 0
40009094:	12 80 00 19 	bne  400090f8 <__floatsidf+0xa0>
40009098:	a0 10 00 18 	mov  %i0, %l0
4000909c:	82 10 20 3c 	mov  0x3c, %g1
400090a0:	c0 27 bf f8 	clr  [ %fp + -8 ]
400090a4:	e0 27 bf fc 	st  %l0, [ %fp + -4 ]
400090a8:	c2 27 bf f0 	st  %g1, [ %fp + -16 ]
400090ac:	40 00 00 e9 	call  40009450 <__clzsi2>
400090b0:	90 10 00 10 	mov  %l0, %o0
400090b4:	90 02 20 1d 	add  %o0, 0x1d, %o0
400090b8:	80 a2 20 00 	cmp  %o0, 0
400090bc:	04 bf ff f0 	ble  4000907c <__floatsidf+0x24>
400090c0:	80 8a 20 20 	btst  0x20, %o0
400090c4:	02 80 00 15 	be  40009118 <__floatsidf+0xc0>
400090c8:	83 2c 00 08 	sll  %l0, %o0, %g1
400090cc:	a1 2c 00 08 	sll  %l0, %o0, %l0
400090d0:	c0 27 bf fc 	clr  [ %fp + -4 ]
400090d4:	e0 27 bf f8 	st  %l0, [ %fp + -8 ]
400090d8:	82 10 20 3c 	mov  0x3c, %g1
400090dc:	90 20 40 08 	sub  %g1, %o0, %o0
400090e0:	d0 27 bf f0 	st  %o0, [ %fp + -16 ]
400090e4:	40 00 00 f9 	call  400094c8 <__pack_d>
400090e8:	90 07 bf e8 	add  %fp, -24, %o0
400090ec:	b0 10 00 08 	mov  %o0, %i0
400090f0:	81 c7 e0 08 	ret 
400090f4:	93 e8 00 09 	restore  %g0, %o1, %o1
400090f8:	03 20 00 00 	sethi  %hi(0x80000000), %g1
400090fc:	80 a6 00 01 	cmp  %i0, %g1
40009100:	12 bf ff e7 	bne  4000909c <__floatsidf+0x44>
40009104:	a0 20 00 18 	neg  %i0, %l0
40009108:	03 10 00 2e 	sethi  %hi(0x4000b800), %g1
4000910c:	f0 18 61 b0 	ldd  [ %g1 + 0x1b0 ], %i0	! 4000b9b0 <p05.2366+0x10>
40009110:	81 c7 e0 08 	ret 
40009114:	81 e8 00 00 	restore 
40009118:	a1 34 20 01 	srl  %l0, 1, %l0
4000911c:	c2 27 bf fc 	st  %g1, [ %fp + -4 ]
40009120:	82 38 00 08 	xnor  %g0, %o0, %g1
40009124:	a1 34 00 01 	srl  %l0, %g1, %l0
40009128:	10 bf ff ec 	b  400090d8 <__floatsidf+0x80>
4000912c:	e0 27 bf f8 	st  %l0, [ %fp + -8 ]

40009130 <__fixdfsi>:
40009130:	9d e3 bf 80 	save  %sp, -128, %sp
40009134:	f0 3f bf f8 	std  %i0, [ %fp + -8 ]
40009138:	90 07 bf f8 	add  %fp, -8, %o0
4000913c:	40 00 01 8d 	call  40009770 <__unpack_d>
40009140:	92 07 bf e0 	add  %fp, -32, %o1
40009144:	c2 07 bf e0 	ld  [ %fp + -32 ], %g1
40009148:	80 a0 60 02 	cmp  %g1, 2
4000914c:	02 80 00 20 	be  400091cc <__fixdfsi+0x9c>
40009150:	80 a0 60 01 	cmp  %g1, 1
40009154:	08 80 00 1e 	bleu  400091cc <__fixdfsi+0x9c>
40009158:	80 a0 60 04 	cmp  %g1, 4
4000915c:	02 80 00 07 	be  40009178 <__fixdfsi+0x48>
40009160:	c2 07 bf e8 	ld  [ %fp + -24 ], %g1
40009164:	80 a0 60 00 	cmp  %g1, 0
40009168:	06 80 00 19 	bl  400091cc <__fixdfsi+0x9c>
4000916c:	80 a0 60 1e 	cmp  %g1, 0x1e
40009170:	04 80 00 0a 	ble  40009198 <__fixdfsi+0x68>
40009174:	84 10 20 3c 	mov  0x3c, %g2
40009178:	c2 07 bf e4 	ld  [ %fp + -28 ], %g1
4000917c:	80 a0 60 00 	cmp  %g1, 0
40009180:	32 80 00 04 	bne,a   40009190 <__fixdfsi+0x60>
40009184:	31 20 00 00 	sethi  %hi(0x80000000), %i0
40009188:	31 1f ff ff 	sethi  %hi(0x7ffffc00), %i0
4000918c:	b0 16 23 ff 	or  %i0, 0x3ff, %i0	! 7fffffff <__end+0x3fff34a7>
40009190:	81 c7 e0 08 	ret 
40009194:	81 e8 00 00 	restore 
40009198:	82 20 80 01 	sub  %g2, %g1, %g1
4000919c:	80 88 60 20 	btst  0x20, %g1
400091a0:	02 80 00 0d 	be  400091d4 <__fixdfsi+0xa4>
400091a4:	f0 07 bf f4 	ld  [ %fp + -12 ], %i0
400091a8:	f0 07 bf f0 	ld  [ %fp + -16 ], %i0
400091ac:	b1 36 00 01 	srl  %i0, %g1, %i0
400091b0:	c2 07 bf e4 	ld  [ %fp + -28 ], %g1
400091b4:	80 a0 60 00 	cmp  %g1, 0
400091b8:	02 80 00 13 	be  40009204 <__fixdfsi+0xd4>
400091bc:	01 00 00 00 	nop 
400091c0:	b0 20 00 18 	neg  %i0
400091c4:	81 c7 e0 08 	ret 
400091c8:	81 e8 00 00 	restore 
400091cc:	81 c7 e0 08 	ret 
400091d0:	91 e8 20 00 	restore  %g0, 0, %o0
400091d4:	c4 07 bf f0 	ld  [ %fp + -16 ], %g2
400091d8:	b1 36 00 01 	srl  %i0, %g1, %i0
400091dc:	85 28 a0 01 	sll  %g2, 1, %g2
400091e0:	82 38 00 01 	xnor  %g0, %g1, %g1
400091e4:	83 28 80 01 	sll  %g2, %g1, %g1
400091e8:	b0 10 40 18 	or  %g1, %i0, %i0
400091ec:	c2 07 bf e4 	ld  [ %fp + -28 ], %g1
400091f0:	80 a0 60 00 	cmp  %g1, 0
400091f4:	32 bf ff e7 	bne,a   40009190 <__fixdfsi+0x60>
400091f8:	b0 20 00 18 	neg  %i0
400091fc:	81 c7 e0 08 	ret 
40009200:	81 e8 00 00 	restore 
40009204:	81 c7 e0 08 	ret 
40009208:	81 e8 00 00 	restore 

4000920c <__floatunsidf>:
4000920c:	9d e3 bf 88 	save  %sp, -120, %sp
40009210:	80 a6 20 00 	cmp  %i0, 0
40009214:	02 80 00 1c 	be  40009284 <__floatunsidf+0x78>
40009218:	c0 27 bf ec 	clr  [ %fp + -20 ]
4000921c:	90 10 00 18 	mov  %i0, %o0
40009220:	b2 10 00 18 	mov  %i0, %i1
40009224:	b0 10 20 00 	clr  %i0
40009228:	82 10 20 03 	mov  3, %g1
4000922c:	c2 27 bf e8 	st  %g1, [ %fp + -24 ]
40009230:	82 10 20 3c 	mov  0x3c, %g1
40009234:	f0 3f bf f8 	std  %i0, [ %fp + -8 ]
40009238:	40 00 00 86 	call  40009450 <__clzsi2>
4000923c:	c2 27 bf f0 	st  %g1, [ %fp + -16 ]
40009240:	90 82 20 1d 	addcc  %o0, 0x1d, %o0
40009244:	0c 80 00 1d 	bneg  400092b8 <__floatunsidf+0xac>
40009248:	80 a2 20 00 	cmp  %o0, 0
4000924c:	02 80 00 09 	be  40009270 <__floatunsidf+0x64>
40009250:	80 8a 20 20 	btst  0x20, %o0
40009254:	02 80 00 13 	be  400092a0 <__floatunsidf+0x94>
40009258:	83 2e 40 08 	sll  %i1, %o0, %g1
4000925c:	c0 27 bf fc 	clr  [ %fp + -4 ]
40009260:	c2 27 bf f8 	st  %g1, [ %fp + -8 ]
40009264:	82 10 20 3c 	mov  0x3c, %g1
40009268:	90 20 40 08 	sub  %g1, %o0, %o0
4000926c:	d0 27 bf f0 	st  %o0, [ %fp + -16 ]
40009270:	40 00 00 96 	call  400094c8 <__pack_d>
40009274:	90 07 bf e8 	add  %fp, -24, %o0
40009278:	b0 10 00 08 	mov  %o0, %i0
4000927c:	81 c7 e0 08 	ret 
40009280:	93 e8 00 09 	restore  %g0, %o1, %o1
40009284:	82 10 20 02 	mov  2, %g1
40009288:	90 07 bf e8 	add  %fp, -24, %o0
4000928c:	40 00 00 8f 	call  400094c8 <__pack_d>
40009290:	c2 27 bf e8 	st  %g1, [ %fp + -24 ]
40009294:	b0 10 00 08 	mov  %o0, %i0
40009298:	81 c7 e0 08 	ret 
4000929c:	93 e8 00 09 	restore  %g0, %o1, %o1
400092a0:	85 36 60 01 	srl  %i1, 1, %g2
400092a4:	c2 27 bf fc 	st  %g1, [ %fp + -4 ]
400092a8:	82 38 00 08 	xnor  %g0, %o0, %g1
400092ac:	83 30 80 01 	srl  %g2, %g1, %g1
400092b0:	10 bf ff ed 	b  40009264 <__floatunsidf+0x58>
400092b4:	c2 27 bf f8 	st  %g1, [ %fp + -8 ]
400092b8:	82 20 00 08 	neg  %o0, %g1
400092bc:	94 10 20 00 	clr  %o2
400092c0:	84 88 60 20 	andcc  %g1, 0x20, %g2
400092c4:	02 80 00 1d 	be  40009338 <__floatunsidf+0x12c>
400092c8:	96 10 20 00 	clr  %o3
400092cc:	86 10 20 01 	mov  1, %g3
400092d0:	9a 10 20 00 	clr  %o5
400092d4:	99 28 c0 01 	sll  %g3, %g1, %o4
400092d8:	9a 83 7f ff 	addcc  %o5, -1, %o5
400092dc:	98 43 3f ff 	addx  %o4, -1, %o4
400092e0:	9a 0b 40 19 	and  %o5, %i1, %o5
400092e4:	98 0b 00 18 	and  %o4, %i0, %o4
400092e8:	80 93 00 0d 	orcc  %o4, %o5, %g0
400092ec:	02 80 00 04 	be  400092fc <__floatunsidf+0xf0>
400092f0:	80 a0 a0 00 	cmp  %g2, 0
400092f4:	94 10 20 00 	clr  %o2
400092f8:	96 10 20 01 	mov  1, %o3
400092fc:	87 36 40 01 	srl  %i1, %g1, %g3
40009300:	02 80 00 03 	be  4000930c <__floatunsidf+0x100>
40009304:	84 10 20 00 	clr  %g2
40009308:	86 10 20 00 	clr  %g3
4000930c:	84 12 80 02 	or  %o2, %g2, %g2
40009310:	86 12 c0 03 	or  %o3, %g3, %g3
40009314:	82 10 20 3c 	mov  0x3c, %g1
40009318:	90 20 40 08 	sub  %g1, %o0, %o0
4000931c:	c4 3f bf f8 	std  %g2, [ %fp + -8 ]
40009320:	d0 27 bf f0 	st  %o0, [ %fp + -16 ]
40009324:	40 00 00 69 	call  400094c8 <__pack_d>
40009328:	90 07 bf e8 	add  %fp, -24, %o0
4000932c:	b0 10 00 08 	mov  %o0, %i0
40009330:	81 c7 e0 08 	ret 
40009334:	93 e8 00 09 	restore  %g0, %o1, %o1
40009338:	86 10 20 01 	mov  1, %g3
4000933c:	98 10 20 00 	clr  %o4
40009340:	10 bf ff e6 	b  400092d8 <__floatunsidf+0xcc>
40009344:	9b 28 c0 01 	sll  %g3, %g1, %o5

40009348 <__muldi3>:
40009348:	9d e3 bf a0 	save  %sp, -96, %sp
4000934c:	81 80 00 19 	wr  %g0, %i1, %y
40009350:	9b 3e e0 1f 	sra  %i3, 0x1f, %o5
40009354:	9a 0e 40 0d 	and  %i1, %o5, %o5
40009358:	82 88 20 00 	andcc  %g0, 0, %g1
4000935c:	83 20 40 1b 	mulscc  %g1, %i3, %g1
40009360:	83 20 40 1b 	mulscc  %g1, %i3, %g1
40009364:	83 20 40 1b 	mulscc  %g1, %i3, %g1
40009368:	83 20 40 1b 	mulscc  %g1, %i3, %g1
4000936c:	83 20 40 1b 	mulscc  %g1, %i3, %g1
40009370:	83 20 40 1b 	mulscc  %g1, %i3, %g1
40009374:	83 20 40 1b 	mulscc  %g1, %i3, %g1
40009378:	83 20 40 1b 	mulscc  %g1, %i3, %g1
4000937c:	83 20 40 1b 	mulscc  %g1, %i3, %g1
40009380:	83 20 40 1b 	mulscc  %g1, %i3, %g1
40009384:	83 20 40 1b 	mulscc  %g1, %i3, %g1
40009388:	83 20 40 1b 	mulscc  %g1, %i3, %g1
4000938c:	83 20 40 1b 	mulscc  %g1, %i3, %g1
40009390:	83 20 40 1b 	mulscc  %g1, %i3, %g1
40009394:	83 20 40 1b 	mulscc  %g1, %i3, %g1
40009398:	83 20 40 1b 	mulscc  %g1, %i3, %g1
4000939c:	83 20 40 1b 	mulscc  %g1, %i3, %g1
400093a0:	83 20 40 1b 	mulscc  %g1, %i3, %g1
400093a4:	83 20 40 1b 	mulscc  %g1, %i3, %g1
400093a8:	83 20 40 1b 	mulscc  %g1, %i3, %g1
400093ac:	83 20 40 1b 	mulscc  %g1, %i3, %g1
400093b0:	83 20 40 1b 	mulscc  %g1, %i3, %g1
400093b4:	83 20 40 1b 	mulscc  %g1, %i3, %g1
400093b8:	83 20 40 1b 	mulscc  %g1, %i3, %g1
400093bc:	83 20 40 1b 	mulscc  %g1, %i3, %g1
400093c0:	83 20 40 1b 	mulscc  %g1, %i3, %g1
400093c4:	83 20 40 1b 	mulscc  %g1, %i3, %g1
400093c8:	83 20 40 1b 	mulscc  %g1, %i3, %g1
400093cc:	83 20 40 1b 	mulscc  %g1, %i3, %g1
400093d0:	83 20 40 1b 	mulscc  %g1, %i3, %g1
400093d4:	83 20 40 1b 	mulscc  %g1, %i3, %g1
400093d8:	83 20 40 1b 	mulscc  %g1, %i3, %g1
400093dc:	83 20 60 00 	mulscc  %g1, 0, %g1
400093e0:	a0 00 40 0d 	add  %g1, %o5, %l0
400093e4:	85 40 00 00 	rd  %y, %g2
400093e8:	92 10 00 1a 	mov  %i2, %o1
400093ec:	90 10 00 19 	mov  %i1, %o0
400093f0:	7f ff fa 86 	call  40007e08 <.umul>
400093f4:	b2 10 00 02 	mov  %g2, %i1
400093f8:	92 10 00 18 	mov  %i0, %o1
400093fc:	a2 10 00 08 	mov  %o0, %l1
40009400:	7f ff fa 82 	call  40007e08 <.umul>
40009404:	90 10 00 1b 	mov  %i3, %o0
40009408:	a2 04 40 08 	add  %l1, %o0, %l1
4000940c:	81 c7 e0 08 	ret 
40009410:	91 ec 40 10 	restore  %l1, %l0, %o0

40009414 <__ucmpdi2>:
40009414:	80 a2 00 0a 	cmp  %o0, %o2
40009418:	0a 80 00 0c 	bcs  40009448 <__ucmpdi2+0x34>
4000941c:	01 00 00 00 	nop 
40009420:	18 80 00 08 	bgu  40009440 <__ucmpdi2+0x2c>
40009424:	80 a2 40 0b 	cmp  %o1, %o3
40009428:	0a 80 00 08 	bcs  40009448 <__ucmpdi2+0x34>
4000942c:	01 00 00 00 	nop 
40009430:	18 80 00 04 	bgu  40009440 <__ucmpdi2+0x2c>
40009434:	90 10 20 01 	mov  1, %o0	! 1 <_trap_table-0x3fffffff>
40009438:	81 c3 e0 08 	retl 
4000943c:	01 00 00 00 	nop 
40009440:	81 c3 e0 08 	retl 
40009444:	90 10 20 02 	mov  2, %o0	! 2 <_trap_table-0x3ffffffe>
40009448:	81 c3 e0 08 	retl 
4000944c:	90 10 20 00 	clr  %o0

40009450 <__clzsi2>:
40009450:	03 00 00 3f 	sethi  %hi(0xfc00), %g1
40009454:	82 10 63 ff 	or  %g1, 0x3ff, %g1	! ffff <_trap_table-0x3fff0001>
40009458:	80 a2 00 01 	cmp  %o0, %g1
4000945c:	18 80 00 0e 	bgu  40009494 <__clzsi2+0x44>
40009460:	03 00 3f ff 	sethi  %hi(0xfffc00), %g1
40009464:	80 a2 20 ff 	cmp  %o0, 0xff
40009468:	82 10 20 20 	mov  0x20, %g1
4000946c:	08 80 00 04 	bleu  4000947c <__clzsi2+0x2c>
40009470:	84 10 20 00 	clr  %g2
40009474:	82 10 20 18 	mov  0x18, %g1
40009478:	84 10 20 08 	mov  8, %g2
4000947c:	91 32 00 02 	srl  %o0, %g2, %o0
40009480:	05 10 00 2e 	sethi  %hi(0x4000b800), %g2
40009484:	84 10 a1 d0 	or  %g2, 0x1d0, %g2	! 4000b9d0 <__clz_tab>
40009488:	d0 08 80 08 	ldub  [ %g2 + %o0 ], %o0
4000948c:	81 c3 e0 08 	retl 
40009490:	90 20 40 08 	sub  %g1, %o0, %o0
40009494:	82 10 63 ff 	or  %g1, 0x3ff, %g1
40009498:	84 10 20 10 	mov  0x10, %g2
4000949c:	80 a2 00 01 	cmp  %o0, %g1
400094a0:	08 bf ff f7 	bleu  4000947c <__clzsi2+0x2c>
400094a4:	82 10 20 10 	mov  0x10, %g1
400094a8:	84 10 20 18 	mov  0x18, %g2
400094ac:	91 32 00 02 	srl  %o0, %g2, %o0
400094b0:	05 10 00 2e 	sethi  %hi(0x4000b800), %g2
400094b4:	84 10 a1 d0 	or  %g2, 0x1d0, %g2	! 4000b9d0 <__clz_tab>
400094b8:	d0 08 80 08 	ldub  [ %g2 + %o0 ], %o0
400094bc:	82 10 20 08 	mov  8, %g1
400094c0:	81 c3 e0 08 	retl 
400094c4:	90 20 40 08 	sub  %g1, %o0, %o0

400094c8 <__pack_d>:
400094c8:	9d e3 bf a0 	save  %sp, -96, %sp
400094cc:	c2 06 00 00 	ld  [ %i0 ], %g1
400094d0:	80 a0 60 01 	cmp  %g1, 1
400094d4:	ec 1e 20 10 	ldd  [ %i0 + 0x10 ], %l6
400094d8:	08 80 00 4f 	bleu  40009614 <__pack_d+0x14c>
400094dc:	e0 06 20 04 	ld  [ %i0 + 4 ], %l0
400094e0:	80 a0 60 04 	cmp  %g1, 4
400094e4:	02 80 00 47 	be  40009600 <__pack_d+0x138>
400094e8:	80 a0 60 02 	cmp  %g1, 2
400094ec:	02 80 00 31 	be  400095b0 <__pack_d+0xe8>
400094f0:	80 95 80 17 	orcc  %l6, %l7, %g0
400094f4:	02 80 00 30 	be  400095b4 <__pack_d+0xec>
400094f8:	84 10 20 00 	clr  %g2
400094fc:	e8 06 20 08 	ld  [ %i0 + 8 ], %l4
40009500:	80 a5 3c 02 	cmp  %l4, -1022
40009504:	06 80 00 51 	bl  40009648 <__pack_d+0x180>
40009508:	80 a5 23 ff 	cmp  %l4, 0x3ff
4000950c:	14 80 00 3e 	bg  40009604 <__pack_d+0x13c>
40009510:	05 1f fc 00 	sethi  %hi(0x7ff00000), %g2
40009514:	86 0d e0 ff 	and  %l7, 0xff, %g3
40009518:	80 a0 e0 80 	cmp  %g3, 0x80
4000951c:	02 80 00 31 	be  400095e0 <__pack_d+0x118>
40009520:	a8 05 23 ff 	add  %l4, 0x3ff, %l4
40009524:	ae 85 e0 7f 	addcc  %l7, 0x7f, %l7
40009528:	ac 45 a0 00 	addx  %l6, 0, %l6
4000952c:	03 07 ff ff 	sethi  %hi(0x1ffffc00), %g1
40009530:	82 10 63 ff 	or  %g1, 0x3ff, %g1	! 1fffffff <_trap_table-0x20000001>
40009534:	80 a5 80 01 	cmp  %l6, %g1
40009538:	08 80 00 0a 	bleu  40009560 <__pack_d+0x98>
4000953c:	85 35 a0 08 	srl  %l6, 8, %g2
40009540:	87 2d a0 1f 	sll  %l6, 0x1f, %g3
40009544:	83 35 e0 01 	srl  %l7, 1, %g1
40009548:	85 35 a0 01 	srl  %l6, 1, %g2
4000954c:	82 10 c0 01 	or  %g3, %g1, %g1
40009550:	a8 05 20 01 	inc  %l4
40009554:	ac 10 00 02 	mov  %g2, %l6
40009558:	ae 10 00 01 	mov  %g1, %l7
4000955c:	85 35 a0 08 	srl  %l6, 8, %g2
40009560:	83 2d a0 18 	sll  %l6, 0x18, %g1
40009564:	87 35 e0 08 	srl  %l7, 8, %g3
40009568:	86 10 40 03 	or  %g1, %g3, %g3
4000956c:	aa 0d 27 ff 	and  %l4, 0x7ff, %l5
40009570:	25 00 03 ff 	sethi  %hi(0xffc00), %l2
40009574:	27 3f ff ff 	sethi  %hi(0xfffffc00), %l3
40009578:	a4 14 a3 ff 	or  %l2, 0x3ff, %l2
4000957c:	a6 14 e3 ff 	or  %l3, 0x3ff, %l3
40009580:	a4 08 80 12 	and  %g2, %l2, %l2
40009584:	a6 08 c0 13 	and  %g3, %l3, %l3
40009588:	85 2d 60 14 	sll  %l5, 0x14, %g2
4000958c:	86 10 20 00 	clr  %g3
40009590:	a4 14 80 02 	or  %l2, %g2, %l2
40009594:	a6 14 c0 03 	or  %l3, %g3, %l3
40009598:	85 2c 20 1f 	sll  %l0, 0x1f, %g2
4000959c:	86 10 20 00 	clr  %g3
400095a0:	b0 14 80 02 	or  %l2, %g2, %i0
400095a4:	b2 14 c0 03 	or  %l3, %g3, %i1
400095a8:	81 c7 e0 08 	ret 
400095ac:	81 e8 00 00 	restore 
400095b0:	84 10 20 00 	clr  %g2
400095b4:	86 10 20 00 	clr  %g3
400095b8:	a4 10 20 00 	clr  %l2
400095bc:	a6 10 20 00 	clr  %l3
400095c0:	a4 14 80 02 	or  %l2, %g2, %l2
400095c4:	a6 14 c0 03 	or  %l3, %g3, %l3
400095c8:	85 2c 20 1f 	sll  %l0, 0x1f, %g2
400095cc:	86 10 20 00 	clr  %g3
400095d0:	b0 14 80 02 	or  %l2, %g2, %i0
400095d4:	b2 14 c0 03 	or  %l3, %g3, %i1
400095d8:	81 c7 e0 08 	ret 
400095dc:	81 e8 00 00 	restore 
400095e0:	84 0d a0 00 	and  %l6, 0, %g2
400095e4:	86 0d e1 00 	and  %l7, 0x100, %g3
400095e8:	80 90 80 03 	orcc  %g2, %g3, %g0
400095ec:	02 bf ff d1 	be  40009530 <__pack_d+0x68>
400095f0:	03 07 ff ff 	sethi  %hi(0x1ffffc00), %g1
400095f4:	ae 85 e0 80 	addcc  %l7, 0x80, %l7
400095f8:	10 bf ff ce 	b  40009530 <__pack_d+0x68>
400095fc:	ac 45 a0 00 	addx  %l6, 0, %l6
40009600:	05 1f fc 00 	sethi  %hi(0x7ff00000), %g2
40009604:	86 10 20 00 	clr  %g3
40009608:	a4 10 20 00 	clr  %l2
4000960c:	10 bf ff ed 	b  400095c0 <__pack_d+0xf8>
40009610:	a6 10 20 00 	clr  %l3
40009614:	05 00 03 ff 	sethi  %hi(0xffc00), %g2
40009618:	07 3f ff ff 	sethi  %hi(0xfffffc00), %g3
4000961c:	84 10 a3 ff 	or  %g2, 0x3ff, %g2
40009620:	86 10 e3 ff 	or  %g3, 0x3ff, %g3
40009624:	25 00 02 00 	sethi  %hi(0x80000), %l2
40009628:	a6 10 20 00 	clr  %l3
4000962c:	a4 15 80 12 	or  %l6, %l2, %l2
40009630:	a6 15 c0 13 	or  %l7, %l3, %l3
40009634:	a4 0c 80 02 	and  %l2, %g2, %l2
40009638:	a6 0c c0 03 	and  %l3, %g3, %l3
4000963c:	05 1f fc 00 	sethi  %hi(0x7ff00000), %g2
40009640:	10 bf ff e0 	b  400095c0 <__pack_d+0xf8>
40009644:	86 10 20 00 	clr  %g3
40009648:	82 10 3c 02 	mov  -1022, %g1
4000964c:	a4 10 20 00 	clr  %l2
40009650:	a8 20 40 14 	sub  %g1, %l4, %l4
40009654:	a6 10 20 00 	clr  %l3
40009658:	80 a5 20 38 	cmp  %l4, 0x38
4000965c:	14 80 00 2b 	bg  40009708 <__pack_d+0x240>
40009660:	82 10 20 00 	clr  %g1
40009664:	94 10 00 14 	mov  %l4, %o2
40009668:	90 10 00 16 	mov  %l6, %o0
4000966c:	40 00 00 de 	call  400099e4 <__lshrdi3>
40009670:	92 10 00 17 	mov  %l7, %o1
40009674:	94 10 00 14 	mov  %l4, %o2
40009678:	aa 10 00 09 	mov  %o1, %l5
4000967c:	a8 10 00 08 	mov  %o0, %l4
40009680:	92 10 20 01 	mov  1, %o1
40009684:	40 00 00 e8 	call  40009a24 <__ashldi3>
40009688:	90 10 20 00 	clr  %o0
4000968c:	86 82 7f ff 	addcc  %o1, -1, %g3
40009690:	84 42 3f ff 	addx  %o0, -1, %g2
40009694:	ae 08 c0 17 	and  %g3, %l7, %l7
40009698:	ac 08 80 16 	and  %g2, %l6, %l6
4000969c:	94 10 20 00 	clr  %o2
400096a0:	96 10 20 00 	clr  %o3
400096a4:	90 10 00 16 	mov  %l6, %o0
400096a8:	7f ff ff 5b 	call  40009414 <__ucmpdi2>
400096ac:	92 10 00 17 	mov  %l7, %o1
400096b0:	80 a2 20 01 	cmp  %o0, 1
400096b4:	22 80 00 05 	be,a   400096c8 <__pack_d+0x200>
400096b8:	aa 15 c0 15 	or  %l7, %l5, %l5
400096bc:	ac 10 20 00 	clr  %l6
400096c0:	ae 10 20 01 	mov  1, %l7
400096c4:	aa 15 c0 15 	or  %l7, %l5, %l5
400096c8:	86 0d 60 ff 	and  %l5, 0xff, %g3
400096cc:	80 a0 e0 80 	cmp  %g3, 0x80
400096d0:	02 80 00 17 	be  4000972c <__pack_d+0x264>
400096d4:	a8 15 80 14 	or  %l6, %l4, %l4
400096d8:	aa 85 60 7f 	addcc  %l5, 0x7f, %l5
400096dc:	03 03 ff ff 	sethi  %hi(0xffffc00), %g1
400096e0:	82 10 63 ff 	or  %g1, 0x3ff, %g1	! fffffff <_trap_table-0x30000001>
400096e4:	a8 45 20 00 	addx  %l4, 0, %l4
400096e8:	80 a5 00 01 	cmp  %l4, %g1
400096ec:	83 2d 20 18 	sll  %l4, 0x18, %g1
400096f0:	a7 35 60 08 	srl  %l5, 8, %l3
400096f4:	a5 35 20 08 	srl  %l4, 8, %l2
400096f8:	a6 10 40 13 	or  %g1, %l3, %l3
400096fc:	08 80 00 03 	bleu  40009708 <__pack_d+0x240>
40009700:	82 10 20 00 	clr  %g1
40009704:	82 10 20 01 	mov  1, %g1
40009708:	05 00 03 ff 	sethi  %hi(0xffc00), %g2
4000970c:	07 3f ff ff 	sethi  %hi(0xfffffc00), %g3
40009710:	84 10 a3 ff 	or  %g2, 0x3ff, %g2
40009714:	86 10 e3 ff 	or  %g3, 0x3ff, %g3
40009718:	a4 0c 80 02 	and  %l2, %g2, %l2
4000971c:	a6 0c c0 03 	and  %l3, %g3, %l3
40009720:	85 28 60 14 	sll  %g1, 0x14, %g2
40009724:	10 bf ff a7 	b  400095c0 <__pack_d+0xf8>
40009728:	86 10 20 00 	clr  %g3
4000972c:	84 0d 20 00 	and  %l4, 0, %g2
40009730:	86 0d 61 00 	and  %l5, 0x100, %g3
40009734:	80 90 80 03 	orcc  %g2, %g3, %g0
40009738:	22 80 00 04 	be,a   40009748 <__pack_d+0x280>
4000973c:	83 2d 20 18 	sll  %l4, 0x18, %g1
40009740:	10 bf ff e7 	b  400096dc <__pack_d+0x214>
40009744:	aa 85 60 80 	addcc  %l5, 0x80, %l5
40009748:	a7 35 60 08 	srl  %l5, 8, %l3
4000974c:	a6 10 40 13 	or  %g1, %l3, %l3
40009750:	03 03 ff ff 	sethi  %hi(0xffffc00), %g1
40009754:	82 10 63 ff 	or  %g1, 0x3ff, %g1	! fffffff <_trap_table-0x30000001>
40009758:	a5 35 20 08 	srl  %l4, 8, %l2
4000975c:	80 a5 00 01 	cmp  %l4, %g1
40009760:	08 bf ff ea 	bleu  40009708 <__pack_d+0x240>
40009764:	82 10 20 00 	clr  %g1
40009768:	10 bf ff e8 	b  40009708 <__pack_d+0x240>
4000976c:	82 10 20 01 	mov  1, %g1

40009770 <__unpack_d>:
40009770:	9d e3 bf a0 	save  %sp, -96, %sp
40009774:	c4 1e 00 00 	ldd  [ %i0 ], %g2
40009778:	83 30 a0 1f 	srl  %g2, 0x1f, %g1
4000977c:	c2 26 60 04 	st  %g1, [ %i1 + 4 ]
40009780:	19 00 03 ff 	sethi  %hi(0xffc00), %o4
40009784:	1b 3f ff ff 	sethi  %hi(0xfffffc00), %o5
40009788:	98 13 23 ff 	or  %o4, 0x3ff, %o4
4000978c:	9a 13 63 ff 	or  %o5, 0x3ff, %o5
40009790:	98 08 80 0c 	and  %g2, %o4, %o4
40009794:	85 30 a0 14 	srl  %g2, 0x14, %g2
40009798:	84 88 a7 ff 	andcc  %g2, 0x7ff, %g2
4000979c:	12 80 00 1f 	bne  40009818 <__unpack_d+0xa8>
400097a0:	9a 08 c0 0d 	and  %g3, %o5, %o5
400097a4:	80 93 00 0d 	orcc  %o4, %o5, %g0
400097a8:	02 80 00 2d 	be  4000985c <__unpack_d+0xec>
400097ac:	82 10 3c 02 	mov  -1022, %g1
400097b0:	c2 26 60 08 	st  %g1, [ %i1 + 8 ]
400097b4:	82 10 20 03 	mov  3, %g1
400097b8:	c2 26 40 00 	st  %g1, [ %i1 ]
400097bc:	87 33 60 18 	srl  %o5, 0x18, %g3
400097c0:	85 2b 60 08 	sll  %o5, 8, %g2
400097c4:	83 2b 20 08 	sll  %o4, 8, %g1
400097c8:	1b 03 ff ff 	sethi  %hi(0xffffc00), %o5
400097cc:	82 10 c0 01 	or  %g3, %g1, %g1
400097d0:	9a 13 63 ff 	or  %o5, 0x3ff, %o5
400097d4:	80 a0 40 0d 	cmp  %g1, %o5
400097d8:	38 80 00 0d 	bgu,a   4000980c <__unpack_d+0x9c>
400097dc:	c4 26 60 14 	st  %g2, [ %i1 + 0x14 ]
400097e0:	86 10 3c 01 	mov  -1023, %g3
400097e4:	89 30 a0 1f 	srl  %g2, 0x1f, %g4
400097e8:	83 28 60 01 	sll  %g1, 1, %g1
400097ec:	85 28 a0 01 	sll  %g2, 1, %g2
400097f0:	82 11 00 01 	or  %g4, %g1, %g1
400097f4:	88 10 00 03 	mov  %g3, %g4
400097f8:	80 a0 40 0d 	cmp  %g1, %o5
400097fc:	08 bf ff fa 	bleu  400097e4 <__unpack_d+0x74>
40009800:	86 00 ff ff 	add  %g3, -1, %g3
40009804:	c8 26 60 08 	st  %g4, [ %i1 + 8 ]
40009808:	c4 26 60 14 	st  %g2, [ %i1 + 0x14 ]
4000980c:	c2 26 60 10 	st  %g1, [ %i1 + 0x10 ]
40009810:	81 c7 e0 08 	ret 
40009814:	81 e8 00 00 	restore 
40009818:	80 a0 a7 ff 	cmp  %g2, 0x7ff
4000981c:	02 80 00 14 	be  4000986c <__unpack_d+0xfc>
40009820:	84 00 bc 01 	add  %g2, -1023, %g2
40009824:	82 10 20 03 	mov  3, %g1
40009828:	87 2b 60 08 	sll  %o5, 8, %g3
4000982c:	c4 26 60 08 	st  %g2, [ %i1 + 8 ]
40009830:	c2 26 40 00 	st  %g1, [ %i1 ]
40009834:	85 2b 20 08 	sll  %o4, 8, %g2
40009838:	83 33 60 18 	srl  %o5, 0x18, %g1
4000983c:	19 04 00 00 	sethi  %hi(0x10000000), %o4
40009840:	84 10 40 02 	or  %g1, %g2, %g2
40009844:	9a 10 20 00 	clr  %o5
40009848:	84 10 80 0c 	or  %g2, %o4, %g2
4000984c:	86 10 c0 0d 	or  %g3, %o5, %g3
40009850:	c4 3e 60 10 	std  %g2, [ %i1 + 0x10 ]
40009854:	81 c7 e0 08 	ret 
40009858:	81 e8 00 00 	restore 
4000985c:	82 10 20 02 	mov  2, %g1
40009860:	c2 26 40 00 	st  %g1, [ %i1 ]
40009864:	81 c7 e0 08 	ret 
40009868:	81 e8 00 00 	restore 
4000986c:	80 93 00 0d 	orcc  %o4, %o5, %g0
40009870:	02 80 00 0b 	be  4000989c <__unpack_d+0x12c>
40009874:	05 00 02 00 	sethi  %hi(0x80000), %g2
40009878:	84 0b 00 02 	and  %o4, %g2, %g2
4000987c:	80 a0 a0 00 	cmp  %g2, 0
40009880:	22 80 00 04 	be,a   40009890 <__unpack_d+0x120>
40009884:	c0 26 40 00 	clr  [ %i1 ]
40009888:	82 10 20 01 	mov  1, %g1
4000988c:	c2 26 40 00 	st  %g1, [ %i1 ]
40009890:	d8 3e 60 10 	std  %o4, [ %i1 + 0x10 ]
40009894:	81 c7 e0 08 	ret 
40009898:	81 e8 00 00 	restore 
4000989c:	82 10 20 04 	mov  4, %g1
400098a0:	c2 26 40 00 	st  %g1, [ %i1 ]
400098a4:	81 c7 e0 08 	ret 
400098a8:	81 e8 00 00 	restore 

400098ac <__fpcmp_parts_d>:
400098ac:	9d e3 bf a0 	save  %sp, -96, %sp
400098b0:	c2 06 00 00 	ld  [ %i0 ], %g1
400098b4:	80 a0 60 01 	cmp  %g1, 1
400098b8:	08 80 00 15 	bleu  4000990c <__fpcmp_parts_d+0x60>
400098bc:	01 00 00 00 	nop 
400098c0:	c4 06 40 00 	ld  [ %i1 ], %g2
400098c4:	80 a0 a0 01 	cmp  %g2, 1
400098c8:	08 80 00 11 	bleu  4000990c <__fpcmp_parts_d+0x60>
400098cc:	80 a0 60 04 	cmp  %g1, 4
400098d0:	02 80 00 3f 	be  400099cc <__fpcmp_parts_d+0x120>
400098d4:	80 a0 a0 04 	cmp  %g2, 4
400098d8:	02 80 00 11 	be  4000991c <__fpcmp_parts_d+0x70>
400098dc:	80 a0 60 02 	cmp  %g1, 2
400098e0:	02 80 00 0d 	be  40009914 <__fpcmp_parts_d+0x68>
400098e4:	80 a0 a0 02 	cmp  %g2, 2
400098e8:	02 80 00 13 	be  40009934 <__fpcmp_parts_d+0x88>
400098ec:	c2 06 20 04 	ld  [ %i0 + 4 ], %g1
400098f0:	c4 06 60 04 	ld  [ %i1 + 4 ], %g2
400098f4:	80 a0 40 02 	cmp  %g1, %g2
400098f8:	22 80 00 14 	be,a   40009948 <__fpcmp_parts_d+0x9c>
400098fc:	c6 06 20 08 	ld  [ %i0 + 8 ], %g3
40009900:	80 a0 60 00 	cmp  %g1, 0
40009904:	12 80 00 0a 	bne  4000992c <__fpcmp_parts_d+0x80>
40009908:	01 00 00 00 	nop 
4000990c:	81 c7 e0 08 	ret 
40009910:	91 e8 20 01 	restore  %g0, 1, %o0
40009914:	02 80 00 28 	be  400099b4 <__fpcmp_parts_d+0x108>
40009918:	01 00 00 00 	nop 
4000991c:	c2 06 60 04 	ld  [ %i1 + 4 ], %g1
40009920:	80 a0 60 00 	cmp  %g1, 0
40009924:	12 bf ff fa 	bne  4000990c <__fpcmp_parts_d+0x60>
40009928:	01 00 00 00 	nop 
4000992c:	81 c7 e0 08 	ret 
40009930:	91 e8 3f ff 	restore  %g0, -1, %o0
40009934:	80 a0 60 00 	cmp  %g1, 0
40009938:	12 bf ff fd 	bne  4000992c <__fpcmp_parts_d+0x80>
4000993c:	01 00 00 00 	nop 
40009940:	81 c7 e0 08 	ret 
40009944:	91 e8 20 01 	restore  %g0, 1, %o0
40009948:	c4 06 60 08 	ld  [ %i1 + 8 ], %g2
4000994c:	80 a0 c0 02 	cmp  %g3, %g2
40009950:	14 bf ff ed 	bg  40009904 <__fpcmp_parts_d+0x58>
40009954:	80 a0 60 00 	cmp  %g1, 0
40009958:	80 a0 c0 02 	cmp  %g3, %g2
4000995c:	06 80 00 13 	bl  400099a8 <__fpcmp_parts_d+0xfc>
40009960:	80 a0 60 00 	cmp  %g1, 0
40009964:	c4 06 20 10 	ld  [ %i0 + 0x10 ], %g2
40009968:	c6 06 60 10 	ld  [ %i1 + 0x10 ], %g3
4000996c:	c8 06 20 14 	ld  [ %i0 + 0x14 ], %g4
40009970:	80 a0 80 03 	cmp  %g2, %g3
40009974:	18 bf ff e3 	bgu  40009900 <__fpcmp_parts_d+0x54>
40009978:	da 06 60 14 	ld  [ %i1 + 0x14 ], %o5
4000997c:	80 a0 80 03 	cmp  %g2, %g3
40009980:	02 80 00 0f 	be  400099bc <__fpcmp_parts_d+0x110>
40009984:	80 a1 00 0d 	cmp  %g4, %o5
40009988:	80 a0 c0 02 	cmp  %g3, %g2
4000998c:	18 80 00 07 	bgu  400099a8 <__fpcmp_parts_d+0xfc>
40009990:	80 a0 60 00 	cmp  %g1, 0
40009994:	80 a0 c0 02 	cmp  %g3, %g2
40009998:	12 80 00 07 	bne  400099b4 <__fpcmp_parts_d+0x108>
4000999c:	80 a3 40 04 	cmp  %o5, %g4
400099a0:	08 80 00 05 	bleu  400099b4 <__fpcmp_parts_d+0x108>
400099a4:	80 a0 60 00 	cmp  %g1, 0
400099a8:	02 bf ff e1 	be  4000992c <__fpcmp_parts_d+0x80>
400099ac:	01 00 00 00 	nop 
400099b0:	30 bf ff d7 	b,a   4000990c <__fpcmp_parts_d+0x60>
400099b4:	81 c7 e0 08 	ret 
400099b8:	91 e8 20 00 	restore  %g0, 0, %o0
400099bc:	28 bf ff f4 	bleu,a   4000998c <__fpcmp_parts_d+0xe0>
400099c0:	80 a0 c0 02 	cmp  %g3, %g2
400099c4:	10 bf ff d0 	b  40009904 <__fpcmp_parts_d+0x58>
400099c8:	80 a0 60 00 	cmp  %g1, 0
400099cc:	12 bf ff da 	bne  40009934 <__fpcmp_parts_d+0x88>
400099d0:	c2 06 20 04 	ld  [ %i0 + 4 ], %g1
400099d4:	c4 06 60 04 	ld  [ %i1 + 4 ], %g2
400099d8:	b0 20 80 01 	sub  %g2, %g1, %i0
400099dc:	81 c7 e0 08 	ret 
400099e0:	81 e8 00 00 	restore 

400099e4 <__lshrdi3>:
400099e4:	80 a2 a0 00 	cmp  %o2, 0
400099e8:	02 80 00 0a 	be  40009a10 <__lshrdi3+0x2c>
400099ec:	82 10 20 20 	mov  0x20, %g1
400099f0:	82 20 40 0a 	sub  %g1, %o2, %g1
400099f4:	80 a0 60 00 	cmp  %g1, 0
400099f8:	24 80 00 08 	ble,a   40009a18 <__lshrdi3+0x34>
400099fc:	92 20 00 01 	neg  %g1, %o1
40009a00:	83 2a 00 01 	sll  %o0, %g1, %g1
40009a04:	93 32 40 0a 	srl  %o1, %o2, %o1
40009a08:	91 32 00 0a 	srl  %o0, %o2, %o0
40009a0c:	92 10 40 09 	or  %g1, %o1, %o1
40009a10:	81 c3 e0 08 	retl 
40009a14:	01 00 00 00 	nop 
40009a18:	93 32 00 09 	srl  %o0, %o1, %o1
40009a1c:	81 c3 e0 08 	retl 
40009a20:	90 10 20 00 	clr  %o0

40009a24 <__ashldi3>:
40009a24:	80 a2 a0 00 	cmp  %o2, 0
40009a28:	02 80 00 0a 	be  40009a50 <__ashldi3+0x2c>
40009a2c:	82 10 20 20 	mov  0x20, %g1
40009a30:	82 20 40 0a 	sub  %g1, %o2, %g1
40009a34:	80 a0 60 00 	cmp  %g1, 0
40009a38:	24 80 00 08 	ble,a   40009a58 <__ashldi3+0x34>
40009a3c:	90 20 00 01 	neg  %g1, %o0
40009a40:	83 32 40 01 	srl  %o1, %g1, %g1
40009a44:	91 2a 00 0a 	sll  %o0, %o2, %o0
40009a48:	93 2a 40 0a 	sll  %o1, %o2, %o1
40009a4c:	90 10 40 08 	or  %g1, %o0, %o0
40009a50:	81 c3 e0 08 	retl 
40009a54:	01 00 00 00 	nop 
40009a58:	91 2a 40 08 	sll  %o1, %o0, %o0
40009a5c:	81 c3 e0 08 	retl 
40009a60:	92 10 20 00 	clr  %o1

40009a64 <close>:
40009a64:	81 c3 e0 08 	retl 
40009a68:	90 10 20 00 	clr  %o0

40009a6c <fstat>:
40009a6c:	03 00 00 08 	sethi  %hi(0x2000), %g1
40009a70:	90 10 20 00 	clr  %o0
40009a74:	c2 32 60 08 	sth  %g1, [ %o1 + 8 ]
40009a78:	81 c3 e0 08 	retl 
40009a7c:	c0 22 60 30 	clr  [ %o1 + 0x30 ]

40009a80 <isatty>:
40009a80:	81 c3 e0 08 	retl 
40009a84:	90 10 20 01 	mov  1, %o0

40009a88 <lseek>:
40009a88:	9d e3 bf a0 	save  %sp, -96, %sp
40009a8c:	40 00 03 a6 	call  4000a924 <__errno>
40009a90:	b0 10 3f ff 	mov  -1, %i0
40009a94:	82 10 20 1d 	mov  0x1d, %g1
40009a98:	c2 22 00 00 	st  %g1, [ %o0 ]
40009a9c:	81 c7 e0 08 	ret 
40009aa0:	81 e8 00 00 	restore 

40009aa4 <read>:
40009aa4:	9d e3 bf a0 	save  %sp, -96, %sp
40009aa8:	80 a6 a0 00 	cmp  %i2, 0
40009aac:	14 80 00 09 	bg  40009ad0 <read+0x2c>
40009ab0:	b0 10 20 00 	clr  %i0
40009ab4:	30 80 00 11 	b,a   40009af8 <read+0x54>
40009ab8:	02 80 00 0e 	be  40009af0 <read+0x4c>
40009abc:	01 00 00 00 	nop 
40009ac0:	b0 06 20 01 	inc  %i0
40009ac4:	80 a6 80 18 	cmp  %i2, %i0
40009ac8:	04 80 00 0c 	ble  40009af8 <read+0x54>
40009acc:	01 00 00 00 	nop 
40009ad0:	40 00 00 4d 	call  40009c04 <inbyte>
40009ad4:	01 00 00 00 	nop 
40009ad8:	d0 2e 40 18 	stb  %o0, [ %i1 + %i0 ]
40009adc:	91 2a 20 18 	sll  %o0, 0x18, %o0
40009ae0:	91 3a 20 18 	sra  %o0, 0x18, %o0
40009ae4:	80 a2 20 0d 	cmp  %o0, 0xd
40009ae8:	12 bf ff f4 	bne  40009ab8 <read+0x14>
40009aec:	80 a2 20 0a 	cmp  %o0, 0xa
40009af0:	81 c7 e0 08 	ret 
40009af4:	91 ee 20 01 	restore  %i0, 1, %o0
40009af8:	81 c7 e0 08 	ret 
40009afc:	81 e8 00 00 	restore 

40009b00 <sbrk>:
40009b00:	05 10 00 32 	sethi  %hi(0x4000c800), %g2
40009b04:	c2 00 a3 40 	ld  [ %g2 + 0x340 ], %g1	! 4000cb40 <heap_ptr>
40009b08:	80 a0 60 00 	cmp  %g1, 0
40009b0c:	22 80 00 06 	be,a   40009b24 <sbrk+0x24>
40009b10:	03 10 00 32 	sethi  %hi(0x4000c800), %g1
40009b14:	90 00 40 08 	add  %g1, %o0, %o0
40009b18:	d0 20 a3 40 	st  %o0, [ %g2 + 0x340 ]
40009b1c:	81 c3 e0 08 	retl 
40009b20:	90 10 00 01 	mov  %g1, %o0
40009b24:	82 10 63 58 	or  %g1, 0x358, %g1
40009b28:	90 00 40 08 	add  %g1, %o0, %o0
40009b2c:	c2 20 a3 40 	st  %g1, [ %g2 + 0x340 ]
40009b30:	d0 20 a3 40 	st  %o0, [ %g2 + 0x340 ]
40009b34:	81 c3 e0 08 	retl 
40009b38:	90 10 00 01 	mov  %g1, %o0

40009b3c <write>:
40009b3c:	9d e3 bf a0 	save  %sp, -96, %sp
40009b40:	80 a6 a0 00 	cmp  %i2, 0
40009b44:	04 80 00 1a 	ble  40009bac <write+0x70>
40009b48:	a0 10 20 00 	clr  %l0
40009b4c:	10 80 00 09 	b  40009b70 <write+0x34>
40009b50:	d0 0e 40 10 	ldub  [ %i1 + %l0 ], %o0
40009b54:	40 00 00 18 	call  40009bb4 <outbyte>
40009b58:	91 3a 20 18 	sra  %o0, 0x18, %o0
40009b5c:	a0 04 20 01 	inc  %l0
40009b60:	80 a6 80 10 	cmp  %i2, %l0
40009b64:	04 80 00 12 	ble  40009bac <write+0x70>
40009b68:	01 00 00 00 	nop 
40009b6c:	d0 0e 40 10 	ldub  [ %i1 + %l0 ], %o0
40009b70:	91 2a 20 18 	sll  %o0, 0x18, %o0
40009b74:	83 3a 20 18 	sra  %o0, 0x18, %g1
40009b78:	80 a0 60 0a 	cmp  %g1, 0xa
40009b7c:	12 bf ff f6 	bne  40009b54 <write+0x18>
40009b80:	01 00 00 00 	nop 
40009b84:	40 00 00 0c 	call  40009bb4 <outbyte>
40009b88:	90 10 20 0d 	mov  0xd, %o0	! d <_trap_table-0x3ffffff3>
40009b8c:	d0 0e 40 10 	ldub  [ %i1 + %l0 ], %o0
40009b90:	91 2a 20 18 	sll  %o0, 0x18, %o0
40009b94:	40 00 00 08 	call  40009bb4 <outbyte>
40009b98:	91 3a 20 18 	sra  %o0, 0x18, %o0
40009b9c:	a0 04 20 01 	inc  %l0
40009ba0:	80 a6 80 10 	cmp  %i2, %l0
40009ba4:	34 bf ff f3 	bg,a   40009b70 <write+0x34>
40009ba8:	d0 0e 40 10 	ldub  [ %i1 + %l0 ], %o0
40009bac:	81 c7 e0 08 	ret 
40009bb0:	91 e8 00 1a 	restore  %g0, %i2, %o0

40009bb4 <outbyte>:
40009bb4:	03 10 00 31 	sethi  %hi(0x4000c400), %g1
40009bb8:	c2 00 62 cc 	ld  [ %g1 + 0x2cc ], %g1	! 4000c6cc <console>
40009bbc:	86 00 60 04 	add  %g1, 4, %g3
40009bc0:	c4 00 c0 00 	ld  [ %g3 ], %g2
40009bc4:	80 88 a0 04 	btst  4, %g2
40009bc8:	02 bf ff fe 	be  40009bc0 <outbyte+0xc>
40009bcc:	84 0a 20 ff 	and  %o0, 0xff, %g2
40009bd0:	c4 20 40 00 	st  %g2, [ %g1 ]
40009bd4:	80 a2 20 0a 	cmp  %o0, 0xa
40009bd8:	02 80 00 04 	be  40009be8 <outbyte+0x34>
40009bdc:	01 00 00 00 	nop 
40009be0:	81 c3 e0 08 	retl 
40009be4:	01 00 00 00 	nop 
40009be8:	c4 00 c0 00 	ld  [ %g3 ], %g2
40009bec:	80 88 a0 04 	btst  4, %g2
40009bf0:	02 bf ff fe 	be  40009be8 <outbyte+0x34>
40009bf4:	84 10 20 0d 	mov  0xd, %g2
40009bf8:	c4 20 40 00 	st  %g2, [ %g1 ]
40009bfc:	81 c3 e0 08 	retl 
40009c00:	01 00 00 00 	nop 

40009c04 <inbyte>:
40009c04:	03 10 00 31 	sethi  %hi(0x4000c400), %g1
40009c08:	c6 00 62 cc 	ld  [ %g1 + 0x2cc ], %g3	! 4000c6cc <console>
40009c0c:	80 a0 e0 00 	cmp  %g3, 0
40009c10:	84 00 e0 04 	add  %g3, 4, %g2
40009c14:	02 80 00 07 	be  40009c30 <inbyte+0x2c>
40009c18:	90 10 20 00 	clr  %o0
40009c1c:	c2 00 80 00 	ld  [ %g2 ], %g1
40009c20:	80 88 60 01 	btst  1, %g1
40009c24:	02 bf ff fe 	be  40009c1c <inbyte+0x18>
40009c28:	01 00 00 00 	nop 
40009c2c:	d0 00 c0 00 	ld  [ %g3 ], %o0
40009c30:	81 c3 e0 08 	retl 
40009c34:	01 00 00 00 	nop 

40009c38 <bdinit1>:
40009c38:	81 c3 e0 08 	retl 
40009c3c:	01 00 00 00 	nop 

40009c40 <bdinit2>:
40009c40:	81 c3 e0 08 	retl 
40009c44:	01 00 00 00 	nop 

40009c48 <prelibchook>:
40009c48:	81 c3 e0 08 	retl 
40009c4c:	01 00 00 00 	nop 

40009c50 <_exit>:
40009c50:	82 10 20 01 	mov  1, %g1	! 1 <_trap_table-0x3fffffff>
40009c54:	91 d0 20 00 	ta  0
40009c58:	81 c3 e0 08 	retl 
40009c5c:	01 00 00 00 	nop 

40009c60 <___st_pthread_mutex_init>:
40009c60:	9d e3 bf a0 	save  %sp, -96, %sp
40009c64:	03 10 00 31 	sethi  %hi(0x4000c400), %g1
40009c68:	c2 00 63 fc 	ld  [ %g1 + 0x3fc ], %g1	! 4000c7fc <__lbst_pthread_mutex_init>
40009c6c:	84 10 00 18 	mov  %i0, %g2
40009c70:	80 a0 60 00 	cmp  %g1, 0
40009c74:	02 80 00 06 	be  40009c8c <___st_pthread_mutex_init+0x2c>
40009c78:	b0 10 20 00 	clr  %i0
40009c7c:	90 10 00 02 	mov  %g2, %o0
40009c80:	9f c0 40 00 	call  %g1
40009c84:	92 10 00 19 	mov  %i1, %o1
40009c88:	b0 10 00 08 	mov  %o0, %i0
40009c8c:	81 c7 e0 08 	ret 
40009c90:	81 e8 00 00 	restore 

40009c94 <___st_pthread_mutex_destroy>:
40009c94:	9d e3 bf a0 	save  %sp, -96, %sp
40009c98:	03 10 00 32 	sethi  %hi(0x4000c800), %g1
40009c9c:	c2 00 60 00 	ld  [ %g1 ], %g1
40009ca0:	80 a0 60 00 	cmp  %g1, 0
40009ca4:	02 80 00 05 	be  40009cb8 <___st_pthread_mutex_destroy+0x24>
40009ca8:	84 10 20 00 	clr  %g2
40009cac:	9f c0 40 00 	call  %g1
40009cb0:	90 10 00 18 	mov  %i0, %o0
40009cb4:	84 10 00 08 	mov  %o0, %g2
40009cb8:	81 c7 e0 08 	ret 
40009cbc:	91 e8 00 02 	restore  %g0, %g2, %o0

40009cc0 <___st_pthread_mutex_lock>:
40009cc0:	9d e3 bf a0 	save  %sp, -96, %sp
40009cc4:	03 10 00 32 	sethi  %hi(0x4000c800), %g1
40009cc8:	c2 00 60 08 	ld  [ %g1 + 8 ], %g1	! 4000c808 <__lbst_pthread_mutex_lock>
40009ccc:	80 a0 60 00 	cmp  %g1, 0
40009cd0:	02 80 00 05 	be  40009ce4 <___st_pthread_mutex_lock+0x24>
40009cd4:	84 10 20 00 	clr  %g2
40009cd8:	9f c0 40 00 	call  %g1
40009cdc:	90 10 00 18 	mov  %i0, %o0
40009ce0:	84 10 00 08 	mov  %o0, %g2
40009ce4:	81 c7 e0 08 	ret 
40009ce8:	91 e8 00 02 	restore  %g0, %g2, %o0

40009cec <___st_pthread_mutex_trylock>:
40009cec:	9d e3 bf a0 	save  %sp, -96, %sp
40009cf0:	03 10 00 32 	sethi  %hi(0x4000c800), %g1
40009cf4:	c2 00 60 04 	ld  [ %g1 + 4 ], %g1	! 4000c804 <__lbst_pthread_mutex_trylock>
40009cf8:	80 a0 60 00 	cmp  %g1, 0
40009cfc:	02 80 00 05 	be  40009d10 <___st_pthread_mutex_trylock+0x24>
40009d00:	84 10 20 00 	clr  %g2
40009d04:	9f c0 40 00 	call  %g1
40009d08:	90 10 00 18 	mov  %i0, %o0
40009d0c:	84 10 00 08 	mov  %o0, %g2
40009d10:	81 c7 e0 08 	ret 
40009d14:	91 e8 00 02 	restore  %g0, %g2, %o0

40009d18 <___st_pthread_mutex_unlock>:
40009d18:	9d e3 bf a0 	save  %sp, -96, %sp
40009d1c:	03 10 00 32 	sethi  %hi(0x4000c800), %g1
40009d20:	c2 00 60 0c 	ld  [ %g1 + 0xc ], %g1	! 4000c80c <__lbst_pthread_mutex_unlock>
40009d24:	80 a0 60 00 	cmp  %g1, 0
40009d28:	02 80 00 05 	be  40009d3c <___st_pthread_mutex_unlock+0x24>
40009d2c:	84 10 20 00 	clr  %g2
40009d30:	9f c0 40 00 	call  %g1
40009d34:	90 10 00 18 	mov  %i0, %o0
40009d38:	84 10 00 08 	mov  %o0, %g2
40009d3c:	81 c7 e0 08 	ret 
40009d40:	91 e8 00 02 	restore  %g0, %g2, %o0

40009d44 <___st_pthread_mutexattr_init>:
40009d44:	9d e3 bf a0 	save  %sp, -96, %sp
40009d48:	03 10 00 32 	sethi  %hi(0x4000c800), %g1
40009d4c:	c2 00 60 10 	ld  [ %g1 + 0x10 ], %g1	! 4000c810 <__lbst_pthread_mutexattr_init>
40009d50:	80 a0 60 00 	cmp  %g1, 0
40009d54:	02 80 00 05 	be  40009d68 <___st_pthread_mutexattr_init+0x24>
40009d58:	84 10 20 00 	clr  %g2
40009d5c:	9f c0 40 00 	call  %g1
40009d60:	90 10 00 18 	mov  %i0, %o0
40009d64:	84 10 00 08 	mov  %o0, %g2
40009d68:	81 c7 e0 08 	ret 
40009d6c:	91 e8 00 02 	restore  %g0, %g2, %o0

40009d70 <___st_pthread_mutexattr_destroy>:
40009d70:	9d e3 bf a0 	save  %sp, -96, %sp
40009d74:	03 10 00 32 	sethi  %hi(0x4000c800), %g1
40009d78:	c2 00 60 14 	ld  [ %g1 + 0x14 ], %g1	! 4000c814 <__lbst_pthread_mutexattr_destroy>
40009d7c:	80 a0 60 00 	cmp  %g1, 0
40009d80:	02 80 00 05 	be  40009d94 <___st_pthread_mutexattr_destroy+0x24>
40009d84:	84 10 20 00 	clr  %g2
40009d88:	9f c0 40 00 	call  %g1
40009d8c:	90 10 00 18 	mov  %i0, %o0
40009d90:	84 10 00 08 	mov  %o0, %g2
40009d94:	81 c7 e0 08 	ret 
40009d98:	91 e8 00 02 	restore  %g0, %g2, %o0

40009d9c <___st_pthread_mutexattr_settype>:
40009d9c:	9d e3 bf a0 	save  %sp, -96, %sp
40009da0:	03 10 00 32 	sethi  %hi(0x4000c800), %g1
40009da4:	c2 00 60 18 	ld  [ %g1 + 0x18 ], %g1	! 4000c818 <__lbst_pthread_mutexattr_settype>
40009da8:	84 10 00 18 	mov  %i0, %g2
40009dac:	80 a0 60 00 	cmp  %g1, 0
40009db0:	02 80 00 06 	be  40009dc8 <___st_pthread_mutexattr_settype+0x2c>
40009db4:	b0 10 20 00 	clr  %i0
40009db8:	90 10 00 02 	mov  %g2, %o0
40009dbc:	9f c0 40 00 	call  %g1
40009dc0:	92 10 00 19 	mov  %i1, %o1
40009dc4:	b0 10 00 08 	mov  %o0, %i0
40009dc8:	81 c7 e0 08 	ret 
40009dcc:	81 e8 00 00 	restore 

40009dd0 <_start_svt_real>:
40009dd0:	01 00 00 00 	nop 

40009dd4 <_start_svt_weak>:
40009dd4:	a7 58 00 00 	rd  %tbr, %l3
40009dd8:	a1 48 00 00 	rd  %psr, %l0
40009ddc:	a6 0c ef f0 	and  %l3, 0xff0, %l3
40009de0:	a7 34 e0 04 	srl  %l3, 4, %l3
40009de4:	2b 10 00 2e 	sethi  %hi(0x4000b800), %l5
40009de8:	aa 15 62 d0 	or  %l5, 0x2d0, %l5	! 4000bad0 <trap_table>
40009dec:	ac 10 00 13 	mov  %l3, %l6
40009df0:	e8 05 40 00 	ld  [ %l5 ], %l4
40009df4:	80 a5 00 16 	cmp  %l4, %l6
40009df8:	34 80 00 07 	bg,a   40009e14 <_start_svt_weak+0x40>
40009dfc:	aa 05 60 0c 	add  %l5, 0xc, %l5
40009e00:	e6 05 60 04 	ld  [ %l5 + 4 ], %l3
40009e04:	80 a4 c0 16 	cmp  %l3, %l6
40009e08:	36 80 00 13 	bge,a   40009e54 <_start_svt_weak+0x80>
40009e0c:	e6 05 60 08 	ld  [ %l5 + 8 ], %l3
40009e10:	aa 05 60 0c 	add  %l5, 0xc, %l5
40009e14:	e6 05 40 00 	ld  [ %l5 ], %l3
40009e18:	a8 94 e0 00 	orcc  %l3, 0, %l4
40009e1c:	12 bf ff f7 	bne  40009df8 <_start_svt_weak+0x24>
40009e20:	80 a5 00 16 	cmp  %l4, %l6
40009e24:	e6 05 60 04 	ld  [ %l5 + 4 ], %l3
40009e28:	80 a4 e0 00 	cmp  %l3, 0
40009e2c:	12 bf ff f3 	bne  40009df8 <_start_svt_weak+0x24>
40009e30:	80 a5 00 16 	cmp  %l4, %l6
40009e34:	e6 05 60 08 	ld  [ %l5 + 8 ], %l3
40009e38:	80 a4 e0 00 	cmp  %l3, 0
40009e3c:	12 bf ff ef 	bne  40009df8 <_start_svt_weak+0x24>
40009e40:	80 a5 00 16 	cmp  %l4, %l6
40009e44:	91 d0 20 00 	ta  0
40009e48:	01 00 00 00 	nop 
40009e4c:	01 00 00 00 	nop 
40009e50:	01 00 00 00 	nop 
40009e54:	81 c4 c0 00 	jmp  %l3
40009e58:	01 00 00 00 	nop 

40009e5c <_hardreset_svt_real>:
40009e5c:	01 00 00 00 	nop 

40009e60 <_hardreset_svt>:
40009e60:	a7 48 00 00 	rd  %psr, %l3
40009e64:	8b 34 e0 18 	srl  %l3, 0x18, %g5
40009e68:	8a 09 60 03 	and  %g5, 3, %g5
40009e6c:	80 a1 60 03 	cmp  %g5, 3
40009e70:	12 80 00 11 	bne  40009eb4 <_hardreset_svt+0x54>
40009e74:	01 00 00 00 	nop 
40009e78:	8b 44 40 00 	rd  %asr17, %g5
40009e7c:	03 00 00 08 	sethi  %hi(0x2000), %g1
40009e80:	8a 11 40 01 	or  %g5, %g1, %g5
40009e84:	a3 81 40 00 	mov  %g5, %asr17
40009e88:	01 00 00 00 	nop 
40009e8c:	01 00 00 00 	nop 
40009e90:	01 00 00 00 	nop 
40009e94:	8b 44 40 00 	rd  %asr17, %g5
40009e98:	80 89 40 01 	btst  %g5, %g1
40009e9c:	02 80 00 06 	be  40009eb4 <_hardreset_svt+0x54>
40009ea0:	01 00 00 00 	nop 
40009ea4:	27 10 00 29 	sethi  %hi(0x4000a400), %l3
40009ea8:	a6 14 e0 e8 	or  %l3, 0xe8, %l3	! 4000a4e8 <_hardreset>
40009eac:	81 c4 c0 00 	jmp  %l3
40009eb0:	01 00 00 00 	nop 
40009eb4:	91 d0 20 00 	ta  0
40009eb8:	01 00 00 00 	nop 

40009ebc <_call_initcalls>:
40009ebc:	9d e3 bf a0 	save  %sp, -96, %sp
40009ec0:	21 10 00 2d 	sethi  %hi(0x4000b400), %l0
40009ec4:	23 10 00 2d 	sethi  %hi(0x4000b400), %l1
40009ec8:	a0 14 23 30 	or  %l0, 0x330, %l0
40009ecc:	a2 14 63 30 	or  %l1, 0x330, %l1
40009ed0:	80 a4 00 11 	cmp  %l0, %l1
40009ed4:	1a 80 00 0b 	bcc  40009f00 <_call_initcalls+0x44>
40009ed8:	01 00 00 00 	nop 
40009edc:	d0 04 00 00 	ld  [ %l0 ], %o0
40009ee0:	80 a2 20 00 	cmp  %o0, 0
40009ee4:	02 80 00 04 	be  40009ef4 <_call_initcalls+0x38>
40009ee8:	a0 04 20 04 	add  %l0, 4, %l0
40009eec:	9f c2 00 00 	call  %o0
40009ef0:	01 00 00 00 	nop 
40009ef4:	80 a4 00 11 	cmp  %l0, %l1
40009ef8:	2a bf ff fa 	bcs,a   40009ee0 <_call_initcalls+0x24>
40009efc:	d0 04 00 00 	ld  [ %l0 ], %o0
40009f00:	81 c7 e0 08 	ret 
40009f04:	81 e8 00 00 	restore 

40009f08 <__window_overflow_rettseq>:
40009f08:	a7 50 00 00 	rd  %wim, %l3
40009f0c:	ae 10 00 01 	mov  %g1, %l7
40009f10:	83 34 e0 01 	srl  %l3, 1, %g1

40009f14 <__window_overflow_rettseq_ret>:
40009f14:	29 10 00 31 	sethi  %hi(0x4000c400), %l4
40009f18:	e8 05 23 08 	ld  [ %l4 + 0x308 ], %l4	! 4000c708 <_nwindows_min1>
40009f1c:	a9 2c c0 14 	sll  %l3, %l4, %l4
40009f20:	82 15 00 01 	or  %l4, %g1, %g1
40009f24:	81 e0 00 00 	save 
40009f28:	81 90 40 00 	mov  %g1, %wim
40009f2c:	01 00 00 00 	nop 
40009f30:	01 00 00 00 	nop 
40009f34:	01 00 00 00 	nop 
40009f38:	e0 3b a0 00 	std  %l0, [ %sp ]
40009f3c:	e4 3b a0 08 	std  %l2, [ %sp + 8 ]
40009f40:	e8 3b a0 10 	std  %l4, [ %sp + 0x10 ]
40009f44:	ec 3b a0 18 	std  %l6, [ %sp + 0x18 ]
40009f48:	f0 3b a0 20 	std  %i0, [ %sp + 0x20 ]
40009f4c:	f4 3b a0 28 	std  %i2, [ %sp + 0x28 ]
40009f50:	f8 3b a0 30 	std  %i4, [ %sp + 0x30 ]
40009f54:	fc 3b a0 38 	std  %fp, [ %sp + 0x38 ]
40009f58:	81 e8 00 00 	restore 
40009f5c:	82 10 00 17 	mov  %l7, %g1
40009f60:	81 c4 40 00 	jmp  %l1
40009f64:	81 cc 80 00 	rett  %l2
40009f68:	01 00 00 00 	nop 

40009f6c <__window_overflow_slow1>:
40009f6c:	01 00 00 00 	nop 
40009f70:	01 00 00 00 	nop 

40009f74 <_window_underflow>:
40009f74:	a7 50 00 00 	rd  %wim, %l3
40009f78:	a9 2c e0 01 	sll  %l3, 1, %l4
40009f7c:	2b 10 00 31 	sethi  %hi(0x4000c400), %l5
40009f80:	ea 05 63 08 	ld  [ %l5 + 0x308 ], %l5	! 4000c708 <_nwindows_min1>
40009f84:	ab 34 c0 15 	srl  %l3, %l5, %l5
40009f88:	aa 15 40 14 	or  %l5, %l4, %l5
40009f8c:	81 95 40 00 	mov  %l5, %wim
40009f90:	01 00 00 00 	nop 
40009f94:	01 00 00 00 	nop 
40009f98:	01 00 00 00 	nop 
40009f9c:	81 e8 00 00 	restore 
40009fa0:	81 e8 00 00 	restore 
40009fa4:	e0 1b a0 00 	ldd  [ %sp ], %l0
40009fa8:	e4 1b a0 08 	ldd  [ %sp + 8 ], %l2
40009fac:	e8 1b a0 10 	ldd  [ %sp + 0x10 ], %l4
40009fb0:	ec 1b a0 18 	ldd  [ %sp + 0x18 ], %l6
40009fb4:	f0 1b a0 20 	ldd  [ %sp + 0x20 ], %i0
40009fb8:	f4 1b a0 28 	ldd  [ %sp + 0x28 ], %i2
40009fbc:	f8 1b a0 30 	ldd  [ %sp + 0x30 ], %i4
40009fc0:	fc 1b a0 38 	ldd  [ %sp + 0x38 ], %fp
40009fc4:	81 e0 00 00 	save 
40009fc8:	81 e0 00 00 	save 
40009fcc:	81 c4 40 00 	jmp  %l1
40009fd0:	81 cc 80 00 	rett  %l2

40009fd4 <_flush_windows_svt>:
40009fd4:	a7 50 00 00 	rd  %wim, %l3

40009fd8 <_flush_windows>:
40009fd8:	29 10 00 29 	sethi  %hi(0x4000a400), %l4
40009fdc:	ad c5 22 24 	jmpl  %l4 + 0x224, %l6	! 4000a624 <leonbare_trapsetup>
40009fe0:	01 00 00 00 	nop 
40009fe4:	27 10 00 31 	sethi  %hi(0x4000c400), %l3
40009fe8:	a6 14 e2 ec 	or  %l3, 0x2ec, %l3	! 4000c6ec <_lb_issideflush>
40009fec:	e0 24 c0 00 	st  %l0, [ %l3 ]
40009ff0:	81 8c 20 20 	wr  %l0, 0x20, %psr
40009ff4:	01 00 00 00 	nop 
40009ff8:	01 00 00 00 	nop 
40009ffc:	01 00 00 00 	nop 
4000a000:	9d e3 bf a0 	save  %sp, -96, %sp
4000a004:	9d e3 bf a0 	save  %sp, -96, %sp
4000a008:	9d e3 bf a0 	save  %sp, -96, %sp
4000a00c:	9d e3 bf a0 	save  %sp, -96, %sp
4000a010:	9d e3 bf a0 	save  %sp, -96, %sp
4000a014:	9d e3 bf a0 	save  %sp, -96, %sp
4000a018:	9d e3 bf a0 	save  %sp, -96, %sp
4000a01c:	81 e8 00 00 	restore 
4000a020:	81 e8 00 00 	restore 
4000a024:	81 e8 00 00 	restore 
4000a028:	81 e8 00 00 	restore 
4000a02c:	81 e8 00 00 	restore 
4000a030:	81 e8 00 00 	restore 
4000a034:	81 e8 00 00 	restore 
4000a038:	27 10 00 31 	sethi  %hi(0x4000c400), %l3
4000a03c:	a6 14 e2 ec 	or  %l3, 0x2ec, %l3	! 4000c6ec <_lb_issideflush>
4000a040:	c0 24 c0 00 	clr  [ %l3 ]
4000a044:	e2 03 a0 68 	ld  [ %sp + 0x68 ], %l1
4000a048:	a4 04 60 04 	add  %l1, 4, %l2
4000a04c:	e2 23 a0 64 	st  %l1, [ %sp + 0x64 ]
4000a050:	e4 23 a0 68 	st  %l2, [ %sp + 0x68 ]
4000a054:	10 80 01 9a 	b  4000a6bc <leonbare_trapreturn>
4000a058:	ac 10 00 00 	mov  %g0, %l6

4000a05c <_irqcall_flush_windows>:
4000a05c:	29 10 00 31 	sethi  %hi(0x4000c400), %l4
4000a060:	a8 15 22 d0 	or  %l4, 0x2d0, %l4	! 4000c6d0 <_lb_spillglobals>
4000a064:	c2 25 20 00 	st  %g1, [ %l4 ]
4000a068:	c8 25 20 04 	st  %g4, [ %l4 + 4 ]
4000a06c:	e0 25 20 10 	st  %l0, [ %l4 + 0x10 ]
4000a070:	e2 25 20 14 	st  %l1, [ %l4 + 0x14 ]
4000a074:	e4 25 20 18 	st  %l2, [ %l4 + 0x18 ]
4000a078:	e8 25 20 1c 	st  %l4, [ %l4 + 0x1c ]
4000a07c:	81 e8 00 00 	restore 
4000a080:	83 48 00 00 	rd  %psr, %g1
4000a084:	82 10 6f 00 	or  %g1, 0xf00, %g1
4000a088:	81 88 60 20 	wr  %g1, 0x20, %psr
4000a08c:	01 00 00 00 	nop 
4000a090:	01 00 00 00 	nop 
4000a094:	01 00 00 00 	nop 
4000a098:	09 10 00 31 	sethi  %hi(0x4000c400), %g4
4000a09c:	c8 01 23 08 	ld  [ %g4 + 0x308 ], %g4	! 4000c708 <_nwindows_min1>
4000a0a0:	81 e0 00 00 	save 
4000a0a4:	88 21 20 01 	dec  %g4
4000a0a8:	80 a9 20 ff 	andncc  %g4, 0xff, %g0
4000a0ac:	02 80 00 03 	be  4000a0b8 <.lab1>
4000a0b0:	01 00 00 00 	nop 
4000a0b4:	01 00 00 00 	nop 

4000a0b8 <.lab1>:
4000a0b8:	80 a1 00 00 	cmp  %g4, %g0
4000a0bc:	12 bf ff f9 	bne  4000a0a0 <_irqcall_flush_windows+0x44>
4000a0c0:	01 00 00 00 	nop 
4000a0c4:	09 10 00 31 	sethi  %hi(0x4000c400), %g4
4000a0c8:	c8 01 23 08 	ld  [ %g4 + 0x308 ], %g4	! 4000c708 <_nwindows_min1>
4000a0cc:	81 e8 00 00 	restore 
4000a0d0:	80 a9 20 ff 	andncc  %g4, 0xff, %g0
4000a0d4:	02 80 00 03 	be  4000a0e0 <.lab2>
4000a0d8:	01 00 00 00 	nop 
4000a0dc:	01 00 00 00 	nop 

4000a0e0 <.lab2>:
4000a0e0:	88 21 20 01 	dec  %g4
4000a0e4:	80 a1 00 00 	cmp  %g4, %g0
4000a0e8:	12 bf ff f9 	bne  4000a0cc <.lab1+0x14>
4000a0ec:	01 00 00 00 	nop 
4000a0f0:	81 e0 00 00 	save 
4000a0f4:	29 10 00 31 	sethi  %hi(0x4000c400), %l4
4000a0f8:	a8 15 22 d0 	or  %l4, 0x2d0, %l4	! 4000c6d0 <_lb_spillglobals>
4000a0fc:	c8 05 20 04 	ld  [ %l4 + 4 ], %g4
4000a100:	c2 05 20 00 	ld  [ %l4 ], %g1
4000a104:	e0 05 20 10 	ld  [ %l4 + 0x10 ], %l0
4000a108:	e2 05 20 14 	ld  [ %l4 + 0x14 ], %l1
4000a10c:	e4 05 20 18 	ld  [ %l4 + 0x18 ], %l2
4000a110:	c0 25 20 1c 	clr  [ %l4 + 0x1c ]
4000a114:	81 8c 20 00 	mov  %l0, %psr
4000a118:	01 00 00 00 	nop 
4000a11c:	01 00 00 00 	nop 
4000a120:	01 00 00 00 	nop 
4000a124:	81 c4 80 00 	jmp  %l2
4000a128:	81 cc a0 04 	rett  %l2 + 4

4000a12c <_irqcall_disableirq>:
4000a12c:	a0 14 2f 00 	or  %l0, 0xf00, %l0
4000a130:	81 8c 00 00 	mov  %l0, %psr
4000a134:	01 00 00 00 	nop 
4000a138:	01 00 00 00 	nop 
4000a13c:	01 00 00 00 	nop 
4000a140:	81 c4 80 00 	jmp  %l2
4000a144:	81 cc a0 04 	rett  %l2 + 4

4000a148 <_irqcall>:
4000a148:	80 a6 60 02 	cmp  %i1, 2
4000a14c:	12 80 00 05 	bne  4000a160 <_irqcall+0x18>
4000a150:	a8 14 2f 00 	or  %l0, 0xf00, %l4
4000a154:	81 8d 00 00 	mov  %l4, %psr
4000a158:	b0 14 20 20 	or  %l0, 0x20, %i0
4000a15c:	30 80 00 1f 	b,a   4000a1d8 <_irqcall+0x90>
4000a160:	80 a6 60 03 	cmp  %i1, 3
4000a164:	12 80 00 06 	bne  4000a17c <_irqcall+0x34>
4000a168:	a8 0e 2f 00 	and  %i0, 0xf00, %l4
4000a16c:	aa 2c 2f 00 	andn  %l0, 0xf00, %l5
4000a170:	a8 15 40 14 	or  %l5, %l4, %l4
4000a174:	81 8d 00 00 	mov  %l4, %psr
4000a178:	30 80 00 18 	b,a   4000a1d8 <_irqcall+0x90>
4000a17c:	80 a6 60 04 	cmp  %i1, 4
4000a180:	12 80 00 08 	bne  4000a1a0 <_irqcall+0x58>
4000a184:	a9 48 00 00 	rd  %psr, %l4
4000a188:	a8 15 20 40 	or  %l4, 0x40, %l4
4000a18c:	81 8d 00 00 	mov  %l4, %psr
4000a190:	01 00 00 00 	nop 
4000a194:	01 00 00 00 	nop 
4000a198:	01 00 00 00 	nop 
4000a19c:	30 80 00 0f 	b,a   4000a1d8 <_irqcall+0x90>
4000a1a0:	80 a6 60 05 	cmp  %i1, 5
4000a1a4:	12 80 00 08 	bne  4000a1c4 <_irqcall+0x7c>
4000a1a8:	a9 48 00 00 	rd  %psr, %l4
4000a1ac:	a8 2d 20 40 	andn  %l4, 0x40, %l4
4000a1b0:	81 8d 00 00 	mov  %l4, %psr
4000a1b4:	01 00 00 00 	nop 
4000a1b8:	01 00 00 00 	nop 
4000a1bc:	01 00 00 00 	nop 
4000a1c0:	30 80 00 06 	b,a   4000a1d8 <_irqcall+0x90>
4000a1c4:	80 a6 60 06 	cmp  %i1, 6
4000a1c8:	12 80 00 03 	bne  4000a1d4 <_irqcall+0x8c>
4000a1cc:	01 00 00 00 	nop 
4000a1d0:	30 bf ff a3 	b,a   4000a05c <_irqcall_flush_windows>
4000a1d4:	91 d0 20 00 	ta  0
4000a1d8:	81 c4 80 00 	jmp  %l2
4000a1dc:	81 cc a0 04 	rett  %l2 + 4

4000a1e0 <leonbare_enable_traps>:
4000a1e0:	92 10 20 03 	mov  3, %o1
4000a1e4:	81 c3 e0 08 	retl 
4000a1e8:	91 d0 20 02 	ta  2

4000a1ec <leonbare_disable_traps>:
4000a1ec:	92 10 20 02 	mov  2, %o1
4000a1f0:	81 c3 e0 08 	retl 
4000a1f4:	91 d0 20 02 	ta  2

4000a1f8 <leonbare_flush_windows>:
4000a1f8:	92 10 20 06 	mov  6, %o1
4000a1fc:	81 c3 e0 08 	retl 
4000a200:	91 d0 20 02 	ta  2

4000a204 <_leonbare_irq_entry_svt>:
4000a204:	ae 25 a0 10 	sub  %l6, 0x10, %l7
4000a208:	a7 50 00 00 	rd  %wim, %l3

4000a20c <leonbare_irq_entry>:
4000a20c:	2d 10 00 28 	sethi  %hi(0x4000a000), %l6
4000a210:	ac 15 a2 18 	or  %l6, 0x218, %l6	! 4000a218 <leonbare_irq_entry+0xc>
4000a214:	29 10 00 29 	sethi  %hi(0x4000a400), %l4
4000a218:	81 c5 23 cc 	jmp  %l4 + 0x3cc	! 4000a7cc <leonbare_trapsetup_fast>
4000a21c:	01 00 00 00 	nop 
4000a220:	11 10 00 31 	sethi  %hi(0x4000c400), %o0
4000a224:	90 12 22 f8 	or  %o0, 0x2f8, %o0	! 4000c6f8 <nestcount>
4000a228:	d2 02 00 00 	ld  [ %o0 ], %o1
4000a22c:	92 02 60 01 	inc  %o1
4000a230:	d2 22 00 00 	st  %o1, [ %o0 ]
4000a234:	93 2d e0 08 	sll  %l7, 8, %o1
4000a238:	90 2c 2f 00 	andn  %l0, 0xf00, %o0
4000a23c:	92 12 00 09 	or  %o0, %o1, %o1
4000a240:	11 10 00 31 	sethi  %hi(0x4000c400), %o0
4000a244:	90 12 22 f0 	or  %o0, 0x2f0, %o0	! 4000c6f0 <nestedirq>
4000a248:	d0 02 00 00 	ld  [ %o0 ], %o0
4000a24c:	80 a0 00 08 	cmp  %g0, %o0
4000a250:	22 80 00 02 	be,a   4000a258 <leonbare_irq_entry+0x4c>
4000a254:	92 12 6f 00 	or  %o1, 0xf00, %o1
4000a258:	81 8a 60 20 	wr  %o1, 0x20, %psr
4000a25c:	01 00 00 00 	nop 
4000a260:	01 00 00 00 	nop 
4000a264:	01 00 00 00 	nop 
4000a268:	90 10 00 17 	mov  %l7, %o0
4000a26c:	40 00 00 37 	call  4000a348 <handler_irq>
4000a270:	92 03 a0 60 	add  %sp, 0x60, %o1
4000a274:	92 14 2f 00 	or  %l0, 0xf00, %o1
4000a278:	81 8a 60 20 	wr  %o1, 0x20, %psr
4000a27c:	01 00 00 00 	nop 
4000a280:	01 00 00 00 	nop 
4000a284:	01 00 00 00 	nop 
4000a288:	11 10 00 31 	sethi  %hi(0x4000c400), %o0
4000a28c:	90 12 22 f8 	or  %o0, 0x2f8, %o0	! 4000c6f8 <nestcount>
4000a290:	d2 02 00 00 	ld  [ %o0 ], %o1
4000a294:	92 22 60 01 	dec  %o1
4000a298:	d2 22 00 00 	st  %o1, [ %o0 ]
4000a29c:	10 80 01 6c 	b  4000a84c <leonbare_trapreturn_fast>
4000a2a0:	ac 10 00 00 	mov  %g0, %l6

4000a2a4 <catch_interrupt>:
4000a2a4:	9d e3 bf a0 	save  %sp, -96, %sp
4000a2a8:	1b 10 00 32 	sethi  %hi(0x4000c800), %o5
4000a2ac:	89 2e 60 02 	sll  %i1, 2, %g4
4000a2b0:	9a 13 60 1c 	or  %o5, 0x1c, %o5
4000a2b4:	80 a6 60 1f 	cmp  %i1, 0x1f
4000a2b8:	82 10 20 00 	clr  %g1
4000a2bc:	14 80 00 17 	bg  4000a318 <catch_interrupt+0x74>
4000a2c0:	c6 03 40 04 	ld  [ %o5 + %g4 ], %g3
4000a2c4:	b3 2e 60 04 	sll  %i1, 4, %i1
4000a2c8:	19 10 00 32 	sethi  %hi(0x4000c800), %o4
4000a2cc:	80 a0 e0 00 	cmp  %g3, 0
4000a2d0:	98 13 20 9c 	or  %o4, 0x9c, %o4
4000a2d4:	02 80 00 0d 	be  4000a308 <catch_interrupt+0x64>
4000a2d8:	84 06 40 0c 	add  %i1, %o4, %g2
4000a2dc:	80 a0 c0 02 	cmp  %g3, %g2
4000a2e0:	12 80 00 06 	bne  4000a2f8 <catch_interrupt+0x54>
4000a2e4:	82 10 00 03 	mov  %g3, %g1
4000a2e8:	10 80 00 0e 	b  4000a320 <catch_interrupt+0x7c>
4000a2ec:	c2 06 40 0c 	ld  [ %i1 + %o4 ], %g1
4000a2f0:	22 80 00 0c 	be,a   4000a320 <catch_interrupt+0x7c>
4000a2f4:	c2 06 40 0c 	ld  [ %i1 + %o4 ], %g1
4000a2f8:	c2 00 60 0c 	ld  [ %g1 + 0xc ], %g1
4000a2fc:	80 a0 60 00 	cmp  %g1, 0
4000a300:	12 bf ff fc 	bne  4000a2f0 <catch_interrupt+0x4c>
4000a304:	80 a0 80 01 	cmp  %g2, %g1
4000a308:	c4 23 40 04 	st  %g2, [ %o5 + %g4 ]
4000a30c:	f0 26 40 0c 	st  %i0, [ %i1 + %o4 ]
4000a310:	c6 20 a0 0c 	st  %g3, [ %g2 + 0xc ]
4000a314:	82 10 20 00 	clr  %g1
4000a318:	81 c7 e0 08 	ret 
4000a31c:	91 e8 00 01 	restore  %g0, %g1, %o0
4000a320:	f0 26 40 0c 	st  %i0, [ %i1 + %o4 ]
4000a324:	81 c7 e0 08 	ret 
4000a328:	91 e8 00 01 	restore  %g0, %g1, %o0

4000a32c <chained_catch_interrupt>:
4000a32c:	91 2a 20 02 	sll  %o0, 2, %o0
4000a330:	03 10 00 32 	sethi  %hi(0x4000c800), %g1
4000a334:	82 10 60 1c 	or  %g1, 0x1c, %g1	! 4000c81c <_irqtbl>
4000a338:	c4 00 40 08 	ld  [ %g1 + %o0 ], %g2
4000a33c:	c4 22 60 0c 	st  %g2, [ %o1 + 0xc ]
4000a340:	81 c3 e0 08 	retl 
4000a344:	d2 20 40 08 	st  %o1, [ %g1 + %o0 ]

4000a348 <handler_irq>:
4000a348:	9d e3 bf a0 	save  %sp, -96, %sp
4000a34c:	05 10 00 31 	sethi  %hi(0x4000c400), %g2
4000a350:	82 10 a2 fc 	or  %g2, 0x2fc, %g1	! 4000c6fc <LEON3_IrqCtrl_Regs>
4000a354:	c2 00 60 04 	ld  [ %g1 + 4 ], %g1
4000a358:	80 a0 40 18 	cmp  %g1, %i0
4000a35c:	22 80 00 40 	be,a   4000a45c <handler_irq+0x114>
4000a360:	c4 00 a2 fc 	ld  [ %g2 + 0x2fc ], %g2
4000a364:	80 a6 20 00 	cmp  %i0, 0
4000a368:	22 80 00 02 	be,a   4000a370 <handler_irq+0x28>
4000a36c:	b0 10 00 01 	mov  %g1, %i0
4000a370:	a3 2e 20 02 	sll  %i0, 2, %l1
4000a374:	03 10 00 32 	sethi  %hi(0x4000c800), %g1
4000a378:	82 10 60 1c 	or  %g1, 0x1c, %g1	! 4000c81c <_irqtbl>
4000a37c:	e0 00 40 11 	ld  [ %g1 + %l1 ], %l0
4000a380:	80 a4 20 00 	cmp  %l0, 0
4000a384:	02 80 00 34 	be  4000a454 <handler_irq+0x10c>
4000a388:	29 10 00 32 	sethi  %hi(0x4000c800), %l4
4000a38c:	2d 10 00 32 	sethi  %hi(0x4000c800), %l6
4000a390:	2b 10 00 32 	sethi  %hi(0x4000c800), %l5
4000a394:	27 10 00 32 	sethi  %hi(0x4000c800), %l3
4000a398:	a8 15 22 9c 	or  %l4, 0x29c, %l4
4000a39c:	ac 15 a3 20 	or  %l6, 0x320, %l6
4000a3a0:	aa 15 63 24 	or  %l5, 0x324, %l5
4000a3a4:	10 80 00 1d 	b  4000a418 <handler_irq+0xd0>
4000a3a8:	a6 14 e2 a0 	or  %l3, 0x2a0, %l3
4000a3ac:	a4 10 00 13 	mov  %l3, %l2
4000a3b0:	84 00 a0 01 	inc  %g2
4000a3b4:	c4 24 80 11 	st  %g2, [ %l2 + %l1 ]
4000a3b8:	c4 05 80 00 	ld  [ %l6 ], %g2
4000a3bc:	80 a0 a0 00 	cmp  %g2, 0
4000a3c0:	22 80 00 06 	be,a   4000a3d8 <handler_irq+0x90>
4000a3c4:	d2 04 20 08 	ld  [ %l0 + 8 ], %o1
4000a3c8:	9f c0 80 00 	call  %g2
4000a3cc:	01 00 00 00 	nop 
4000a3d0:	c2 04 00 00 	ld  [ %l0 ], %g1
4000a3d4:	d2 04 20 08 	ld  [ %l0 + 8 ], %o1
4000a3d8:	90 10 00 18 	mov  %i0, %o0
4000a3dc:	9f c0 40 00 	call  %g1
4000a3e0:	94 10 00 19 	mov  %i1, %o2
4000a3e4:	c2 05 40 00 	ld  [ %l5 ], %g1
4000a3e8:	80 a0 60 00 	cmp  %g1, 0
4000a3ec:	22 80 00 05 	be,a   4000a400 <handler_irq+0xb8>
4000a3f0:	c2 04 80 11 	ld  [ %l2 + %l1 ], %g1
4000a3f4:	9f c0 40 00 	call  %g1
4000a3f8:	01 00 00 00 	nop 
4000a3fc:	c2 04 80 11 	ld  [ %l2 + %l1 ], %g1
4000a400:	82 00 7f ff 	add  %g1, -1, %g1
4000a404:	c2 24 80 11 	st  %g1, [ %l2 + %l1 ]
4000a408:	e0 04 20 0c 	ld  [ %l0 + 0xc ], %l0
4000a40c:	80 a4 20 00 	cmp  %l0, 0
4000a410:	02 80 00 11 	be  4000a454 <handler_irq+0x10c>
4000a414:	01 00 00 00 	nop 
4000a418:	c2 04 00 00 	ld  [ %l0 ], %g1
4000a41c:	80 a0 60 00 	cmp  %g1, 0
4000a420:	22 bf ff fb 	be,a   4000a40c <handler_irq+0xc4>
4000a424:	e0 04 20 0c 	ld  [ %l0 + 0xc ], %l0
4000a428:	c4 05 00 00 	ld  [ %l4 ], %g2
4000a42c:	80 a0 a0 00 	cmp  %g2, 0
4000a430:	12 bf ff df 	bne  4000a3ac <handler_irq+0x64>
4000a434:	c4 04 c0 11 	ld  [ %l3 + %l1 ], %g2
4000a438:	80 a0 a0 00 	cmp  %g2, 0
4000a43c:	02 bf ff dd 	be  4000a3b0 <handler_irq+0x68>
4000a440:	a4 10 00 13 	mov  %l3, %l2
4000a444:	e0 04 20 0c 	ld  [ %l0 + 0xc ], %l0
4000a448:	80 a4 20 00 	cmp  %l0, 0
4000a44c:	32 bf ff f4 	bne,a   4000a41c <handler_irq+0xd4>
4000a450:	c2 04 00 00 	ld  [ %l0 ], %g1
4000a454:	81 c7 e0 08 	ret 
4000a458:	81 e8 00 00 	restore 
4000a45c:	f0 00 a0 c0 	ld  [ %g2 + 0xc0 ], %i0
4000a460:	10 bf ff c1 	b  4000a364 <handler_irq+0x1c>
4000a464:	b0 0e 20 1f 	and  %i0, 0x1f, %i0

4000a468 <traptable_genjmp>:
4000a468:	83 2a 60 04 	sll  %o1, 4, %g1
4000a46c:	86 00 60 04 	add  %g1, 4, %g3
4000a470:	92 00 60 08 	add  %g1, 8, %o1
4000a474:	84 02 00 01 	add  %o0, %g1, %g2
4000a478:	09 2b 84 08 	sethi  %hi(0xae102000), %g4
4000a47c:	88 12 80 04 	or  %o2, %g4, %g4
4000a480:	c8 22 00 01 	st  %g4, [ %o0 + %g1 ]
4000a484:	89 32 e0 0a 	srl  %o3, 0xa, %g4
4000a488:	03 09 c0 00 	sethi  %hi(0x27000000), %g1
4000a48c:	82 11 00 01 	or  %g4, %g1, %g1
4000a490:	c2 22 00 03 	st  %g1, [ %o0 + %g3 ]
4000a494:	96 0a e3 ff 	and  %o3, 0x3ff, %o3
4000a498:	03 20 71 38 	sethi  %hi(0x81c4e000), %g1
4000a49c:	96 12 c0 01 	or  %o3, %g1, %o3
4000a4a0:	d6 22 00 09 	st  %o3, [ %o0 + %o1 ]
4000a4a4:	03 28 52 00 	sethi  %hi(0xa1480000), %g1
4000a4a8:	81 c3 e0 08 	retl 
4000a4ac:	c2 20 a0 0c 	st  %g1, [ %g2 + 0xc ]

4000a4b0 <sparc_leon23_get_tbr_base>:
4000a4b0:	91 58 00 00 	rd  %tbr, %o0
4000a4b4:	81 c3 e0 08 	retl 
4000a4b8:	90 0a 30 00 	and  %o0, -4096, %o0

4000a4bc <cpuinit>:
4000a4bc:	8c 10 00 0f 	mov  %o7, %g6
4000a4c0:	a7 48 00 00 	rd  %psr, %l3
4000a4c4:	8b 34 e0 18 	srl  %l3, 0x18, %g5
4000a4c8:	8a 09 60 0f 	and  %g5, 0xf, %g5
4000a4cc:	90 10 20 01 	mov  1, %o0
4000a4d0:	9e 10 00 06 	mov  %g6, %o7
4000a4d4:	81 c3 e0 08 	retl 
4000a4d8:	01 00 00 00 	nop 
4000a4dc:	03 10 00 31 	sethi  %hi(0x4000c400), %g1
4000a4e0:	82 10 63 18 	or  %g1, 0x318, %g1	! 4000c718 <jiffies_64>

4000a4e4 <_hardreset_real>:
4000a4e4:	01 00 00 00 	nop 

4000a4e8 <_hardreset>:
4000a4e8:	03 10 00 29 	sethi  %hi(0x4000a400), %g1
4000a4ec:	82 10 61 9c 	or  %g1, 0x19c, %g1	! 4000a59c <_hardreset_custom_weak>
4000a4f0:	9f c0 40 00 	call  %g1
4000a4f4:	01 00 00 00 	nop 
4000a4f8:	03 10 00 00 	sethi  %hi(0x40000000), %g1
4000a4fc:	82 10 60 00 	mov  %g1, %g1	! 40000000 <_trap_table>
4000a500:	81 98 40 00 	mov  %g1, %tbr
4000a504:	03 10 00 29 	sethi  %hi(0x4000a400), %g1
4000a508:	82 10 62 04 	or  %g1, 0x204, %g1	! 4000a604 <_hardreset_custom_svt_weak>
4000a50c:	9f c0 40 00 	call  %g1
4000a510:	01 00 00 00 	nop 
4000a514:	03 10 00 29 	sethi  %hi(0x4000a400), %g1
4000a518:	82 10 61 8c 	or  %g1, 0x18c, %g1	! 4000a58c <_cleanregs_libgloss>
4000a51c:	9f c0 40 00 	call  %g1
4000a520:	01 00 00 00 	nop 
4000a524:	8b 44 40 00 	rd  %asr17, %g5
4000a528:	8b 31 60 1c 	srl  %g5, 0x1c, %g5
4000a52c:	80 a1 40 00 	cmp  %g5, %g0
4000a530:	12 80 00 06 	bne  4000a548 <slavego>
4000a534:	01 00 00 00 	nop 

4000a538 <callcpuinit>:
4000a538:	7f ff ff e1 	call  4000a4bc <cpuinit>
4000a53c:	01 00 00 00 	nop 
4000a540:	7f ff d7 1c 	call  400001b0 <pnpinit>
4000a544:	01 00 00 00 	nop 

4000a548 <slavego>:
4000a548:	9c 23 a0 40 	sub  %sp, 0x40, %sp
4000a54c:	7f ff d6 b0 	call  4000000c <_start>
4000a550:	01 00 00 00 	nop 
4000a554:	82 10 20 01 	mov  1, %g1	! 1 <_trap_table-0x3fffffff>
4000a558:	91 d0 20 00 	ta  0
4000a55c:	01 00 00 00 	nop 

4000a560 <_fpdis>:
4000a560:	29 00 00 04 	sethi  %hi(0x1000), %l4
4000a564:	a6 8c 00 14 	andcc  %l0, %l4, %l3
4000a568:	32 80 00 03 	bne,a   4000a574 <_fpdis+0x14>
4000a56c:	a0 2c 00 14 	andn  %l0, %l4, %l0
4000a570:	91 d0 20 00 	ta  0
4000a574:	81 8c 00 00 	mov  %l0, %psr
4000a578:	01 00 00 00 	nop 
4000a57c:	01 00 00 00 	nop 
4000a580:	01 00 00 00 	nop 
4000a584:	81 c4 80 00 	jmp  %l2
4000a588:	81 cc a0 04 	rett  %l2 + 4

4000a58c <_cleanregs_libgloss>:
4000a58c:	81 c3 e0 08 	retl 
4000a590:	01 00 00 00 	nop 
4000a594:	81 c1 e0 08 	jmp  %g7 + 8
4000a598:	01 00 00 00 	nop 

4000a59c <_hardreset_custom_weak>:
4000a59c:	a7 48 00 00 	rd  %psr, %l3
4000a5a0:	8b 34 e0 18 	srl  %l3, 0x18, %g5
4000a5a4:	8a 09 60 03 	and  %g5, 3, %g5
4000a5a8:	80 a1 60 03 	cmp  %g5, 3
4000a5ac:	12 80 00 08 	bne  4000a5cc <_hardreset_custom_weak+0x30>
4000a5b0:	01 00 00 00 	nop 
4000a5b4:	21 10 00 31 	sethi  %hi(0x4000c400), %l0
4000a5b8:	a0 14 23 10 	or  %l0, 0x310, %l0	! 4000c710 <_leon_version>
4000a5bc:	a2 10 20 03 	mov  3, %l1
4000a5c0:	e2 24 00 00 	st  %l1, [ %l0 ]
4000a5c4:	8b 44 40 00 	rd  %asr17, %g5
4000a5c8:	10 80 00 01 	b  4000a5cc <_hardreset_custom_weak+0x30>
4000a5cc:	8a 09 60 1f 	and  %g5, 0x1f, %g5
4000a5d0:	27 10 00 31 	sethi  %hi(0x4000c400), %l3
4000a5d4:	a6 14 e3 08 	or  %l3, 0x308, %l3	! 4000c708 <_nwindows_min1>
4000a5d8:	ca 24 c0 00 	st  %g5, [ %l3 ]
4000a5dc:	8a 01 60 01 	inc  %g5
4000a5e0:	27 10 00 31 	sethi  %hi(0x4000c400), %l3
4000a5e4:	a6 14 e3 04 	or  %l3, 0x304, %l3	! 4000c704 <_nwindows>
4000a5e8:	ca 24 c0 00 	st  %g5, [ %l3 ]
4000a5ec:	27 10 00 31 	sethi  %hi(0x4000c400), %l3
4000a5f0:	a6 14 e3 0c 	or  %l3, 0x30c, %l3	! 4000c70c <_nwindows_min2>
4000a5f4:	8a 21 60 02 	sub  %g5, 2, %g5
4000a5f8:	ca 24 c0 00 	st  %g5, [ %l3 ]
4000a5fc:	81 c3 e0 08 	retl 
4000a600:	01 00 00 00 	nop 

4000a604 <_hardreset_custom_svt_weak>:
4000a604:	81 c3 e0 08 	retl 
4000a608:	01 00 00 00 	nop 

4000a60c <_srmmu_fault>:
4000a60c:	91 d0 20 00 	ta  0
4000a610:	01 00 00 00 	nop 
4000a614:	01 00 00 00 	nop 
4000a618:	01 00 00 00 	nop 
4000a61c:	81 c4 40 00 	jmp  %l1
4000a620:	81 cc 80 00 	rett  %l2

4000a624 <leonbare_trapsetup>:
4000a624:	aa 27 a0 b0 	sub  %fp, 0xb0, %l5
4000a628:	e0 25 60 60 	st  %l0, [ %l5 + 0x60 ]
4000a62c:	e2 25 60 64 	st  %l1, [ %l5 + 0x64 ]
4000a630:	e4 25 60 68 	st  %l2, [ %l5 + 0x68 ]
4000a634:	c2 25 60 74 	st  %g1, [ %l5 + 0x74 ]
4000a638:	c4 3d 60 78 	std  %g2, [ %l5 + 0x78 ]
4000a63c:	c8 3d 60 80 	std  %g4, [ %l5 + 0x80 ]
4000a640:	cc 3d 60 88 	std  %g6, [ %l5 + 0x88 ]
4000a644:	85 40 00 00 	rd  %y, %g2
4000a648:	c4 25 60 6c 	st  %g2, [ %l5 + 0x6c ]
4000a64c:	f0 3d 60 90 	std  %i0, [ %l5 + 0x90 ]
4000a650:	f4 3d 60 98 	std  %i2, [ %l5 + 0x98 ]
4000a654:	f8 3d 60 a0 	std  %i4, [ %l5 + 0xa0 ]
4000a658:	fc 3d 60 a8 	std  %fp, [ %l5 + 0xa8 ]
4000a65c:	a8 10 20 01 	mov  1, %l4
4000a660:	a9 2d 00 10 	sll  %l4, %l0, %l4
4000a664:	80 8d 00 13 	btst  %l4, %l3
4000a668:	02 80 00 13 	be  4000a6b4 <leonbare_trapsetup+0x90>
4000a66c:	01 00 00 00 	nop 
4000a670:	85 34 e0 01 	srl  %l3, 1, %g2
4000a674:	07 10 00 31 	sethi  %hi(0x4000c400), %g3
4000a678:	c6 00 e3 08 	ld  [ %g3 + 0x308 ], %g3	! 4000c708 <_nwindows_min1>
4000a67c:	a7 2c c0 03 	sll  %l3, %g3, %l3
4000a680:	84 14 c0 02 	or  %l3, %g2, %g2
4000a684:	84 08 a0 ff 	and  %g2, 0xff, %g2
4000a688:	81 e0 00 00 	save 
4000a68c:	81 90 a0 00 	mov  %g2, %wim
4000a690:	e0 3b a0 00 	std  %l0, [ %sp ]
4000a694:	e4 3b a0 08 	std  %l2, [ %sp + 8 ]
4000a698:	e8 3b a0 10 	std  %l4, [ %sp + 0x10 ]
4000a69c:	ec 3b a0 18 	std  %l6, [ %sp + 0x18 ]
4000a6a0:	f0 3b a0 20 	std  %i0, [ %sp + 0x20 ]
4000a6a4:	f4 3b a0 28 	std  %i2, [ %sp + 0x28 ]
4000a6a8:	f8 3b a0 30 	std  %i4, [ %sp + 0x30 ]
4000a6ac:	fc 3b a0 38 	std  %fp, [ %sp + 0x38 ]
4000a6b0:	81 e8 00 00 	restore 
4000a6b4:	81 c5 a0 08 	jmp  %l6 + 8
4000a6b8:	9c 10 00 15 	mov  %l5, %sp

4000a6bc <leonbare_trapreturn>:
4000a6bc:	05 10 00 32 	sethi  %hi(0x4000c800), %g2
4000a6c0:	84 10 a3 28 	or  %g2, 0x328, %g2	! 4000cb28 <schedule_callback>
4000a6c4:	c4 00 80 00 	ld  [ %g2 ], %g2
4000a6c8:	80 a0 80 00 	cmp  %g2, %g0
4000a6cc:	02 80 00 04 	be  4000a6dc <leonbare_trapreturn+0x20>
4000a6d0:	01 00 00 00 	nop 
4000a6d4:	9f c0 80 00 	call  %g2
4000a6d8:	92 03 a0 60 	add  %sp, 0x60, %o1
4000a6dc:	81 8c 20 00 	mov  %l0, %psr
4000a6e0:	82 10 20 02 	mov  2, %g1
4000a6e4:	83 28 40 10 	sll  %g1, %l0, %g1
4000a6e8:	05 10 00 31 	sethi  %hi(0x4000c400), %g2
4000a6ec:	c4 00 a3 04 	ld  [ %g2 + 0x304 ], %g2	! 4000c704 <_nwindows>
4000a6f0:	85 30 40 02 	srl  %g1, %g2, %g2
4000a6f4:	82 10 40 02 	or  %g1, %g2, %g1
4000a6f8:	85 50 00 00 	rd  %wim, %g2
4000a6fc:	80 88 80 01 	btst  %g2, %g1
4000a700:	02 80 00 20 	be  4000a780 <leonbare_trapreturn+0xc4>
4000a704:	83 28 a0 01 	sll  %g2, 1, %g1
4000a708:	07 10 00 31 	sethi  %hi(0x4000c400), %g3
4000a70c:	c6 00 e3 08 	ld  [ %g3 + 0x308 ], %g3	! 4000c708 <_nwindows_min1>
4000a710:	85 30 80 03 	srl  %g2, %g3, %g2
4000a714:	82 10 40 02 	or  %g1, %g2, %g1
4000a718:	82 08 60 ff 	and  %g1, 0xff, %g1
4000a71c:	81 90 60 00 	mov  %g1, %wim
4000a720:	c2 03 a0 6c 	ld  [ %sp + 0x6c ], %g1
4000a724:	81 80 60 00 	mov  %g1, %y
4000a728:	f0 1b a0 90 	ldd  [ %sp + 0x90 ], %i0
4000a72c:	f4 1b a0 98 	ldd  [ %sp + 0x98 ], %i2
4000a730:	f8 1b a0 a0 	ldd  [ %sp + 0xa0 ], %i4
4000a734:	fc 1b a0 a8 	ldd  [ %sp + 0xa8 ], %fp
4000a738:	c2 03 a0 74 	ld  [ %sp + 0x74 ], %g1
4000a73c:	c4 1b a0 78 	ldd  [ %sp + 0x78 ], %g2
4000a740:	c8 1b a0 80 	ldd  [ %sp + 0x80 ], %g4
4000a744:	cc 1b a0 88 	ldd  [ %sp + 0x88 ], %g6
4000a748:	e0 03 a0 60 	ld  [ %sp + 0x60 ], %l0
4000a74c:	e2 03 a0 64 	ld  [ %sp + 0x64 ], %l1
4000a750:	e4 03 a0 68 	ld  [ %sp + 0x68 ], %l2
4000a754:	81 e8 00 00 	restore 
4000a758:	e0 1b a0 00 	ldd  [ %sp ], %l0
4000a75c:	e4 1b a0 08 	ldd  [ %sp + 8 ], %l2
4000a760:	e8 1b a0 10 	ldd  [ %sp + 0x10 ], %l4
4000a764:	ec 1b a0 18 	ldd  [ %sp + 0x18 ], %l6
4000a768:	f0 1b a0 20 	ldd  [ %sp + 0x20 ], %i0
4000a76c:	f4 1b a0 28 	ldd  [ %sp + 0x28 ], %i2
4000a770:	f8 1b a0 30 	ldd  [ %sp + 0x30 ], %i4
4000a774:	fc 1b a0 38 	ldd  [ %sp + 0x38 ], %fp
4000a778:	10 80 00 0f 	b  4000a7b4 <leonbare_trapreturn+0xf8>
4000a77c:	81 e0 00 00 	save 
4000a780:	c2 03 a0 6c 	ld  [ %sp + 0x6c ], %g1
4000a784:	81 80 60 00 	mov  %g1, %y
4000a788:	f0 1b a0 90 	ldd  [ %sp + 0x90 ], %i0
4000a78c:	f4 1b a0 98 	ldd  [ %sp + 0x98 ], %i2
4000a790:	f8 1b a0 a0 	ldd  [ %sp + 0xa0 ], %i4
4000a794:	fc 1b a0 a8 	ldd  [ %sp + 0xa8 ], %fp
4000a798:	c2 03 a0 74 	ld  [ %sp + 0x74 ], %g1
4000a79c:	c4 1b a0 78 	ldd  [ %sp + 0x78 ], %g2
4000a7a0:	c8 1b a0 80 	ldd  [ %sp + 0x80 ], %g4
4000a7a4:	cc 1b a0 88 	ldd  [ %sp + 0x88 ], %g6
4000a7a8:	e0 03 a0 60 	ld  [ %sp + 0x60 ], %l0
4000a7ac:	e2 03 a0 64 	ld  [ %sp + 0x64 ], %l1
4000a7b0:	e4 03 a0 68 	ld  [ %sp + 0x68 ], %l2
4000a7b4:	81 8c 20 00 	mov  %l0, %psr
4000a7b8:	01 00 00 00 	nop 
4000a7bc:	01 00 00 00 	nop 
4000a7c0:	01 00 00 00 	nop 
4000a7c4:	81 c4 40 00 	jmp  %l1
4000a7c8:	81 cc 80 00 	rett  %l2

4000a7cc <leonbare_trapsetup_fast>:
4000a7cc:	aa 27 a0 b0 	sub  %fp, 0xb0, %l5
4000a7d0:	01 00 00 00 	nop 
4000a7d4:	c2 25 60 74 	st  %g1, [ %l5 + 0x74 ]
4000a7d8:	c4 3d 60 78 	std  %g2, [ %l5 + 0x78 ]
4000a7dc:	c8 3d 60 80 	std  %g4, [ %l5 + 0x80 ]
4000a7e0:	cc 3d 60 88 	std  %g6, [ %l5 + 0x88 ]
4000a7e4:	85 40 00 00 	rd  %y, %g2
4000a7e8:	c4 25 60 6c 	st  %g2, [ %l5 + 0x6c ]
4000a7ec:	a8 10 20 01 	mov  1, %l4
4000a7f0:	a9 2d 00 10 	sll  %l4, %l0, %l4
4000a7f4:	80 8d 00 13 	btst  %l4, %l3
4000a7f8:	02 80 00 13 	be  4000a844 <leonbare_trapsetup_fast+0x78>
4000a7fc:	01 00 00 00 	nop 
4000a800:	85 34 e0 01 	srl  %l3, 1, %g2
4000a804:	07 10 00 31 	sethi  %hi(0x4000c400), %g3
4000a808:	c6 00 e3 08 	ld  [ %g3 + 0x308 ], %g3	! 4000c708 <_nwindows_min1>
4000a80c:	a7 2c c0 03 	sll  %l3, %g3, %l3
4000a810:	84 14 c0 02 	or  %l3, %g2, %g2
4000a814:	84 08 a0 ff 	and  %g2, 0xff, %g2
4000a818:	81 e0 00 00 	save 
4000a81c:	81 90 a0 00 	mov  %g2, %wim
4000a820:	e0 3b a0 00 	std  %l0, [ %sp ]
4000a824:	e4 3b a0 08 	std  %l2, [ %sp + 8 ]
4000a828:	e8 3b a0 10 	std  %l4, [ %sp + 0x10 ]
4000a82c:	ec 3b a0 18 	std  %l6, [ %sp + 0x18 ]
4000a830:	f0 3b a0 20 	std  %i0, [ %sp + 0x20 ]
4000a834:	f4 3b a0 28 	std  %i2, [ %sp + 0x28 ]
4000a838:	f8 3b a0 30 	std  %i4, [ %sp + 0x30 ]
4000a83c:	fc 3b a0 38 	std  %fp, [ %sp + 0x38 ]
4000a840:	81 e8 00 00 	restore 
4000a844:	81 c5 a0 08 	jmp  %l6 + 8
4000a848:	9c 10 00 15 	mov  %l5, %sp

4000a84c <leonbare_trapreturn_fast>:
4000a84c:	05 10 00 32 	sethi  %hi(0x4000c800), %g2
4000a850:	84 10 a3 28 	or  %g2, 0x328, %g2	! 4000cb28 <schedule_callback>
4000a854:	c4 00 80 00 	ld  [ %g2 ], %g2
4000a858:	80 a0 80 00 	cmp  %g2, %g0
4000a85c:	02 80 00 04 	be  4000a86c <leonbare_trapreturn_fast+0x20>
4000a860:	01 00 00 00 	nop 
4000a864:	9f c0 80 00 	call  %g2
4000a868:	92 03 a0 60 	add  %sp, 0x60, %o1
4000a86c:	81 8c 20 00 	mov  %l0, %psr
4000a870:	82 10 20 02 	mov  2, %g1
4000a874:	83 28 40 10 	sll  %g1, %l0, %g1
4000a878:	05 10 00 31 	sethi  %hi(0x4000c400), %g2
4000a87c:	c4 00 a3 04 	ld  [ %g2 + 0x304 ], %g2	! 4000c704 <_nwindows>
4000a880:	85 30 40 02 	srl  %g1, %g2, %g2
4000a884:	82 10 40 02 	or  %g1, %g2, %g1
4000a888:	85 50 00 00 	rd  %wim, %g2
4000a88c:	80 88 80 01 	btst  %g2, %g1
4000a890:	02 80 00 19 	be  4000a8f4 <leonbare_trapreturn_fast+0xa8>
4000a894:	83 28 a0 01 	sll  %g2, 1, %g1
4000a898:	07 10 00 31 	sethi  %hi(0x4000c400), %g3
4000a89c:	c6 00 e3 08 	ld  [ %g3 + 0x308 ], %g3	! 4000c708 <_nwindows_min1>
4000a8a0:	85 30 80 03 	srl  %g2, %g3, %g2
4000a8a4:	82 10 40 02 	or  %g1, %g2, %g1
4000a8a8:	82 08 60 ff 	and  %g1, 0xff, %g1
4000a8ac:	81 90 60 00 	mov  %g1, %wim
4000a8b0:	c2 03 a0 6c 	ld  [ %sp + 0x6c ], %g1
4000a8b4:	81 80 60 00 	mov  %g1, %y
4000a8b8:	c2 03 a0 74 	ld  [ %sp + 0x74 ], %g1
4000a8bc:	c4 1b a0 78 	ldd  [ %sp + 0x78 ], %g2
4000a8c0:	c8 1b a0 80 	ldd  [ %sp + 0x80 ], %g4
4000a8c4:	cc 1b a0 88 	ldd  [ %sp + 0x88 ], %g6
4000a8c8:	81 e8 00 00 	restore 
4000a8cc:	e0 1b a0 00 	ldd  [ %sp ], %l0
4000a8d0:	e4 1b a0 08 	ldd  [ %sp + 8 ], %l2
4000a8d4:	e8 1b a0 10 	ldd  [ %sp + 0x10 ], %l4
4000a8d8:	ec 1b a0 18 	ldd  [ %sp + 0x18 ], %l6
4000a8dc:	f0 1b a0 20 	ldd  [ %sp + 0x20 ], %i0
4000a8e0:	f4 1b a0 28 	ldd  [ %sp + 0x28 ], %i2
4000a8e4:	f8 1b a0 30 	ldd  [ %sp + 0x30 ], %i4
4000a8e8:	fc 1b a0 38 	ldd  [ %sp + 0x38 ], %fp
4000a8ec:	10 80 00 08 	b  4000a90c <leonbare_trapreturn_fast+0xc0>
4000a8f0:	81 e0 00 00 	save 
4000a8f4:	c2 03 a0 6c 	ld  [ %sp + 0x6c ], %g1
4000a8f8:	81 80 60 00 	mov  %g1, %y
4000a8fc:	c2 03 a0 74 	ld  [ %sp + 0x74 ], %g1
4000a900:	c4 1b a0 78 	ldd  [ %sp + 0x78 ], %g2
4000a904:	c8 1b a0 80 	ldd  [ %sp + 0x80 ], %g4
4000a908:	cc 1b a0 88 	ldd  [ %sp + 0x88 ], %g6
4000a90c:	81 8c 20 00 	mov  %l0, %psr
4000a910:	01 00 00 00 	nop 
4000a914:	01 00 00 00 	nop 
4000a918:	01 00 00 00 	nop 
4000a91c:	81 c4 40 00 	jmp  %l1
4000a920:	81 cc 80 00 	rett  %l2

4000a924 <__errno>:
4000a924:	03 10 00 2f 	sethi  %hi(0x4000bc00), %g1
4000a928:	81 c3 e0 08 	retl 
4000a92c:	d0 00 60 d8 	ld  [ %g1 + 0xd8 ], %o0	! 4000bcd8 <_impure_ptr>

4000a930 <__do_global_ctors_aux>:
4000a930:	9d e3 bf a0 	save  %sp, -96, %sp
4000a934:	21 10 00 2d 	sethi  %hi(0x4000b400), %l0
4000a938:	a0 14 23 18 	or  %l0, 0x318, %l0	! 4000b718 <__CTOR_END__>
4000a93c:	c2 04 3f fc 	ld  [ %l0 + -4 ], %g1
4000a940:	80 a0 7f ff 	cmp  %g1, -1
4000a944:	02 80 00 08 	be  4000a964 <__do_global_ctors_aux+0x34>
4000a948:	a0 04 3f fc 	add  %l0, -4, %l0
4000a94c:	9f c0 40 00 	call  %g1
4000a950:	a0 04 3f fc 	add  %l0, -4, %l0
4000a954:	c2 04 00 00 	ld  [ %l0 ], %g1
4000a958:	80 a0 7f ff 	cmp  %g1, -1
4000a95c:	12 bf ff fc 	bne  4000a94c <__do_global_ctors_aux+0x1c>
4000a960:	01 00 00 00 	nop 
4000a964:	81 c7 e0 08 	ret 
4000a968:	81 e8 00 00 	restore 

4000a96c <call___do_global_ctors_aux>:
4000a96c:	9d e3 bf a0 	save  %sp, -96, %sp
4000a970:	81 c7 e0 08 	ret 
4000a974:	81 e8 00 00 	restore 
	...

4000a980 <__EH_FRAME_BEGIN__>:
4000a980:	00 00 00 10 	unimp  0x10
4000a984:	00 00 00 00 	unimp  0
4000a988:	01 7a 52 00 	unknown
4000a98c:	04 7c 0f 01 	unknown
4000a990:	1b 0c 0e 00 	sethi  %hi(0x30380000), %o5
4000a994:	00 00 00 10 	unimp  0x10
4000a998:	00 00 00 18 	unimp  0x18
4000a99c:	ff ff 58 14 	unknown
4000a9a0:	00 00 00 08 	unimp  0x8
4000a9a4:	00 00 00 00 	unimp  0
4000a9a8:	00 00 00 10 	unimp  0x10
4000a9ac:	00 00 00 2c 	unimp  0x2c
4000a9b0:	ff ff 5c e8 	unknown
4000a9b4:	00 00 00 20 	unimp  0x20
4000a9b8:	00 00 00 00 	unimp  0
4000a9bc:	00 00 00 18 	unimp  0x18
4000a9c0:	00 00 00 40 	unimp  0x40
4000a9c4:	ff ff 5c f4 	unknown
4000a9c8:	00 00 00 3c 	unimp  0x3c
4000a9cc:	00 41 0d 1e 	unknown
4000a9d0:	2d 4a 09 0f 	unknown
4000a9d4:	1f 00 00 00 	sethi  %hi(0), %o7
4000a9d8:	00 00 00 18 	unimp  0x18
4000a9dc:	00 00 00 5c 	unimp  0x5c
4000a9e0:	ff ff 5d 14 	unknown
4000a9e4:	00 00 00 34 	unimp  0x34
4000a9e8:	00 41 0d 1e 	unknown
4000a9ec:	2d 48 09 0f 	unknown
4000a9f0:	1f 00 00 00 	sethi  %hi(0), %o7
4000a9f4:	00 00 00 10 	unimp  0x10
4000a9f8:	00 00 00 78 	unimp  0x78
4000a9fc:	ff ff 5d 2c 	unknown
4000aa00:	00 00 00 94 	unimp  0x94
4000aa04:	00 00 00 00 	unimp  0
4000aa08:	00 00 00 10 	unimp  0x10
4000aa0c:	00 00 00 8c 	unimp  0x8c
4000aa10:	ff ff 5d ac 	unknown
4000aa14:	00 00 00 1c 	unimp  0x1c
4000aa18:	00 00 00 00 	unimp  0
4000aa1c:	00 00 00 18 	unimp  0x18
4000aa20:	00 00 00 a0 	unimp  0xa0
4000aa24:	ff ff 5f 18 	unknown
4000aa28:	00 00 00 38 	unimp  0x38
4000aa2c:	00 41 0d 1e 	unknown
4000aa30:	2d 47 09 0f 	unknown
4000aa34:	1f 00 00 00 	sethi  %hi(0), %o7
4000aa38:	00 00 00 14 	unimp  0x14
4000aa3c:	00 00 00 bc 	unimp  0xbc
4000aa40:	ff ff 5f 34 	unknown
4000aa44:	00 00 1d ac 	unimp  0x1dac
4000aa48:	00 41 0d 1e 	unknown
4000aa4c:	2d 09 0f 1f 	sethi  %hi(0x243c7c00), %l6
4000aa50:	00 00 00 10 	unimp  0x10
4000aa54:	00 00 00 d4 	unimp  0xd4
4000aa58:	ff ff 7c c8 	unknown
4000aa5c:	00 00 00 2c 	unimp  0x2c
4000aa60:	00 00 00 00 	unimp  0
4000aa64:	00 00 00 18 	unimp  0x18
4000aa68:	00 00 00 e8 	unimp  0xe8
4000aa6c:	ff ff 7c e0 	unknown
4000aa70:	00 00 01 14 	unimp  0x114
4000aa74:	00 41 0d 1e 	unknown
4000aa78:	2d 49 09 0f 	unknown
4000aa7c:	1f 00 00 00 	sethi  %hi(0), %o7
4000aa80:	00 00 00 18 	unimp  0x18
4000aa84:	00 00 01 04 	unimp  0x104
4000aa88:	ff ff 7d d8 	unknown
4000aa8c:	00 00 00 60 	unimp  0x60
4000aa90:	00 41 0d 1e 	unknown
4000aa94:	2d 46 09 0f 	unknown
4000aa98:	1f 00 00 00 	sethi  %hi(0), %o7
4000aa9c:	00 00 00 10 	unimp  0x10
4000aaa0:	00 00 01 20 	unimp  0x120
4000aaa4:	ff ff 7e 1c 	unknown
4000aaa8:	00 00 00 2c 	unimp  0x2c
4000aaac:	00 00 00 00 	unimp  0
4000aab0:	00 00 00 18 	unimp  0x18
4000aab4:	00 00 01 34 	unimp  0x134
4000aab8:	ff ff 7e 34 	unknown
4000aabc:	00 00 01 38 	unimp  0x138
4000aac0:	00 41 0d 1e 	unknown
4000aac4:	2d 4d 09 0f 	unknown
4000aac8:	1f 00 00 00 	sethi  %hi(0), %o7
4000aacc:	00 00 00 10 	unimp  0x10
4000aad0:	00 00 01 50 	unimp  0x150
4000aad4:	ff ff 7f 50 	unknown
4000aad8:	00 00 00 34 	unimp  0x34
4000aadc:	00 00 00 00 	unimp  0
4000aae0:	00 00 00 18 	unimp  0x18
4000aae4:	00 00 01 64 	unimp  0x164
4000aae8:	ff ff 7f 70 	unknown
4000aaec:	00 00 03 f4 	unimp  0x3f4
4000aaf0:	00 41 0d 1e 	unknown
4000aaf4:	2d 41 09 0f 	unknown
4000aaf8:	1f 00 00 00 	sethi  %hi(0), %o7
4000aafc:	00 00 00 18 	unimp  0x18
4000ab00:	00 00 01 80 	unimp  0x180
4000ab04:	ff ff 83 48 	unknown
4000ab08:	00 00 01 34 	unimp  0x134
4000ab0c:	00 41 0d 1e 	unknown
4000ab10:	2d 49 09 0f 	unknown
4000ab14:	1f 00 00 00 	sethi  %hi(0), %o7
4000ab18:	00 00 00 18 	unimp  0x18
4000ab1c:	00 00 01 9c 	unimp  0x19c
4000ab20:	ff ff 84 60 	unknown
4000ab24:	00 00 01 2c 	unimp  0x12c
4000ab28:	00 41 0d 1e 	unknown
4000ab2c:	2d 41 09 0f 	unknown
4000ab30:	1f 00 00 00 	sethi  %hi(0), %o7
4000ab34:	00 00 00 18 	unimp  0x18
4000ab38:	00 00 01 b8 	unimp  0x1b8
4000ab3c:	ff ff 85 70 	unknown
4000ab40:	00 00 02 18 	unimp  0x218
4000ab44:	00 41 0d 1e 	unknown
4000ab48:	2d 4e 09 0f 	unknown
4000ab4c:	1f 00 00 00 	sethi  %hi(0), %o7
4000ab50:	00 00 00 18 	unimp  0x18
4000ab54:	00 00 01 d4 	unimp  0x1d4
4000ab58:	ff ff 87 6c 	unknown
4000ab5c:	00 00 14 2c 	unimp  0x142c
4000ab60:	00 41 0d 1e 	unknown
4000ab64:	2d 4e 09 0f 	unknown
4000ab68:	1f 00 00 00 	sethi  %hi(0), %o7
4000ab6c:	00 00 00 18 	unimp  0x18
4000ab70:	00 00 01 f0 	unimp  0x1f0
4000ab74:	ff ff 9b 7c 	unknown
4000ab78:	00 00 01 5c 	unimp  0x15c
4000ab7c:	00 41 0d 1e 	unknown
4000ab80:	2d 47 09 0f 	unknown
4000ab84:	1f 00 00 00 	sethi  %hi(0), %o7
4000ab88:	00 00 00 10 	unimp  0x10
4000ab8c:	00 00 02 0c 	unimp  0x20c
4000ab90:	ff ff 9c bc 	unknown
4000ab94:	00 00 00 18 	unimp  0x18
4000ab98:	00 00 00 00 	unimp  0
4000ab9c:	00 00 00 10 	unimp  0x10
4000aba0:	00 00 02 20 	unimp  0x220
4000aba4:	ff ff 9c c0 	unknown
4000aba8:	00 00 00 18 	unimp  0x18
4000abac:	00 00 00 00 	unimp  0
4000abb0:	00 00 00 18 	unimp  0x18
4000abb4:	00 00 02 34 	unimp  0x234
4000abb8:	ff ff 9c c4 	unknown
4000abbc:	00 00 00 24 	unimp  0x24
4000abc0:	00 41 0d 1e 	unknown
4000abc4:	2d 44 09 0f 	unknown
4000abc8:	1f 00 00 00 	sethi  %hi(0), %o7
4000abcc:	00 00 00 10 	unimp  0x10
4000abd0:	00 00 02 50 	unimp  0x250
4000abd4:	ff ff 9c cc 	unknown
4000abd8:	00 00 00 18 	unimp  0x18
4000abdc:	00 00 00 00 	unimp  0
4000abe0:	00 00 00 18 	unimp  0x18
4000abe4:	00 00 02 64 	unimp  0x264
4000abe8:	ff ff 9c d0 	unknown
4000abec:	00 00 00 24 	unimp  0x24
4000abf0:	00 41 0d 1e 	unknown
4000abf4:	2d 43 09 0f 	unknown
4000abf8:	1f 00 00 00 	sethi  %hi(0), %o7
4000abfc:	00 00 00 18 	unimp  0x18
4000ac00:	00 00 02 80 	unimp  0x280
4000ac04:	ff ff 9c d8 	unknown
4000ac08:	00 00 00 24 	unimp  0x24
4000ac0c:	00 41 0d 1e 	unknown
4000ac10:	2d 44 09 0f 	unknown
4000ac14:	1f 00 00 00 	sethi  %hi(0), %o7
4000ac18:	00 00 00 10 	unimp  0x10
4000ac1c:	00 00 02 9c 	unimp  0x29c
4000ac20:	ff ff 9c e0 	unknown
4000ac24:	00 00 00 18 	unimp  0x18
4000ac28:	00 00 00 00 	unimp  0
4000ac2c:	00 00 00 14 	unimp  0x14
4000ac30:	00 00 02 b0 	unimp  0x2b0
4000ac34:	ff ff 9c e4 	unknown
4000ac38:	00 00 00 20 	unimp  0x20
4000ac3c:	00 41 0d 1e 	unknown
4000ac40:	2d 09 0f 1f 	sethi  %hi(0x243c7c00), %l6
4000ac44:	00 00 00 18 	unimp  0x18
4000ac48:	00 00 02 c8 	unimp  0x2c8
4000ac4c:	ff ff 9c ec 	unknown
4000ac50:	00 00 00 8c 	unimp  0x8c
4000ac54:	00 41 0d 1e 	unknown
4000ac58:	2d 56 09 0f 	unknown
4000ac5c:	1f 00 00 00 	sethi  %hi(0), %o7
4000ac60:	00 00 00 18 	unimp  0x18
4000ac64:	00 00 02 e4 	unimp  0x2e4
4000ac68:	ff ff 9d 5c 	unknown
4000ac6c:	00 00 00 6c 	unimp  0x6c
4000ac70:	00 41 0d 1e 	unknown
4000ac74:	2d 4d 09 0f 	unknown
4000ac78:	1f 00 00 00 	sethi  %hi(0), %o7
4000ac7c:	00 00 00 18 	unimp  0x18
4000ac80:	00 00 03 00 	unimp  0x300
4000ac84:	ff ff 9d ac 	unknown
4000ac88:	00 00 00 50 	unimp  0x50
4000ac8c:	00 41 0d 1e 	unknown
4000ac90:	2d 46 09 0f 	unknown
4000ac94:	1f 00 00 00 	sethi  %hi(0), %o7
4000ac98:	00 00 00 14 	unimp  0x14
4000ac9c:	00 00 03 1c 	unimp  0x31c
4000aca0:	ff ff 9d e0 	unknown
4000aca4:	00 00 01 1c 	unimp  0x11c
4000aca8:	00 41 0d 1e 	unknown
4000acac:	2d 09 0f 1f 	sethi  %hi(0x243c7c00), %l6
4000acb0:	00 00 00 14 	unimp  0x14
4000acb4:	00 00 03 34 	unimp  0x334
4000acb8:	ff ff 9e e4 	unknown
4000acbc:	00 00 00 ec 	unimp  0xec
4000acc0:	00 41 0d 1e 	unknown
4000acc4:	2d 09 0f 1f 	sethi  %hi(0x243c7c00), %l6
4000acc8:	00 00 00 18 	unimp  0x18
4000accc:	00 00 03 4c 	unimp  0x34c
4000acd0:	ff ff 9f b8 	unknown
4000acd4:	00 00 02 9c 	unimp  0x29c
4000acd8:	00 41 0d 1e 	unknown
4000acdc:	2d 43 09 0f 	unknown
4000ace0:	1f 00 00 00 	sethi  %hi(0), %o7
4000ace4:	00 00 00 18 	unimp  0x18
4000ace8:	00 00 03 68 	unimp  0x368
4000acec:	ff ff a2 38 	unknown
4000acf0:	00 00 04 20 	unimp  0x420
4000acf4:	00 41 0d 1e 	unknown
4000acf8:	2d 59 09 0f 	unknown
4000acfc:	1f 00 00 00 	sethi  %hi(0), %o7
4000ad00:	00 00 00 14 	unimp  0x14
4000ad04:	00 00 03 84 	unimp  0x384
4000ad08:	ff ff a6 3c 	unknown
4000ad0c:	00 00 00 e4 	unimp  0xe4
4000ad10:	00 41 0d 1e 	unknown
4000ad14:	2d 09 0f 1f 	sethi  %hi(0x243c7c00), %l6
4000ad18:	00 00 00 14 	unimp  0x14
4000ad1c:	00 00 03 9c 	unimp  0x39c
4000ad20:	ff ff a7 08 	unknown
4000ad24:	00 00 00 e0 	unimp  0xe0
4000ad28:	00 41 0d 1e 	unknown
4000ad2c:	2d 09 0f 1f 	sethi  %hi(0x243c7c00), %l6
4000ad30:	00 00 00 10 	unimp  0x10
4000ad34:	00 00 03 b4 	unimp  0x3b4
4000ad38:	ff ff a7 d0 	unknown
4000ad3c:	00 00 00 0c 	unimp  0xc
4000ad40:	00 00 00 00 	unimp  0
4000ad44:	00 00 00 10 	unimp  0x10
4000ad48:	00 00 03 c8 	unimp  0x3c8
4000ad4c:	ff ff a7 c8 	unknown
4000ad50:	00 00 00 0c 	unimp  0xc
4000ad54:	00 00 00 00 	unimp  0
4000ad58:	00 00 00 10 	unimp  0x10
4000ad5c:	00 00 03 dc 	unimp  0x3dc
4000ad60:	ff ff a7 c0 	unknown
4000ad64:	00 00 00 0c 	unimp  0xc
4000ad68:	00 00 00 00 	unimp  0
4000ad6c:	00 00 00 18 	unimp  0x18
4000ad70:	00 00 03 f0 	unimp  0x3f0
4000ad74:	ff ff a7 b8 	unknown
4000ad78:	00 00 00 68 	unimp  0x68
4000ad7c:	00 41 0d 1e 	unknown
4000ad80:	2d 47 09 0f 	unknown
4000ad84:	1f 00 00 00 	sethi  %hi(0), %o7
4000ad88:	00 00 00 10 	unimp  0x10
4000ad8c:	00 00 04 0c 	unimp  0x40c
4000ad90:	ff ff a8 04 	unknown
4000ad94:	00 00 00 24 	unimp  0x24
4000ad98:	00 00 00 00 	unimp  0
4000ad9c:	00 00 00 18 	unimp  0x18
4000ada0:	00 00 04 20 	unimp  0x420
4000ada4:	ff ff a8 14 	unknown
4000ada8:	00 00 01 60 	unimp  0x160
4000adac:	00 41 0d 1e 	unknown
4000adb0:	2d 49 09 0f 	unknown
4000adb4:	1f 00 00 00 	sethi  %hi(0), %o7
4000adb8:	00 00 00 10 	unimp  0x10
4000adbc:	00 00 04 3c 	unimp  0x43c
4000adc0:	ff ff a9 58 	unknown
4000adc4:	00 00 00 1c 	unimp  0x1c
4000adc8:	00 00 00 00 	unimp  0
4000adcc:	00 00 00 10 	unimp  0x10
4000add0:	00 00 04 50 	unimp  0x450
4000add4:	ff ff a9 60 	unknown
4000add8:	00 00 00 1c 	unimp  0x1c
4000addc:	00 00 00 00 	unimp  0
4000ade0:	00 00 00 18 	unimp  0x18
4000ade4:	00 00 04 64 	unimp  0x464
4000ade8:	ff ff a9 68 	unknown
4000adec:	00 00 06 d8 	unimp  0x6d8
4000adf0:	00 41 0d 1e 	unknown
4000adf4:	2d 4c 09 0f 	unknown
4000adf8:	1f 00 00 00 	sethi  %hi(0), %o7
4000adfc:	00 00 00 18 	unimp  0x18
4000ae00:	00 00 04 80 	unimp  0x480
4000ae04:	ff ff b0 24 	unknown
4000ae08:	00 00 00 f0 	unimp  0xf0
4000ae0c:	00 41 0d 1e 	unknown
4000ae10:	2d 5b 09 0f 	unknown
4000ae14:	1f 00 00 00 	sethi  %hi(0), %o7
4000ae18:	00 00 00 18 	unimp  0x18
4000ae1c:	00 00 04 9c 	unimp  0x49c
4000ae20:	ff ff b0 f8 	unknown
4000ae24:	00 00 00 fc 	unimp  0xfc
4000ae28:	00 41 0d 1e 	unknown
4000ae2c:	2d 54 09 0f 	unknown
4000ae30:	1f 00 00 00 	sethi  %hi(0), %o7
4000ae34:	00 00 00 18 	unimp  0x18
4000ae38:	00 00 04 b8 	unimp  0x4b8
4000ae3c:	ff ff b1 d8 	unknown
4000ae40:	00 00 01 50 	unimp  0x150
4000ae44:	00 41 0d 1e 	unknown
4000ae48:	2d 56 09 0f 	unknown
4000ae4c:	1f 00 00 00 	sethi  %hi(0), %o7
4000ae50:	00 00 00 18 	unimp  0x18
4000ae54:	00 00 04 d4 	unimp  0x4d4
4000ae58:	ff ff b3 0c 	unknown
4000ae5c:	00 00 00 dc 	unimp  0xdc
4000ae60:	00 41 0d 1e 	unknown
4000ae64:	2d 76 09 0f 	unknown
4000ae68:	1f 00 00 00 	sethi  %hi(0), %o7
4000ae6c:	00 00 00 10 	unimp  0x10
4000ae70:	00 00 04 f0 	unimp  0x4f0
4000ae74:	ff ff b3 cc 	unknown
4000ae78:	00 00 00 18 	unimp  0x18
4000ae7c:	00 00 00 00 	unimp  0
4000ae80:	00 00 00 10 	unimp  0x10
4000ae84:	00 00 05 04 	unimp  0x504
4000ae88:	ff ff b3 d0 	unknown
4000ae8c:	00 00 00 18 	unimp  0x18
4000ae90:	00 00 00 00 	unimp  0
4000ae94:	00 00 00 10 	unimp  0x10
4000ae98:	00 00 05 18 	unimp  0x518
4000ae9c:	ff ff b3 d4 	unknown
4000aea0:	00 00 00 2c 	unimp  0x2c
4000aea4:	00 00 00 00 	unimp  0
4000aea8:	00 00 00 10 	unimp  0x10
4000aeac:	00 00 05 2c 	unimp  0x52c
4000aeb0:	ff ff b3 ec 	unknown
4000aeb4:	00 00 00 84 	unimp  0x84
4000aeb8:	00 00 00 00 	unimp  0
4000aebc:	00 00 00 10 	unimp  0x10
4000aec0:	00 00 05 40 	unimp  0x540
4000aec4:	ff ff b4 5c 	unknown
4000aec8:	00 00 00 e4 	unimp  0xe4
4000aecc:	00 00 00 00 	unimp  0
4000aed0:	00 00 00 18 	unimp  0x18
4000aed4:	00 00 05 54 	unimp  0x554
4000aed8:	ff ff b5 2c 	unknown
4000aedc:	00 00 00 74 	unimp  0x74
4000aee0:	00 41 0d 1e 	unknown
4000aee4:	2d 57 09 0f 	unknown
4000aee8:	1f 00 00 00 	sethi  %hi(0), %o7
4000aeec:	00 00 00 10 	unimp  0x10
4000aef0:	00 00 05 70 	unimp  0x570
4000aef4:	ff ff b5 84 	unknown
4000aef8:	00 00 00 74 	unimp  0x74
4000aefc:	00 00 00 00 	unimp  0
4000af00:	00 00 00 18 	unimp  0x18
4000af04:	00 00 05 84 	unimp  0x584
4000af08:	ff ff b5 e4 	unknown
4000af0c:	00 00 00 f4 	unimp  0xf4
4000af10:	00 41 0d 1e 	unknown
4000af14:	2d 44 09 0f 	unknown
4000af18:	1f 00 00 00 	sethi  %hi(0), %o7
4000af1c:	00 00 00 18 	unimp  0x18
4000af20:	00 00 05 a0 	unimp  0x5a0
4000af24:	ff ff b6 bc 	unknown
4000af28:	00 00 00 9c 	unimp  0x9c
4000af2c:	00 41 0d 1e 	unknown
4000af30:	2d 41 09 0f 	unknown
4000af34:	1f 00 00 00 	sethi  %hi(0), %o7
4000af38:	00 00 00 18 	unimp  0x18
4000af3c:	00 00 05 bc 	unimp  0x5bc
4000af40:	ff ff b7 3c 	unknown
4000af44:	00 00 00 58 	unimp  0x58
4000af48:	00 41 0d 1e 	unknown
4000af4c:	2d 46 09 0f 	unknown
4000af50:	1f 00 00 00 	sethi  %hi(0), %o7
4000af54:	00 00 00 18 	unimp  0x18
4000af58:	00 00 05 d8 	unimp  0x5d8
4000af5c:	ff ff b7 78 	unknown
4000af60:	00 00 00 a8 	unimp  0xa8
4000af64:	00 41 0d 1e 	unknown
4000af68:	2d 4f 09 0f 	unknown
4000af6c:	1f 00 00 00 	sethi  %hi(0), %o7
4000af70:	00 00 00 18 	unimp  0x18
4000af74:	00 00 05 f4 	unimp  0x5f4
4000af78:	ff ff b8 04 	unknown
4000af7c:	00 00 01 28 	unimp  0x128
4000af80:	00 41 0d 1e 	unknown
4000af84:	2d 41 09 0f 	unknown
4000af88:	1f 00 00 00 	sethi  %hi(0), %o7
4000af8c:	00 00 00 18 	unimp  0x18
4000af90:	00 00 06 10 	unimp  0x610
4000af94:	ff ff b9 10 	unknown
4000af98:	00 00 01 b4 	unimp  0x1b4
4000af9c:	00 41 0d 1e 	unknown
4000afa0:	2d 4a 09 0f 	unknown
4000afa4:	1f 00 00 00 	sethi  %hi(0), %o7
4000afa8:	00 00 00 18 	unimp  0x18
4000afac:	00 00 06 2c 	unimp  0x62c
4000afb0:	ff ff ba a8 	unknown
4000afb4:	00 00 01 34 	unimp  0x134
4000afb8:	00 41 0d 1e 	unknown
4000afbc:	2d 4d 09 0f 	unknown
4000afc0:	1f 00 00 00 	sethi  %hi(0), %o7
4000afc4:	00 00 00 18 	unimp  0x18
4000afc8:	00 00 06 48 	unimp  0x648
4000afcc:	ff ff bb c0 	unknown
4000afd0:	00 00 02 20 	unimp  0x220
4000afd4:	00 41 0d 1e 	unknown
4000afd8:	2d 4e 09 0f 	unknown
4000afdc:	1f 00 00 00 	sethi  %hi(0), %o7
4000afe0:	00 00 00 18 	unimp  0x18
4000afe4:	00 00 06 64 	unimp  0x664
4000afe8:	ff ff bd c4 	unknown
4000afec:	00 00 00 24 	unimp  0x24
4000aff0:	00 41 0d 1e 	unknown
4000aff4:	2d 41 09 0f 	unknown
4000aff8:	1f 00 00 00 	sethi  %hi(0), %o7
4000affc:	00 00 00 18 	unimp  0x18
4000b000:	00 00 06 80 	unimp  0x680
4000b004:	ff ff bd cc 	unknown
4000b008:	00 00 00 e8 	unimp  0xe8
4000b00c:	00 41 0d 1e 	unknown
4000b010:	2d 47 09 0f 	unknown
4000b014:	1f 00 00 00 	sethi  %hi(0), %o7
4000b018:	00 00 00 18 	unimp  0x18
4000b01c:	00 00 06 9c 	unimp  0x69c
4000b020:	ff ff be 98 	unknown
4000b024:	00 00 01 14 	unimp  0x114
4000b028:	00 41 0d 1e 	unknown
4000b02c:	2d 47 09 0f 	unknown
4000b030:	1f 00 00 00 	sethi  %hi(0), %o7
4000b034:	00 00 00 18 	unimp  0x18
4000b038:	00 00 06 b8 	unimp  0x6b8
4000b03c:	ff ff bf 90 	unknown
4000b040:	00 00 00 d0 	unimp  0xd0
4000b044:	00 41 0d 1e 	unknown
4000b048:	2d 41 09 0f 	unknown
4000b04c:	1f 00 00 00 	sethi  %hi(0), %o7
4000b050:	00 00 00 18 	unimp  0x18
4000b054:	00 00 06 d4 	unimp  0x6d4
4000b058:	ff ff c0 44 	unknown
4000b05c:	00 00 04 f8 	unimp  0x4f8
4000b060:	00 41 0d 1e 	unknown
4000b064:	2d 43 09 0f 	unknown
4000b068:	1f 00 00 00 	sethi  %hi(0), %o7
4000b06c:	00 00 00 18 	unimp  0x18
4000b070:	00 00 06 f0 	unimp  0x6f0
4000b074:	ff ff c5 20 	unknown
4000b078:	00 00 00 40 	unimp  0x40
4000b07c:	00 41 0d 1e 	unknown
4000b080:	2d 42 09 0f 	unknown
4000b084:	1f 00 00 00 	sethi  %hi(0), %o7
4000b088:	00 00 00 10 	unimp  0x10
4000b08c:	00 00 07 0c 	unimp  0x70c
4000b090:	ff ff c5 44 	unknown
4000b094:	00 00 00 34 	unimp  0x34
4000b098:	00 00 00 00 	unimp  0
4000b09c:	00 00 00 10 	unimp  0x10
4000b0a0:	00 00 07 20 	unimp  0x720
4000b0a4:	ff ff c5 64 	unknown
4000b0a8:	00 00 00 28 	unimp  0x28
4000b0ac:	00 00 00 00 	unimp  0
4000b0b0:	00 00 00 10 	unimp  0x10
4000b0b4:	00 00 07 34 	unimp  0x734
4000b0b8:	ff ff c5 78 	unknown
4000b0bc:	00 00 00 1c 	unimp  0x1c
4000b0c0:	00 00 00 00 	unimp  0
4000b0c4:	00 00 00 18 	unimp  0x18
4000b0c8:	00 00 07 48 	unimp  0x748
4000b0cc:	ff ff c5 80 	unknown
4000b0d0:	00 00 00 58 	unimp  0x58
4000b0d4:	00 41 0d 1e 	unknown
4000b0d8:	2d 44 09 0f 	unknown
4000b0dc:	1f 00 00 00 	sethi  %hi(0), %o7
4000b0e0:	00 00 00 18 	unimp  0x18
4000b0e4:	00 00 07 64 	unimp  0x764
4000b0e8:	ff ff c5 bc 	unknown
4000b0ec:	00 00 00 58 	unimp  0x58
4000b0f0:	00 41 0d 1e 	unknown
4000b0f4:	2d 4a 09 0f 	unknown
4000b0f8:	1f 00 00 00 	sethi  %hi(0), %o7
4000b0fc:	00 00 00 18 	unimp  0x18
4000b100:	00 00 07 80 	unimp  0x780
4000b104:	ff ff c5 f8 	unknown
4000b108:	00 00 00 50 	unimp  0x50
4000b10c:	00 41 0d 1e 	unknown
4000b110:	2d 44 09 0f 	unknown
4000b114:	1f 00 00 00 	sethi  %hi(0), %o7
4000b118:	00 00 00 10 	unimp  0x10
4000b11c:	00 00 07 9c 	unimp  0x79c
4000b120:	ff ff c6 2c 	unknown
4000b124:	00 00 00 e8 	unimp  0xe8
4000b128:	00 00 00 00 	unimp  0
4000b12c:	00 00 00 18 	unimp  0x18
4000b130:	00 00 07 b0 	unimp  0x7b0
4000b134:	ff ff c7 00 	unknown
4000b138:	00 00 00 94 	unimp  0x94
4000b13c:	00 41 0d 1e 	unknown
4000b140:	2d 5d 09 0f 	unknown
4000b144:	1f 00 00 00 	sethi  %hi(0), %o7
4000b148:	00 00 00 18 	unimp  0x18
4000b14c:	00 00 07 cc 	unimp  0x7cc
4000b150:	ff ff c7 78 	unknown
4000b154:	00 00 00 48 	unimp  0x48
4000b158:	00 41 0d 1e 	unknown
4000b15c:	2d 44 09 0f 	unknown
4000b160:	1f 00 00 00 	sethi  %hi(0), %o7
4000b164:	00 00 00 18 	unimp  0x18
4000b168:	00 00 07 e8 	unimp  0x7e8
4000b16c:	ff ff c7 a4 	unknown
4000b170:	00 00 00 a0 	unimp  0xa0
4000b174:	00 41 0d 1e 	unknown
4000b178:	2d 41 09 0f 	unknown
4000b17c:	1f 00 00 00 	sethi  %hi(0), %o7
4000b180:	00 00 00 18 	unimp  0x18
4000b184:	00 00 08 04 	unimp  0x804
4000b188:	ff ff c8 28 	unknown
4000b18c:	00 00 00 40 	unimp  0x40
4000b190:	00 41 0d 1e 	unknown
4000b194:	2d 42 09 0f 	unknown
4000b198:	1f 00 00 00 	sethi  %hi(0), %o7
4000b19c:	00 00 00 18 	unimp  0x18
4000b1a0:	00 00 08 20 	unimp  0x820
4000b1a4:	ff ff c8 4c 	unknown
4000b1a8:	00 00 01 70 	unimp  0x170
4000b1ac:	00 41 0d 1e 	unknown
4000b1b0:	2d 43 09 0f 	unknown
4000b1b4:	1f 00 00 00 	sethi  %hi(0), %o7
4000b1b8:	00 00 00 10 	unimp  0x10
4000b1bc:	00 00 08 3c 	unimp  0x83c
4000b1c0:	ff ff c9 a0 	unknown
4000b1c4:	00 00 00 1c 	unimp  0x1c
4000b1c8:	00 00 00 00 	unimp  0
4000b1cc:	00 00 00 18 	unimp  0x18
4000b1d0:	00 00 08 50 	unimp  0x850
4000b1d4:	ff ff c9 a8 	unknown
4000b1d8:	00 00 00 44 	unimp  0x44
4000b1dc:	00 41 0d 1e 	unknown
4000b1e0:	2d 43 09 0f 	unknown
4000b1e4:	1f 00 00 00 	sethi  %hi(0), %o7
4000b1e8:	00 00 00 18 	unimp  0x18
4000b1ec:	00 00 08 6c 	unimp  0x86c
4000b1f0:	ff ff c9 d0 	unknown
4000b1f4:	00 00 00 48 	unimp  0x48
4000b1f8:	00 41 0d 1e 	unknown
4000b1fc:	2d 44 09 0f 	unknown
4000b200:	1f 00 00 00 	sethi  %hi(0), %o7
4000b204:	00 00 00 18 	unimp  0x18
4000b208:	00 00 08 88 	unimp  0x888
4000b20c:	ff ff c9 fc 	unknown
4000b210:	00 00 00 48 	unimp  0x48
4000b214:	00 41 0d 1e 	unknown
4000b218:	2d 44 09 0f 	unknown
4000b21c:	1f 00 00 00 	sethi  %hi(0), %o7
4000b220:	00 00 00 18 	unimp  0x18
4000b224:	00 00 08 a4 	unimp  0x8a4
4000b228:	ff ff ca 28 	unknown
4000b22c:	00 00 00 8c 	unimp  0x8c
4000b230:	00 41 0d 1e 	unknown
4000b234:	2d 4f 09 0f 	unknown
4000b238:	1f 00 00 00 	sethi  %hi(0), %o7
4000b23c:	00 00 00 18 	unimp  0x18
4000b240:	00 00 08 c0 	unimp  0x8c0
4000b244:	ff ff ca 98 	unknown
4000b248:	00 00 00 28 	unimp  0x28
4000b24c:	00 41 0d 1e 	unknown
4000b250:	2d 44 09 0f 	unknown
4000b254:	1f 00 00 00 	sethi  %hi(0), %o7
4000b258:	00 00 00 18 	unimp  0x18
4000b25c:	00 00 08 dc 	unimp  0x8dc
4000b260:	ff ff ca a4 	unknown
4000b264:	00 00 01 04 	unimp  0x104
4000b268:	00 41 0d 1e 	unknown
4000b26c:	2d 45 09 0f 	unknown
4000b270:	1f 00 00 00 	sethi  %hi(0), %o7
4000b274:	00 00 00 18 	unimp  0x18
4000b278:	00 00 08 f8 	unimp  0x8f8
4000b27c:	ff ff d1 d4 	unknown
4000b280:	00 00 03 c8 	unimp  0x3c8
4000b284:	00 41 0d 1e 	unknown
4000b288:	2d 44 09 0f 	unknown
4000b28c:	1f 00 00 00 	sethi  %hi(0), %o7
4000b290:	00 00 00 18 	unimp  0x18
4000b294:	00 00 09 14 	unimp  0x914
4000b298:	ff ff d5 80 	unknown
4000b29c:	00 00 00 5c 	unimp  0x5c
4000b2a0:	00 41 0d 1e 	unknown
4000b2a4:	2d 44 09 0f 	unknown
4000b2a8:	1f 00 00 00 	sethi  %hi(0), %o7
4000b2ac:	00 00 00 18 	unimp  0x18
4000b2b0:	00 00 09 30 	unimp  0x930
4000b2b4:	ff ff d5 c0 	unknown
4000b2b8:	00 00 00 50 	unimp  0x50
4000b2bc:	00 41 0d 1e 	unknown
4000b2c0:	2d 44 09 0f 	unknown
4000b2c4:	1f 00 00 00 	sethi  %hi(0), %o7
4000b2c8:	00 00 00 18 	unimp  0x18
4000b2cc:	00 00 09 4c 	unimp  0x94c
4000b2d0:	ff ff d5 f4 	unknown
4000b2d4:	00 00 03 64 	unimp  0x364
4000b2d8:	00 41 0d 1e 	unknown
4000b2dc:	2d 44 09 0f 	unknown
4000b2e0:	1f 00 00 00 	sethi  %hi(0), %o7
4000b2e4:	00 00 00 18 	unimp  0x18
4000b2e8:	00 00 09 68 	unimp  0x968
4000b2ec:	ff ff d9 3c 	unknown
4000b2f0:	00 00 02 3c 	unimp  0x23c
4000b2f4:	00 41 0d 1e 	unknown
4000b2f8:	2d 44 09 0f 	unknown
4000b2fc:	1f 00 00 00 	sethi  %hi(0), %o7
4000b300:	00 00 00 18 	unimp  0x18
4000b304:	00 00 09 84 	unimp  0x984
4000b308:	ff ff db 5c 	unknown
4000b30c:	00 00 00 64 	unimp  0x64
4000b310:	00 41 0d 1e 	unknown
4000b314:	2d 44 09 0f 	unknown
4000b318:	1f 00 00 00 	sethi  %hi(0), %o7
4000b31c:	00 00 00 18 	unimp  0x18
4000b320:	00 00 09 a0 	unimp  0x9a0
4000b324:	ff ff db a4 	unknown
4000b328:	00 00 00 64 	unimp  0x64
4000b32c:	00 41 0d 1e 	unknown
4000b330:	2d 44 09 0f 	unknown
4000b334:	1f 00 00 00 	sethi  %hi(0), %o7
4000b338:	00 00 00 18 	unimp  0x18
4000b33c:	00 00 09 bc 	unimp  0x9bc
4000b340:	ff ff db ec 	unknown
4000b344:	00 00 00 64 	unimp  0x64
4000b348:	00 41 0d 1e 	unknown
4000b34c:	2d 44 09 0f 	unknown
4000b350:	1f 00 00 00 	sethi  %hi(0), %o7
4000b354:	00 00 00 18 	unimp  0x18
4000b358:	00 00 09 d8 	unimp  0x9d8
4000b35c:	ff ff dc 34 	unknown
4000b360:	00 00 00 64 	unimp  0x64
4000b364:	00 41 0d 1e 	unknown
4000b368:	2d 44 09 0f 	unknown
4000b36c:	1f 00 00 00 	sethi  %hi(0), %o7
4000b370:	00 00 00 18 	unimp  0x18
4000b374:	00 00 09 f4 	unimp  0x9f4
4000b378:	ff ff dc 7c 	unknown
4000b37c:	00 00 00 64 	unimp  0x64
4000b380:	00 41 0d 1e 	unknown
4000b384:	2d 44 09 0f 	unknown
4000b388:	1f 00 00 00 	sethi  %hi(0), %o7
4000b38c:	00 00 00 18 	unimp  0x18
4000b390:	00 00 0a 10 	unimp  0xa10
4000b394:	ff ff dc c4 	unknown
4000b398:	00 00 00 d8 	unimp  0xd8
4000b39c:	00 41 0d 1e 	unknown
4000b3a0:	2d 48 09 0f 	unknown
4000b3a4:	1f 00 00 00 	sethi  %hi(0), %o7
4000b3a8:	00 00 00 18 	unimp  0x18
4000b3ac:	00 00 0a 2c 	unimp  0xa2c
4000b3b0:	ff ff dd 80 	unknown
4000b3b4:	00 00 00 dc 	unimp  0xdc
4000b3b8:	00 41 0d 1e 	unknown
4000b3bc:	2d 42 09 0f 	unknown
4000b3c0:	1f 00 00 00 	sethi  %hi(0), %o7
4000b3c4:	00 00 00 18 	unimp  0x18
4000b3c8:	00 00 0a 48 	unimp  0xa48
4000b3cc:	ff ff de 40 	unknown
4000b3d0:	00 00 01 3c 	unimp  0x13c
4000b3d4:	00 41 0d 1e 	unknown
4000b3d8:	2d 4a 09 0f 	unknown
4000b3dc:	1f 00 00 00 	sethi  %hi(0), %o7
4000b3e0:	00 00 00 18 	unimp  0x18
4000b3e4:	00 00 0a 64 	unimp  0xa64
4000b3e8:	ff ff df 60 	unknown
4000b3ec:	00 00 00 cc 	unimp  0xcc
4000b3f0:	00 41 0d 1e 	unknown
4000b3f4:	2d 69 09 0f 	unknown
4000b3f8:	1f 00 00 00 	sethi  %hi(0), %o7
4000b3fc:	00 00 00 10 	unimp  0x10
4000b400:	00 00 0a 80 	unimp  0xa80
4000b404:	ff ff e0 10 	unknown
4000b408:	00 00 00 3c 	unimp  0x3c
4000b40c:	00 00 00 00 	unimp  0
4000b410:	00 00 00 10 	unimp  0x10
4000b414:	00 00 0a 94 	unimp  0xa94
4000b418:	ff ff e0 38 	unknown
4000b41c:	00 00 00 78 	unimp  0x78
4000b420:	00 00 00 00 	unimp  0
4000b424:	00 00 00 18 	unimp  0x18
4000b428:	00 00 0a a8 	unimp  0xaa8
4000b42c:	ff ff e0 9c 	unknown
4000b430:	00 00 02 a8 	unimp  0x2a8
4000b434:	00 41 0d 1e 	unknown
4000b438:	2d 79 09 0f 	unknown
4000b43c:	1f 00 00 00 	sethi  %hi(0), %o7
4000b440:	00 00 00 18 	unimp  0x18
4000b444:	00 00 0a c4 	unimp  0xac4
4000b448:	ff ff e3 28 	unknown
4000b44c:	00 00 01 3c 	unimp  0x13c
4000b450:	00 41 0d 1e 	unknown
4000b454:	2d 69 09 0f 	unknown
4000b458:	1f 00 00 00 	sethi  %hi(0), %o7
4000b45c:	00 00 00 18 	unimp  0x18
4000b460:	00 00 0a e0 	unimp  0xae0
4000b464:	ff ff e4 48 	unknown
4000b468:	00 00 01 38 	unimp  0x138
4000b46c:	00 41 0d 1e 	unknown
4000b470:	2d 44 09 0f 	unknown
4000b474:	1f 00 00 00 	sethi  %hi(0), %o7
4000b478:	00 00 00 10 	unimp  0x10
4000b47c:	00 00 0a fc 	unimp  0xafc
4000b480:	ff ff e5 64 	unknown
4000b484:	00 00 00 40 	unimp  0x40
4000b488:	00 00 00 00 	unimp  0
4000b48c:	00 00 00 10 	unimp  0x10
4000b490:	00 00 0b 10 	unimp  0xb10
4000b494:	ff ff e5 90 	unknown
4000b498:	00 00 00 40 	unimp  0x40
4000b49c:	00 00 00 00 	unimp  0
4000b4a0:	00 00 00 10 	unimp  0x10
4000b4a4:	00 00 0b 24 	unimp  0xb24
4000b4a8:	ff ff e5 bc 	unknown
4000b4ac:	00 00 00 08 	unimp  0x8
4000b4b0:	00 00 00 00 	unimp  0
4000b4b4:	00 00 00 10 	unimp  0x10
4000b4b8:	00 00 0b 38 	unimp  0xb38
4000b4bc:	ff ff e5 b0 	unknown
4000b4c0:	00 00 00 14 	unimp  0x14
4000b4c4:	00 00 00 00 	unimp  0
4000b4c8:	00 00 00 10 	unimp  0x10
4000b4cc:	00 00 0b 4c 	unimp  0xb4c
4000b4d0:	ff ff e5 b0 	unknown
4000b4d4:	00 00 00 08 	unimp  0x8
4000b4d8:	00 00 00 00 	unimp  0
4000b4dc:	00 00 00 14 	unimp  0x14
4000b4e0:	00 00 0b 60 	unimp  0xb60
4000b4e4:	ff ff e5 a4 	unknown
4000b4e8:	00 00 00 1c 	unimp  0x1c
4000b4ec:	00 41 0d 1e 	unknown
4000b4f0:	2d 09 0f 1f 	sethi  %hi(0x243c7c00), %l6
4000b4f4:	00 00 00 18 	unimp  0x18
4000b4f8:	00 00 0b 78 	unimp  0xb78
4000b4fc:	ff ff e5 a8 	unknown
4000b500:	00 00 00 5c 	unimp  0x5c
4000b504:	00 41 0d 1e 	unknown
4000b508:	2d 44 09 0f 	unknown
4000b50c:	1f 00 00 00 	sethi  %hi(0), %o7
4000b510:	00 00 00 10 	unimp  0x10
4000b514:	00 00 0b 94 	unimp  0xb94
4000b518:	ff ff e5 e8 	unknown
4000b51c:	00 00 00 3c 	unimp  0x3c
4000b520:	00 00 00 00 	unimp  0
4000b524:	00 00 00 18 	unimp  0x18
4000b528:	00 00 0b a8 	unimp  0xba8
4000b52c:	ff ff e6 10 	unknown
4000b530:	00 00 00 78 	unimp  0x78
4000b534:	00 41 0d 1e 	unknown
4000b538:	2d 45 09 0f 	unknown
4000b53c:	1f 00 00 00 	sethi  %hi(0), %o7
4000b540:	00 00 00 10 	unimp  0x10
4000b544:	00 00 0b c4 	unimp  0xbc4
4000b548:	ff ff e6 6c 	unknown
4000b54c:	00 00 00 50 	unimp  0x50
4000b550:	00 00 00 00 	unimp  0
4000b554:	00 00 00 10 	unimp  0x10
4000b558:	00 00 0b d8 	unimp  0xbd8
4000b55c:	ff ff e6 a8 	unknown
4000b560:	00 00 00 34 	unimp  0x34
4000b564:	00 00 00 00 	unimp  0
4000b568:	00 00 00 10 	unimp  0x10
4000b56c:	00 00 0b ec 	unimp  0xbec
4000b570:	ff ff e6 e0 	unknown
4000b574:	00 00 00 10 	unimp  0x10
4000b578:	00 00 00 00 	unimp  0
4000b57c:	00 00 00 18 	unimp  0x18
4000b580:	00 00 0c 00 	unimp  0xc00
4000b584:	ff ff e6 dc 	unknown
4000b588:	00 00 00 34 	unimp  0x34
4000b58c:	00 41 0d 1e 	unknown
4000b590:	2d 47 09 0f 	unknown
4000b594:	1f 00 00 00 	sethi  %hi(0), %o7
4000b598:	00 00 00 18 	unimp  0x18
4000b59c:	00 00 0c 1c 	unimp  0xc1c
4000b5a0:	ff ff e6 f4 	unknown
4000b5a4:	00 00 00 2c 	unimp  0x2c
4000b5a8:	00 41 0d 1e 	unknown
4000b5ac:	2d 45 09 0f 	unknown
4000b5b0:	1f 00 00 00 	sethi  %hi(0), %o7
4000b5b4:	00 00 00 18 	unimp  0x18
4000b5b8:	00 00 0c 38 	unimp  0xc38
4000b5bc:	ff ff e7 04 	unknown
4000b5c0:	00 00 00 2c 	unimp  0x2c
4000b5c4:	00 41 0d 1e 	unknown
4000b5c8:	2d 45 09 0f 	unknown
4000b5cc:	1f 00 00 00 	sethi  %hi(0), %o7
4000b5d0:	00 00 00 18 	unimp  0x18
4000b5d4:	00 00 0c 54 	unimp  0xc54
4000b5d8:	ff ff e7 14 	unknown
4000b5dc:	00 00 00 2c 	unimp  0x2c
4000b5e0:	00 41 0d 1e 	unknown
4000b5e4:	2d 45 09 0f 	unknown
4000b5e8:	1f 00 00 00 	sethi  %hi(0), %o7
4000b5ec:	00 00 00 18 	unimp  0x18
4000b5f0:	00 00 0c 70 	unimp  0xc70
4000b5f4:	ff ff e7 24 	unknown
4000b5f8:	00 00 00 2c 	unimp  0x2c
4000b5fc:	00 41 0d 1e 	unknown
4000b600:	2d 45 09 0f 	unknown
4000b604:	1f 00 00 00 	sethi  %hi(0), %o7
4000b608:	00 00 00 18 	unimp  0x18
4000b60c:	00 00 0c 8c 	unimp  0xc8c
4000b610:	ff ff e7 34 	unknown
4000b614:	00 00 00 2c 	unimp  0x2c
4000b618:	00 41 0d 1e 	unknown
4000b61c:	2d 45 09 0f 	unknown
4000b620:	1f 00 00 00 	sethi  %hi(0), %o7
4000b624:	00 00 00 18 	unimp  0x18
4000b628:	00 00 0c a8 	unimp  0xca8
4000b62c:	ff ff e7 44 	unknown
4000b630:	00 00 00 2c 	unimp  0x2c
4000b634:	00 41 0d 1e 	unknown
4000b638:	2d 45 09 0f 	unknown
4000b63c:	1f 00 00 00 	sethi  %hi(0), %o7
4000b640:	00 00 00 18 	unimp  0x18
4000b644:	00 00 0c c4 	unimp  0xcc4
4000b648:	ff ff e7 54 	unknown
4000b64c:	00 00 00 34 	unimp  0x34
4000b650:	00 41 0d 1e 	unknown
4000b654:	2d 47 09 0f 	unknown
4000b658:	1f 00 00 00 	sethi  %hi(0), %o7
4000b65c:	00 00 00 18 	unimp  0x18
4000b660:	00 00 0c e0 	unimp  0xce0
4000b664:	ff ff e8 58 	unknown
4000b668:	00 00 00 4c 	unimp  0x4c
4000b66c:	00 41 0d 1e 	unknown
4000b670:	2d 47 09 0f 	unknown
4000b674:	1f 00 00 00 	sethi  %hi(0), %o7
4000b678:	00 00 00 18 	unimp  0x18
4000b67c:	00 00 0c fc 	unimp  0xcfc
4000b680:	ff ff ec 24 	unknown
4000b684:	00 00 00 88 	unimp  0x88
4000b688:	00 41 0d 1e 	unknown
4000b68c:	2d 52 09 0f 	unknown
4000b690:	1f 00 00 00 	sethi  %hi(0), %o7
4000b694:	00 00 00 10 	unimp  0x10
4000b698:	00 00 0d 18 	unimp  0xd18
4000b69c:	ff ff ec 90 	unknown
4000b6a0:	00 00 00 1c 	unimp  0x1c
4000b6a4:	00 00 00 00 	unimp  0
4000b6a8:	00 00 00 18 	unimp  0x18
4000b6ac:	00 00 0d 2c 	unimp  0xd2c
4000b6b0:	ff ff ec 98 	unknown
4000b6b4:	00 00 01 20 	unimp  0x120
4000b6b8:	00 41 0d 1e 	unknown
4000b6bc:	2d 58 09 0f 	unknown
4000b6c0:	1f 00 00 00 	sethi  %hi(0), %o7
4000b6c4:	00 00 00 10 	unimp  0x10
4000b6c8:	00 00 0d 48 	unimp  0xd48
4000b6cc:	ff ff ed 9c 	unknown
4000b6d0:	00 00 00 48 	unimp  0x48
4000b6d4:	00 00 00 00 	unimp  0
4000b6d8:	00 00 00 10 	unimp  0x10
4000b6dc:	00 00 0d 5c 	unimp  0xd5c
4000b6e0:	ff ff ed d0 	unknown
4000b6e4:	00 00 00 0c 	unimp  0xc
4000b6e8:	00 00 00 00 	unimp  0
4000b6ec:	00 00 00 10 	unimp  0x10
4000b6f0:	00 00 0d 70 	unimp  0xd70
4000b6f4:	ff ff f2 30 	unknown
4000b6f8:	00 00 00 0c 	unimp  0xc
4000b6fc:	00 00 00 00 	unimp  0

4000b700 <__FRAME_END__>:
	...

4000b710 <___CTOR_LIST__>:
4000b710:	00 00 00 02 	unimp  0x2

4000b714 <__CTOR_LIST__>:
4000b714:	ff ff ff ff 	unknown

4000b718 <__CTOR_END__>:
	...

4000b720 <___CTOR_END__>:
4000b720:	00 00 00 02 	unimp  0x2

4000b724 <__DTOR_LIST__>:
4000b724:	ff ff ff ff 	unknown

4000b728 <__DTOR_END__>:
	...

4000b730 <___DTOR_END__>:
4000b730:	25 33 64 7c 	sethi  %hi(0xcd91f000), %l2
4000b734:	00 00 00 00 	unimp  0
4000b738:	30 31 32 33 	unknown
4000b73c:	34 35 36 37 	unknown
4000b740:	38 39 41 42 	unknown
4000b744:	43 44 45 46 	call  4d11cc5c <__end+0xd110104>
4000b748:	00 00 00 00 	unimp  0
4000b74c:	00 00 00 00 	unimp  0
4000b750:	49 6e 66 00 	call  65ba4f50 <__end+0x25b983f8>
4000b754:	00 00 00 00 	unimp  0
4000b758:	30 31 32 33 	unknown
4000b75c:	34 35 36 37 	unknown
4000b760:	38 39 61 62 	unknown
4000b764:	63 64 65 66 	call  cd924cfc <__end+0x8d9181a4>
4000b768:	00 00 00 00 	unimp  0
4000b76c:	00 00 00 00 	unimp  0
4000b770:	4e 61 4e 00 	call  7985ef70 <__end+0x39852418>
4000b774:	00 00 00 00 	unimp  0
4000b778:	30 00 00 00 	unknown
4000b77c:	00 00 00 00 	unimp  0
4000b780:	2e 00 00 00 	unknown
4000b784:	00 00 00 00 	unimp  0
4000b788:	28 6e 75 6c 	unknown
4000b78c:	6c 29 00 00 	call  f0a4b78c <__end+0xb0a3ec34>
4000b790:	00 00 00 00 	unimp  0
4000b794:	00 00 00 00 	unimp  0

4000b798 <zeroes.3055>:
4000b798:	30 30 30 30 	unknown
4000b79c:	30 30 30 30 	unknown
4000b7a0:	30 30 30 30 	unknown
4000b7a4:	30 30 30 30 	unknown

4000b7a8 <blanks.3054>:
4000b7a8:	20 20 20 20 	unknown
4000b7ac:	20 20 20 20 	unknown
4000b7b0:	20 20 20 20 	unknown
4000b7b4:	20 20 20 20 	unknown
4000b7b8:	43 2d 55 54 	call  4cb60d08 <__end+0xcb541b0>
4000b7bc:	46 2d 38 00 	call  58b597bc <__end+0x18b4cc64>
4000b7c0:	43 2d 53 4a 	call  4cb604e8 <__end+0xcb53990>
4000b7c4:	49 53 00 00 	call  654cb7c4 <__end+0x254bec6c>
4000b7c8:	43 2d 45 55 	call  4cb5cd1c <__end+0xcb501c4>
4000b7cc:	43 4a 50 00 	call  4d29f7cc <__end+0xd292c74>
4000b7d0:	43 2d 4a 49 	call  4cb5e0f4 <__end+0xcb5159c>
4000b7d4:	53 00 00 00 	call  8c00b7d4 <__end+0x4bffec7c>
4000b7d8:	49 6e 66 69 	call  65ba517c <__end+0x25b98624>
4000b7dc:	6e 69 74 79 	call  f9a689c0 <__end+0xb9a5be68>
4000b7e0:	00 00 00 00 	unimp  0
4000b7e4:	00 00 00 00 	unimp  0
4000b7e8:	3f f8 00 00 	cb012,a   3fe0b7e8 <_trap_table-0x1f4818>
4000b7ec:	00 00 00 00 	unimp  0
4000b7f0:	3f d2 87 a7 	cb012,a   404ad68c <__end+0x4a0b34>
4000b7f4:	63 6f 43 61 	call  cdbdc578 <__end+0x8dbcfa20>
4000b7f8:	3f c6 8a 28 	cb012,a   401ae098 <__end+0x1a1540>
4000b7fc:	8b 60 c8 b3 	unknown
4000b800:	3f d3 44 13 	cb012,a   404dc84c <__end+0x4cfcf4>
4000b804:	50 9f 79 fb 	call  827e9ff0 <__end+0x427dd498>
4000b808:	3f f0 00 00 	cb012,a   3fc0b808 <_trap_table-0x3f47f8>
4000b80c:	00 00 00 00 	unimp  0
4000b810:	40 24 00 00 	call  4090b810 <__end+0x8fecb8>
4000b814:	00 00 00 00 	unimp  0
4000b818:	40 1c 00 00 	call  4070b818 <__end+0x6fecc0>
4000b81c:	00 00 00 00 	unimp  0
4000b820:	40 14 00 00 	call  4050b820 <__end+0x4fecc8>
4000b824:	00 00 00 00 	unimp  0
4000b828:	3f e0 00 00 	cb012,a   3f80b828 <_trap_table-0x7f47d8>
4000b82c:	00 00 00 00 	unimp  0

4000b830 <_global_impure_ptr>:
4000b830:	40 00 bc e0 	call  4003abb0 <__end+0x2e058>
4000b834:	00 00 00 00 	unimp  0
4000b838:	43 00 00 00 	call  4c00b838 <__end+0xbffece0>
4000b83c:	00 00 00 00 	unimp  0
4000b840:	49 53 4f 2d 	call  654df4f4 <__end+0x254d299c>
4000b844:	38 38 35 39 	unknown
4000b848:	2d 31 00 00 	sethi  %hi(0xc4000000), %l6
4000b84c:	00 00 00 00 	unimp  0

4000b850 <lconv>:
4000b850:	40 00 b7 80 	call  40039650 <__end+0x2caf8>
4000b854:	40 00 b7 48 	call  40039574 <__end+0x2ca1c>
4000b858:	40 00 b7 48 	call  40039578 <__end+0x2ca20>
4000b85c:	40 00 b7 48 	call  4003957c <__end+0x2ca24>
4000b860:	40 00 b7 48 	call  40039580 <__end+0x2ca28>
4000b864:	40 00 b7 48 	call  40039584 <__end+0x2ca2c>
4000b868:	40 00 b7 48 	call  40039588 <__end+0x2ca30>
4000b86c:	40 00 b7 48 	call  4003958c <__end+0x2ca34>
4000b870:	40 00 b7 48 	call  40039590 <__end+0x2ca38>
4000b874:	40 00 b7 48 	call  40039594 <__end+0x2ca3c>
4000b878:	7f 7f 7f 7f 	call  3dfeb674 <_trap_table-0x201498c>
4000b87c:	7f 7f 7f 7f 	call  3dfeb678 <_trap_table-0x2014988>

4000b880 <charset>:
4000b880:	40 00 b8 40 	call  40039980 <__end+0x2ce28>
4000b884:	00 00 00 00 	unimp  0

4000b888 <__mprec_tens>:
4000b888:	3f f0 00 00 	cb012,a   3fc0b888 <_trap_table-0x3f4778>
4000b88c:	00 00 00 00 	unimp  0
4000b890:	40 24 00 00 	call  4090b890 <__end+0x8fed38>
4000b894:	00 00 00 00 	unimp  0
4000b898:	40 59 00 00 	call  4164b898 <__end+0x163ed40>
4000b89c:	00 00 00 00 	unimp  0
4000b8a0:	40 8f 40 00 	call  423db8a0 <__end+0x23ced48>
4000b8a4:	00 00 00 00 	unimp  0
4000b8a8:	40 c3 88 00 	call  430ed8a8 <__end+0x30e0d50>
4000b8ac:	00 00 00 00 	unimp  0
4000b8b0:	40 f8 6a 00 	call  43e260b0 <__end+0x3e19558>
4000b8b4:	00 00 00 00 	unimp  0
4000b8b8:	41 2e 84 80 	call  44bacab8 <__end+0x4b9ff60>
4000b8bc:	00 00 00 00 	unimp  0
4000b8c0:	41 63 12 d0 	call  458d0400 <__end+0x58c38a8>
4000b8c4:	00 00 00 00 	unimp  0
4000b8c8:	41 97 d7 84 	call  466016d8 <__end+0x65f4b80>
4000b8cc:	00 00 00 00 	unimp  0
4000b8d0:	41 cd cd 65 	call  4737ee64 <__end+0x737230c>
4000b8d4:	00 00 00 00 	unimp  0
4000b8d8:	42 02 a0 5f 	call  480b3a54 <__end+0x80a6efc>
4000b8dc:	20 00 00 00 	unknown
4000b8e0:	42 37 48 76 	call  48dddab8 <__end+0x8dd0f60>
4000b8e4:	e8 00 00 00 	ld  [ %g0 ], %l4
4000b8e8:	42 6d 1a 94 	call  49b52338 <__end+0x9b457e0>
4000b8ec:	a2 00 00 00 	add  %g0, %g0, %l1
4000b8f0:	42 a2 30 9c 	call  4a897b60 <__end+0xa88b008>
4000b8f4:	e5 40 00 00 	unknown
4000b8f8:	42 d6 bc c4 	call  4b5bac08 <__end+0xb5ae0b0>
4000b8fc:	1e 90 00 00 	bvc  4040b8fc <__end+0x3feda4>
4000b900:	43 0c 6b f5 	call  4c3268d4 <__end+0xc319d7c>
4000b904:	26 34 00 00 	unknown
4000b908:	43 41 c3 79 	call  4d07c6ec <__end+0xd06fb94>
4000b90c:	37 e0 80 00 	cb02,a   3f82b90c <_trap_table-0x7d46f4>
4000b910:	43 76 34 57 	call  4dd98a6c <__end+0xdd8bf14>
4000b914:	85 d8 a0 00 	flush  %g2
4000b918:	43 ab c1 6d 	call  4eafbecc <__end+0xeaef374>
4000b91c:	67 4e c8 00 	call  dd3bd91c <__end+0x9d3b0dc4>
4000b920:	43 e1 58 e4 	call  4f861cb0 <__end+0xf855158>
4000b924:	60 91 3d 00 	call  c245ad24 <__end+0x8244e1cc>
4000b928:	44 15 af 1d 	call  5057759c <__end+0x1056aa44>
4000b92c:	78 b5 8c 40 	call  22d6ea2c <_trap_table-0x1d2915d4>
4000b930:	44 4b 1a e4 	call  512d24c0 <__end+0x112c5968>
4000b934:	d6 e2 ef 50 	unknown
4000b938:	44 80 f0 cf 	call  52047c74 <__end+0x1203b11c>
4000b93c:	06 4d d5 92 	unknown
4000b940:	44 b5 2d 02 	call  52d56d48 <__end+0x12d4a1f0>
4000b944:	c7 e1 4a f6 	casa  [ %g5 ] #ASI_IMMU_DEMAP, %l6, %g3
4000b948:	44 ea 78 43 	call  53aa9a54 <__end+0x13a9cefc>
4000b94c:	79 d9 9d b4 	call  2767301c <_trap_table-0x1898cfe4>

4000b950 <__mprec_bigtens>:
4000b950:	43 41 c3 79 	call  4d07c734 <__end+0xd06fbdc>
4000b954:	37 e0 80 00 	cb02,a   3f82b954 <_trap_table-0x7d46ac>
4000b958:	46 93 b8 b5 	call  5a4f9c2c <__end+0x1a4ed0d4>
4000b95c:	b5 05 6e 17 	taddcc  %l5, 0xe17, %i2
4000b960:	4d 38 4f 03 	call  74e1f56c <__end+0x34e12a14>
4000b964:	e9 3f f9 f5 	std  %f20, [ %i7 + -1547 ]
4000b968:	5a 82 77 48 	call  aa0a9688 <__end+0x6a09cb30>
4000b96c:	f9 30 1d 32 	unknown
4000b970:	75 15 4f dd 	call  1455f8e4 <_trap_table-0x2baa071c>
4000b974:	7f 73 bf 3c 	call  3dcfb664 <_trap_table-0x230499c>

4000b978 <__mprec_tinytens>:
4000b978:	3c 9c d2 b2 	bpos,a   40740440 <__end+0x7338e8>
4000b97c:	97 d8 89 bc 	unknown
4000b980:	39 49 f6 23 	unknown
4000b984:	d5 a8 a7 33 	st  %csr, [ %g2 + 0x733 ]
4000b988:	32 a5 0f fd 	bne,a   3f94f97c <_trap_table-0x6b0684>
4000b98c:	44 f4 a7 3d 	call  53d35680 <__end+0x13d28b28>
4000b990:	25 5b ba 08 	unknown
4000b994:	cf 8c 97 9d 	ld  [ %l2 + %i5 ], %csr
4000b998:	0a c8 06 28 	unknown
4000b99c:	64 ac 6f 43 	call  d2b276a8 <__end+0x92b1ab50>

4000b9a0 <p05.2366>:
4000b9a0:	00 00 00 05 	unimp  0x5
4000b9a4:	00 00 00 19 	unimp  0x19
4000b9a8:	00 00 00 7d 	unimp  0x7d
4000b9ac:	00 00 00 00 	unimp  0
4000b9b0:	c1 e0 00 00 	casa  [ %g0 ] (0), %g0, %g0
4000b9b4:	00 00 00 00 	unimp  0

4000b9b8 <__thenan_df>:
	...

4000b9d0 <__clz_tab>:
4000b9d0:	00 01 02 02 	unimp  0x10202
4000b9d4:	03 03 03 03 	sethi  %hi(0xc0c0c00), %g1
4000b9d8:	04 04 04 04 	unknown
4000b9dc:	04 04 04 04 	unknown
4000b9e0:	05 05 05 05 	sethi  %hi(0x14141400), %g2
4000b9e4:	05 05 05 05 	sethi  %hi(0x14141400), %g2
4000b9e8:	05 05 05 05 	sethi  %hi(0x14141400), %g2
4000b9ec:	05 05 05 05 	sethi  %hi(0x14141400), %g2
4000b9f0:	06 06 06 06 	unknown
4000b9f4:	06 06 06 06 	unknown
4000b9f8:	06 06 06 06 	unknown
4000b9fc:	06 06 06 06 	unknown
4000ba00:	06 06 06 06 	unknown
4000ba04:	06 06 06 06 	unknown
4000ba08:	06 06 06 06 	unknown
4000ba0c:	06 06 06 06 	unknown
4000ba10:	07 07 07 07 	sethi  %hi(0x1c1c1c00), %g3
4000ba14:	07 07 07 07 	sethi  %hi(0x1c1c1c00), %g3
4000ba18:	07 07 07 07 	sethi  %hi(0x1c1c1c00), %g3
4000ba1c:	07 07 07 07 	sethi  %hi(0x1c1c1c00), %g3
4000ba20:	07 07 07 07 	sethi  %hi(0x1c1c1c00), %g3
4000ba24:	07 07 07 07 	sethi  %hi(0x1c1c1c00), %g3
4000ba28:	07 07 07 07 	sethi  %hi(0x1c1c1c00), %g3
4000ba2c:	07 07 07 07 	sethi  %hi(0x1c1c1c00), %g3
4000ba30:	07 07 07 07 	sethi  %hi(0x1c1c1c00), %g3
4000ba34:	07 07 07 07 	sethi  %hi(0x1c1c1c00), %g3
4000ba38:	07 07 07 07 	sethi  %hi(0x1c1c1c00), %g3
4000ba3c:	07 07 07 07 	sethi  %hi(0x1c1c1c00), %g3
4000ba40:	07 07 07 07 	sethi  %hi(0x1c1c1c00), %g3
4000ba44:	07 07 07 07 	sethi  %hi(0x1c1c1c00), %g3
4000ba48:	07 07 07 07 	sethi  %hi(0x1c1c1c00), %g3
4000ba4c:	07 07 07 07 	sethi  %hi(0x1c1c1c00), %g3
4000ba50:	08 08 08 08 	unknown
4000ba54:	08 08 08 08 	unknown
4000ba58:	08 08 08 08 	unknown
4000ba5c:	08 08 08 08 	unknown
4000ba60:	08 08 08 08 	unknown
4000ba64:	08 08 08 08 	unknown
4000ba68:	08 08 08 08 	unknown
4000ba6c:	08 08 08 08 	unknown
4000ba70:	08 08 08 08 	unknown
4000ba74:	08 08 08 08 	unknown
4000ba78:	08 08 08 08 	unknown
4000ba7c:	08 08 08 08 	unknown
4000ba80:	08 08 08 08 	unknown
4000ba84:	08 08 08 08 	unknown
4000ba88:	08 08 08 08 	unknown
4000ba8c:	08 08 08 08 	unknown
4000ba90:	08 08 08 08 	unknown
4000ba94:	08 08 08 08 	unknown
4000ba98:	08 08 08 08 	unknown
4000ba9c:	08 08 08 08 	unknown
4000baa0:	08 08 08 08 	unknown
4000baa4:	08 08 08 08 	unknown
4000baa8:	08 08 08 08 	unknown
4000baac:	08 08 08 08 	unknown
4000bab0:	08 08 08 08 	unknown
4000bab4:	08 08 08 08 	unknown
4000bab8:	08 08 08 08 	unknown
4000babc:	08 08 08 08 	unknown
4000bac0:	08 08 08 08 	unknown
4000bac4:	08 08 08 08 	unknown
4000bac8:	08 08 08 08 	unknown
4000bacc:	08 08 08 08 	unknown

4000bad0 <trap_table>:
	...
4000bad8:	40 00 9e 60 	call  40033458 <__end+0x26900>
4000badc:	00 00 00 01 	unimp  0x1
4000bae0:	00 00 00 01 	unimp  0x1
4000bae4:	40 00 a6 0c 	call  40035314 <__end+0x287bc>
4000bae8:	00 00 00 04 	unimp  0x4
4000baec:	00 00 00 04 	unimp  0x4
4000baf0:	40 00 a5 60 	call  40035070 <__end+0x28518>
4000baf4:	00 00 00 05 	unimp  0x5
4000baf8:	00 00 00 05 	unimp  0x5
4000bafc:	40 00 9f 08 	call  4003371c <__end+0x26bc4>
4000bb00:	00 00 00 06 	unimp  0x6
4000bb04:	00 00 00 06 	unimp  0x6
4000bb08:	40 00 9f 74 	call  400338d8 <__end+0x26d80>
4000bb0c:	00 00 00 09 	unimp  0x9
4000bb10:	00 00 00 09 	unimp  0x9
4000bb14:	40 00 a6 0c 	call  40035344 <__end+0x287ec>
4000bb18:	00 00 00 11 	unimp  0x11
4000bb1c:	00 00 00 1f 	unimp  0x1f
4000bb20:	40 00 a2 04 	call  40034330 <__end+0x277d8>
4000bb24:	00 00 00 82 	unimp  0x82
4000bb28:	00 00 00 82 	unimp  0x82
4000bb2c:	40 00 a1 48 	call  4003404c <__end+0x274f4>
4000bb30:	00 00 00 83 	unimp  0x83
4000bb34:	00 00 00 83 	unimp  0x83
4000bb38:	40 00 9f d4 	call  40033a88 <__end+0x26f30>
4000bb3c:	00 00 00 85 	unimp  0x85
4000bb40:	00 00 00 85 	unimp  0x85
4000bb44:	40 00 a1 2c 	call  40033ff4 <__end+0x2749c>

4000bb48 <svt_trap_table_ext>:
	...

4000bc14 <svt_trap_table_ext_end>:
	...

4000bc20 <_init>:
4000bc20:	9d e3 bf a0 	save  %sp, -96, %sp
4000bc24:	7f ff d1 47 	call  40000140 <frame_dummy>
4000bc28:	01 00 00 00 	nop 
4000bc2c:	7f ff fb 41 	call  4000a930 <__do_global_ctors_aux>
4000bc30:	01 00 00 00 	nop 
4000bc34:	81 c7 e0 08 	ret 
4000bc38:	81 e8 00 00 	restore 

4000bc3c <_fini>:
4000bc3c:	9d e3 bf a0 	save  %sp, -96, %sp
4000bc40:	7f ff d1 15 	call  40000094 <__do_global_dtors_aux>
4000bc44:	01 00 00 00 	nop 
4000bc48:	81 c7 e0 08 	ret 
4000bc4c:	81 e8 00 00 	restore 

Disassembly of section .data:

4000bc50 <_environ>:
4000bc50:	00 00 00 01 	unimp  0x1
4000bc54:	00 00 00 00 	unimp  0

4000bc58 <__dso_handle>:
4000bc58:	00 00 00 00 	unimp  0

4000bc5c <c0Running>:
4000bc5c:	01 01 00 00 	sethi  %hi(0x4000000), %g0

4000bc5d <c1Running>:
4000bc5d:	01 00 00 00 	nop 

4000bc60 <__sfp_lock>:
4000bc60:	00 00 00 00 	unimp  0
4000bc64:	40 00 bc 60 	call  4003ade4 <__end+0x2e28c>
4000bc68:	00 00 00 00 	unimp  0
	...
4000bc74:	00 00 00 02 	unimp  0x2
	...

4000bcd8 <_impure_ptr>:
4000bcd8:	40 00 bc e0 	call  4003b058 <__end+0x2e500>
4000bcdc:	00 00 00 00 	unimp  0

4000bce0 <impure_data>:
4000bce0:	00 00 00 00 	unimp  0
4000bce4:	40 00 bf cc 	call  4003bc14 <__end+0x2f0bc>
4000bce8:	40 00 c0 98 	call  4003bf48 <__end+0x2f3f0>
4000bcec:	40 00 c1 64 	call  4003c27c <__end+0x2f724>
4000bcf0:	00 00 00 00 	unimp  0
	...
4000bd14:	40 00 b8 38 	call  40039df4 <__end+0x2d29c>
4000bd18:	00 00 00 00 	unimp  0
	...
4000bd8c:	00 00 00 01 	unimp  0x1
4000bd90:	33 0e ab cd 	sethi  %hi(0x3aaf3400), %i1
4000bd94:	12 34 e6 6d 	unknown
4000bd98:	de ec 00 05 	ldstuba  [ %l0 + %g5 ] (0), %o7
4000bd9c:	00 0b 00 00 	unimp  0xb0000
	...

4000c230 <__mb_cur_max>:
4000c230:	00 00 00 01 	unimp  0x1
4000c234:	00 00 00 00 	unimp  0

4000c238 <__lc_ctype>:
4000c238:	43 00 00 00 	call  4c00c238 <__end+0xbfff6e0>
4000c23c:	00 00 00 00 	unimp  0
	...

4000c248 <__malloc_av_>:
	...
4000c250:	40 00 c2 48 	call  4003cb70 <__end+0x30018>
4000c254:	40 00 c2 48 	call  4003cb74 <__end+0x3001c>
4000c258:	40 00 c2 50 	call  4003cb98 <__end+0x30040>
4000c25c:	40 00 c2 50 	call  4003cb9c <__end+0x30044>
4000c260:	40 00 c2 58 	call  4003cbc0 <__end+0x30068>
4000c264:	40 00 c2 58 	call  4003cbc4 <__end+0x3006c>
4000c268:	40 00 c2 60 	call  4003cbe8 <__end+0x30090>
4000c26c:	40 00 c2 60 	call  4003cbec <__end+0x30094>
4000c270:	40 00 c2 68 	call  4003cc10 <__end+0x300b8>
4000c274:	40 00 c2 68 	call  4003cc14 <__end+0x300bc>
4000c278:	40 00 c2 70 	call  4003cc38 <__end+0x300e0>
4000c27c:	40 00 c2 70 	call  4003cc3c <__end+0x300e4>
4000c280:	40 00 c2 78 	call  4003cc60 <__end+0x30108>
4000c284:	40 00 c2 78 	call  4003cc64 <__end+0x3010c>
4000c288:	40 00 c2 80 	call  4003cc88 <__end+0x30130>
4000c28c:	40 00 c2 80 	call  4003cc8c <__end+0x30134>
4000c290:	40 00 c2 88 	call  4003ccb0 <__end+0x30158>
4000c294:	40 00 c2 88 	call  4003ccb4 <__end+0x3015c>
4000c298:	40 00 c2 90 	call  4003ccd8 <__end+0x30180>
4000c29c:	40 00 c2 90 	call  4003ccdc <__end+0x30184>
4000c2a0:	40 00 c2 98 	call  4003cd00 <__end+0x301a8>
4000c2a4:	40 00 c2 98 	call  4003cd04 <__end+0x301ac>
4000c2a8:	40 00 c2 a0 	call  4003cd28 <__end+0x301d0>
4000c2ac:	40 00 c2 a0 	call  4003cd2c <__end+0x301d4>
4000c2b0:	40 00 c2 a8 	call  4003cd50 <__end+0x301f8>
4000c2b4:	40 00 c2 a8 	call  4003cd54 <__end+0x301fc>
4000c2b8:	40 00 c2 b0 	call  4003cd78 <__end+0x30220>
4000c2bc:	40 00 c2 b0 	call  4003cd7c <__end+0x30224>
4000c2c0:	40 00 c2 b8 	call  4003cda0 <__end+0x30248>
4000c2c4:	40 00 c2 b8 	call  4003cda4 <__end+0x3024c>
4000c2c8:	40 00 c2 c0 	call  4003cdc8 <__end+0x30270>
4000c2cc:	40 00 c2 c0 	call  4003cdcc <__end+0x30274>
4000c2d0:	40 00 c2 c8 	call  4003cdf0 <__end+0x30298>
4000c2d4:	40 00 c2 c8 	call  4003cdf4 <__end+0x3029c>
4000c2d8:	40 00 c2 d0 	call  4003ce18 <__end+0x302c0>
4000c2dc:	40 00 c2 d0 	call  4003ce1c <__end+0x302c4>
4000c2e0:	40 00 c2 d8 	call  4003ce40 <__end+0x302e8>
4000c2e4:	40 00 c2 d8 	call  4003ce44 <__end+0x302ec>
4000c2e8:	40 00 c2 e0 	call  4003ce68 <__end+0x30310>
4000c2ec:	40 00 c2 e0 	call  4003ce6c <__end+0x30314>
4000c2f0:	40 00 c2 e8 	call  4003ce90 <__end+0x30338>
4000c2f4:	40 00 c2 e8 	call  4003ce94 <__end+0x3033c>
4000c2f8:	40 00 c2 f0 	call  4003ceb8 <__end+0x30360>
4000c2fc:	40 00 c2 f0 	call  4003cebc <__end+0x30364>
4000c300:	40 00 c2 f8 	call  4003cee0 <__end+0x30388>
4000c304:	40 00 c2 f8 	call  4003cee4 <__end+0x3038c>
4000c308:	40 00 c3 00 	call  4003cf08 <__end+0x303b0>
4000c30c:	40 00 c3 00 	call  4003cf0c <__end+0x303b4>
4000c310:	40 00 c3 08 	call  4003cf30 <__end+0x303d8>
4000c314:	40 00 c3 08 	call  4003cf34 <__end+0x303dc>
4000c318:	40 00 c3 10 	call  4003cf58 <__end+0x30400>
4000c31c:	40 00 c3 10 	call  4003cf5c <__end+0x30404>
4000c320:	40 00 c3 18 	call  4003cf80 <__end+0x30428>
4000c324:	40 00 c3 18 	call  4003cf84 <__end+0x3042c>
4000c328:	40 00 c3 20 	call  4003cfa8 <__end+0x30450>
4000c32c:	40 00 c3 20 	call  4003cfac <__end+0x30454>
4000c330:	40 00 c3 28 	call  4003cfd0 <__end+0x30478>
4000c334:	40 00 c3 28 	call  4003cfd4 <__end+0x3047c>
4000c338:	40 00 c3 30 	call  4003cff8 <__end+0x304a0>
4000c33c:	40 00 c3 30 	call  4003cffc <__end+0x304a4>
4000c340:	40 00 c3 38 	call  4003d020 <__end+0x304c8>
4000c344:	40 00 c3 38 	call  4003d024 <__end+0x304cc>
4000c348:	40 00 c3 40 	call  4003d048 <__end+0x304f0>
4000c34c:	40 00 c3 40 	call  4003d04c <__end+0x304f4>
4000c350:	40 00 c3 48 	call  4003d070 <__end+0x30518>
4000c354:	40 00 c3 48 	call  4003d074 <__end+0x3051c>
4000c358:	40 00 c3 50 	call  4003d098 <__end+0x30540>
4000c35c:	40 00 c3 50 	call  4003d09c <__end+0x30544>
4000c360:	40 00 c3 58 	call  4003d0c0 <__end+0x30568>
4000c364:	40 00 c3 58 	call  4003d0c4 <__end+0x3056c>
4000c368:	40 00 c3 60 	call  4003d0e8 <__end+0x30590>
4000c36c:	40 00 c3 60 	call  4003d0ec <__end+0x30594>
4000c370:	40 00 c3 68 	call  4003d110 <__end+0x305b8>
4000c374:	40 00 c3 68 	call  4003d114 <__end+0x305bc>
4000c378:	40 00 c3 70 	call  4003d138 <__end+0x305e0>
4000c37c:	40 00 c3 70 	call  4003d13c <__end+0x305e4>
4000c380:	40 00 c3 78 	call  4003d160 <__end+0x30608>
4000c384:	40 00 c3 78 	call  4003d164 <__end+0x3060c>
4000c388:	40 00 c3 80 	call  4003d188 <__end+0x30630>
4000c38c:	40 00 c3 80 	call  4003d18c <__end+0x30634>
4000c390:	40 00 c3 88 	call  4003d1b0 <__end+0x30658>
4000c394:	40 00 c3 88 	call  4003d1b4 <__end+0x3065c>
4000c398:	40 00 c3 90 	call  4003d1d8 <__end+0x30680>
4000c39c:	40 00 c3 90 	call  4003d1dc <__end+0x30684>
4000c3a0:	40 00 c3 98 	call  4003d200 <__end+0x306a8>
4000c3a4:	40 00 c3 98 	call  4003d204 <__end+0x306ac>
4000c3a8:	40 00 c3 a0 	call  4003d228 <__end+0x306d0>
4000c3ac:	40 00 c3 a0 	call  4003d22c <__end+0x306d4>
4000c3b0:	40 00 c3 a8 	call  4003d250 <__end+0x306f8>
4000c3b4:	40 00 c3 a8 	call  4003d254 <__end+0x306fc>
4000c3b8:	40 00 c3 b0 	call  4003d278 <__end+0x30720>
4000c3bc:	40 00 c3 b0 	call  4003d27c <__end+0x30724>
4000c3c0:	40 00 c3 b8 	call  4003d2a0 <__end+0x30748>
4000c3c4:	40 00 c3 b8 	call  4003d2a4 <__end+0x3074c>
4000c3c8:	40 00 c3 c0 	call  4003d2c8 <__end+0x30770>
4000c3cc:	40 00 c3 c0 	call  4003d2cc <__end+0x30774>
4000c3d0:	40 00 c3 c8 	call  4003d2f0 <__end+0x30798>
4000c3d4:	40 00 c3 c8 	call  4003d2f4 <__end+0x3079c>
4000c3d8:	40 00 c3 d0 	call  4003d318 <__end+0x307c0>
4000c3dc:	40 00 c3 d0 	call  4003d31c <__end+0x307c4>
4000c3e0:	40 00 c3 d8 	call  4003d340 <__end+0x307e8>
4000c3e4:	40 00 c3 d8 	call  4003d344 <__end+0x307ec>
4000c3e8:	40 00 c3 e0 	call  4003d368 <__end+0x30810>
4000c3ec:	40 00 c3 e0 	call  4003d36c <__end+0x30814>
4000c3f0:	40 00 c3 e8 	call  4003d390 <__end+0x30838>
4000c3f4:	40 00 c3 e8 	call  4003d394 <__end+0x3083c>
4000c3f8:	40 00 c3 f0 	call  4003d3b8 <__end+0x30860>
4000c3fc:	40 00 c3 f0 	call  4003d3bc <__end+0x30864>
4000c400:	40 00 c3 f8 	call  4003d3e0 <__end+0x30888>
4000c404:	40 00 c3 f8 	call  4003d3e4 <__end+0x3088c>
4000c408:	40 00 c4 00 	call  4003d408 <__end+0x308b0>
4000c40c:	40 00 c4 00 	call  4003d40c <__end+0x308b4>
4000c410:	40 00 c4 08 	call  4003d430 <__end+0x308d8>
4000c414:	40 00 c4 08 	call  4003d434 <__end+0x308dc>
4000c418:	40 00 c4 10 	call  4003d458 <__end+0x30900>
4000c41c:	40 00 c4 10 	call  4003d45c <__end+0x30904>
4000c420:	40 00 c4 18 	call  4003d480 <__end+0x30928>
4000c424:	40 00 c4 18 	call  4003d484 <__end+0x3092c>
4000c428:	40 00 c4 20 	call  4003d4a8 <__end+0x30950>
4000c42c:	40 00 c4 20 	call  4003d4ac <__end+0x30954>
4000c430:	40 00 c4 28 	call  4003d4d0 <__end+0x30978>
4000c434:	40 00 c4 28 	call  4003d4d4 <__end+0x3097c>
4000c438:	40 00 c4 30 	call  4003d4f8 <__end+0x309a0>
4000c43c:	40 00 c4 30 	call  4003d4fc <__end+0x309a4>
4000c440:	40 00 c4 38 	call  4003d520 <__end+0x309c8>
4000c444:	40 00 c4 38 	call  4003d524 <__end+0x309cc>
4000c448:	40 00 c4 40 	call  4003d548 <__end+0x309f0>
4000c44c:	40 00 c4 40 	call  4003d54c <__end+0x309f4>
4000c450:	40 00 c4 48 	call  4003d570 <__end+0x30a18>
4000c454:	40 00 c4 48 	call  4003d574 <__end+0x30a1c>
4000c458:	40 00 c4 50 	call  4003d598 <__end+0x30a40>
4000c45c:	40 00 c4 50 	call  4003d59c <__end+0x30a44>
4000c460:	40 00 c4 58 	call  4003d5c0 <__end+0x30a68>
4000c464:	40 00 c4 58 	call  4003d5c4 <__end+0x30a6c>
4000c468:	40 00 c4 60 	call  4003d5e8 <__end+0x30a90>
4000c46c:	40 00 c4 60 	call  4003d5ec <__end+0x30a94>
4000c470:	40 00 c4 68 	call  4003d610 <__end+0x30ab8>
4000c474:	40 00 c4 68 	call  4003d614 <__end+0x30abc>
4000c478:	40 00 c4 70 	call  4003d638 <__end+0x30ae0>
4000c47c:	40 00 c4 70 	call  4003d63c <__end+0x30ae4>
4000c480:	40 00 c4 78 	call  4003d660 <__end+0x30b08>
4000c484:	40 00 c4 78 	call  4003d664 <__end+0x30b0c>
4000c488:	40 00 c4 80 	call  4003d688 <__end+0x30b30>
4000c48c:	40 00 c4 80 	call  4003d68c <__end+0x30b34>
4000c490:	40 00 c4 88 	call  4003d6b0 <__end+0x30b58>
4000c494:	40 00 c4 88 	call  4003d6b4 <__end+0x30b5c>
4000c498:	40 00 c4 90 	call  4003d6d8 <__end+0x30b80>
4000c49c:	40 00 c4 90 	call  4003d6dc <__end+0x30b84>
4000c4a0:	40 00 c4 98 	call  4003d700 <__end+0x30ba8>
4000c4a4:	40 00 c4 98 	call  4003d704 <__end+0x30bac>
4000c4a8:	40 00 c4 a0 	call  4003d728 <__end+0x30bd0>
4000c4ac:	40 00 c4 a0 	call  4003d72c <__end+0x30bd4>
4000c4b0:	40 00 c4 a8 	call  4003d750 <__end+0x30bf8>
4000c4b4:	40 00 c4 a8 	call  4003d754 <__end+0x30bfc>
4000c4b8:	40 00 c4 b0 	call  4003d778 <__end+0x30c20>
4000c4bc:	40 00 c4 b0 	call  4003d77c <__end+0x30c24>
4000c4c0:	40 00 c4 b8 	call  4003d7a0 <__end+0x30c48>
4000c4c4:	40 00 c4 b8 	call  4003d7a4 <__end+0x30c4c>
4000c4c8:	40 00 c4 c0 	call  4003d7c8 <__end+0x30c70>
4000c4cc:	40 00 c4 c0 	call  4003d7cc <__end+0x30c74>
4000c4d0:	40 00 c4 c8 	call  4003d7f0 <__end+0x30c98>
4000c4d4:	40 00 c4 c8 	call  4003d7f4 <__end+0x30c9c>
4000c4d8:	40 00 c4 d0 	call  4003d818 <__end+0x30cc0>
4000c4dc:	40 00 c4 d0 	call  4003d81c <__end+0x30cc4>
4000c4e0:	40 00 c4 d8 	call  4003d840 <__end+0x30ce8>
4000c4e4:	40 00 c4 d8 	call  4003d844 <__end+0x30cec>
4000c4e8:	40 00 c4 e0 	call  4003d868 <__end+0x30d10>
4000c4ec:	40 00 c4 e0 	call  4003d86c <__end+0x30d14>
4000c4f0:	40 00 c4 e8 	call  4003d890 <__end+0x30d38>
4000c4f4:	40 00 c4 e8 	call  4003d894 <__end+0x30d3c>
4000c4f8:	40 00 c4 f0 	call  4003d8b8 <__end+0x30d60>
4000c4fc:	40 00 c4 f0 	call  4003d8bc <__end+0x30d64>
4000c500:	40 00 c4 f8 	call  4003d8e0 <__end+0x30d88>
4000c504:	40 00 c4 f8 	call  4003d8e4 <__end+0x30d8c>
4000c508:	40 00 c5 00 	call  4003d908 <__end+0x30db0>
4000c50c:	40 00 c5 00 	call  4003d90c <__end+0x30db4>
4000c510:	40 00 c5 08 	call  4003d930 <__end+0x30dd8>
4000c514:	40 00 c5 08 	call  4003d934 <__end+0x30ddc>
4000c518:	40 00 c5 10 	call  4003d958 <__end+0x30e00>
4000c51c:	40 00 c5 10 	call  4003d95c <__end+0x30e04>
4000c520:	40 00 c5 18 	call  4003d980 <__end+0x30e28>
4000c524:	40 00 c5 18 	call  4003d984 <__end+0x30e2c>
4000c528:	40 00 c5 20 	call  4003d9a8 <__end+0x30e50>
4000c52c:	40 00 c5 20 	call  4003d9ac <__end+0x30e54>
4000c530:	40 00 c5 28 	call  4003d9d0 <__end+0x30e78>
4000c534:	40 00 c5 28 	call  4003d9d4 <__end+0x30e7c>
4000c538:	40 00 c5 30 	call  4003d9f8 <__end+0x30ea0>
4000c53c:	40 00 c5 30 	call  4003d9fc <__end+0x30ea4>
4000c540:	40 00 c5 38 	call  4003da20 <__end+0x30ec8>
4000c544:	40 00 c5 38 	call  4003da24 <__end+0x30ecc>
4000c548:	40 00 c5 40 	call  4003da48 <__end+0x30ef0>
4000c54c:	40 00 c5 40 	call  4003da4c <__end+0x30ef4>
4000c550:	40 00 c5 48 	call  4003da70 <__end+0x30f18>
4000c554:	40 00 c5 48 	call  4003da74 <__end+0x30f1c>
4000c558:	40 00 c5 50 	call  4003da98 <__end+0x30f40>
4000c55c:	40 00 c5 50 	call  4003da9c <__end+0x30f44>
4000c560:	40 00 c5 58 	call  4003dac0 <__end+0x30f68>
4000c564:	40 00 c5 58 	call  4003dac4 <__end+0x30f6c>
4000c568:	40 00 c5 60 	call  4003dae8 <__end+0x30f90>
4000c56c:	40 00 c5 60 	call  4003daec <__end+0x30f94>
4000c570:	40 00 c5 68 	call  4003db10 <__end+0x30fb8>
4000c574:	40 00 c5 68 	call  4003db14 <__end+0x30fbc>
4000c578:	40 00 c5 70 	call  4003db38 <__end+0x30fe0>
4000c57c:	40 00 c5 70 	call  4003db3c <__end+0x30fe4>
4000c580:	40 00 c5 78 	call  4003db60 <__end+0x31008>
4000c584:	40 00 c5 78 	call  4003db64 <__end+0x3100c>
4000c588:	40 00 c5 80 	call  4003db88 <__end+0x31030>
4000c58c:	40 00 c5 80 	call  4003db8c <__end+0x31034>
4000c590:	40 00 c5 88 	call  4003dbb0 <__end+0x31058>
4000c594:	40 00 c5 88 	call  4003dbb4 <__end+0x3105c>
4000c598:	40 00 c5 90 	call  4003dbd8 <__end+0x31080>
4000c59c:	40 00 c5 90 	call  4003dbdc <__end+0x31084>
4000c5a0:	40 00 c5 98 	call  4003dc00 <__end+0x310a8>
4000c5a4:	40 00 c5 98 	call  4003dc04 <__end+0x310ac>
4000c5a8:	40 00 c5 a0 	call  4003dc28 <__end+0x310d0>
4000c5ac:	40 00 c5 a0 	call  4003dc2c <__end+0x310d4>
4000c5b0:	40 00 c5 a8 	call  4003dc50 <__end+0x310f8>
4000c5b4:	40 00 c5 a8 	call  4003dc54 <__end+0x310fc>
4000c5b8:	40 00 c5 b0 	call  4003dc78 <__end+0x31120>
4000c5bc:	40 00 c5 b0 	call  4003dc7c <__end+0x31124>
4000c5c0:	40 00 c5 b8 	call  4003dca0 <__end+0x31148>
4000c5c4:	40 00 c5 b8 	call  4003dca4 <__end+0x3114c>
4000c5c8:	40 00 c5 c0 	call  4003dcc8 <__end+0x31170>
4000c5cc:	40 00 c5 c0 	call  4003dccc <__end+0x31174>
4000c5d0:	40 00 c5 c8 	call  4003dcf0 <__end+0x31198>
4000c5d4:	40 00 c5 c8 	call  4003dcf4 <__end+0x3119c>
4000c5d8:	40 00 c5 d0 	call  4003dd18 <__end+0x311c0>
4000c5dc:	40 00 c5 d0 	call  4003dd1c <__end+0x311c4>
4000c5e0:	40 00 c5 d8 	call  4003dd40 <__end+0x311e8>
4000c5e4:	40 00 c5 d8 	call  4003dd44 <__end+0x311ec>
4000c5e8:	40 00 c5 e0 	call  4003dd68 <__end+0x31210>
4000c5ec:	40 00 c5 e0 	call  4003dd6c <__end+0x31214>
4000c5f0:	40 00 c5 e8 	call  4003dd90 <__end+0x31238>
4000c5f4:	40 00 c5 e8 	call  4003dd94 <__end+0x3123c>
4000c5f8:	40 00 c5 f0 	call  4003ddb8 <__end+0x31260>
4000c5fc:	40 00 c5 f0 	call  4003ddbc <__end+0x31264>
4000c600:	40 00 c5 f8 	call  4003dde0 <__end+0x31288>
4000c604:	40 00 c5 f8 	call  4003dde4 <__end+0x3128c>
4000c608:	40 00 c6 00 	call  4003de08 <__end+0x312b0>
4000c60c:	40 00 c6 00 	call  4003de0c <__end+0x312b4>
4000c610:	40 00 c6 08 	call  4003de30 <__end+0x312d8>
4000c614:	40 00 c6 08 	call  4003de34 <__end+0x312dc>
4000c618:	40 00 c6 10 	call  4003de58 <__end+0x31300>
4000c61c:	40 00 c6 10 	call  4003de5c <__end+0x31304>
4000c620:	40 00 c6 18 	call  4003de80 <__end+0x31328>
4000c624:	40 00 c6 18 	call  4003de84 <__end+0x3132c>
4000c628:	40 00 c6 20 	call  4003dea8 <__end+0x31350>
4000c62c:	40 00 c6 20 	call  4003deac <__end+0x31354>
4000c630:	40 00 c6 28 	call  4003ded0 <__end+0x31378>
4000c634:	40 00 c6 28 	call  4003ded4 <__end+0x3137c>
4000c638:	40 00 c6 30 	call  4003def8 <__end+0x313a0>
4000c63c:	40 00 c6 30 	call  4003defc <__end+0x313a4>
4000c640:	40 00 c6 38 	call  4003df20 <__end+0x313c8>
4000c644:	40 00 c6 38 	call  4003df24 <__end+0x313cc>
4000c648:	40 00 c6 40 	call  4003df48 <__end+0x313f0>
4000c64c:	40 00 c6 40 	call  4003df4c <__end+0x313f4>

4000c650 <__malloc_trim_threshold>:
4000c650:	00 02 00 00 	unimp  0x20000

4000c654 <__malloc_sbrk_base>:
4000c654:	ff ff ff ff 	unknown

4000c658 <__malloc_lock_object>:
4000c658:	00 00 00 00 	unimp  0
4000c65c:	40 00 c6 58 	call  4003dfbc <__end+0x31464>
4000c660:	00 00 00 00 	unimp  0
	...
4000c66c:	00 00 00 02 	unimp  0x2
	...

4000c6cc <console>:
4000c6cc:	80 00 01 00 	unknown

4000c6d0 <_lb_spillglobals>:
	...

4000c6ec <_lb_issideflush>:
4000c6ec:	00 00 00 00 	unimp  0

4000c6f0 <nestedirq>:
4000c6f0:	00 00 00 00 	unimp  0

4000c6f4 <fastirq>:
4000c6f4:	00 00 00 00 	unimp  0

4000c6f8 <nestcount>:
4000c6f8:	00 00 00 00 	unimp  0

4000c6fc <LEON3_IrqCtrl_Regs>:
	...

4000c704 <_nwindows>:
4000c704:	00 00 00 08 	unimp  0x8

4000c708 <_nwindows_min1>:
4000c708:	00 00 00 07 	unimp  0x7

4000c70c <_nwindows_min2>:
4000c70c:	00 00 00 06 	unimp  0x6

4000c710 <_leon_version>:
4000c710:	00 00 00 03 	unimp  0x3
4000c714:	00 00 00 00 	unimp  0

4000c718 <jiffies_64>:
4000c718:	00 00 00 00 	unimp  0
4000c71c:	ff ff 8a d0 	unknown

Disassembly of section .bss:

4000c720 <__bss_start>:
4000c720:	00 00 00 00 	unimp  0

4000c724 <dtor_idx.4025>:
4000c724:	00 00 00 00 	unimp  0

4000c728 <object.4052>:
	...

4000c740 <C0total>:
4000c740:	00 00 00 00 	unimp  0

4000c744 <C1total>:
4000c744:	00 00 00 00 	unimp  0

4000c748 <lock>:
	...

4000c7bc <__nlocale_changed>:
4000c7bc:	00 00 00 00 	unimp  0

4000c7c0 <__mlocale_changed>:
4000c7c0:	00 00 00 00 	unimp  0

4000c7c4 <_PathLocale>:
4000c7c4:	00 00 00 00 	unimp  0

4000c7c8 <__malloc_top_pad>:
4000c7c8:	00 00 00 00 	unimp  0

4000c7cc <__malloc_max_sbrked_mem>:
4000c7cc:	00 00 00 00 	unimp  0

4000c7d0 <__malloc_max_total_mem>:
4000c7d0:	00 00 00 00 	unimp  0

4000c7d4 <__malloc_current_mallinfo>:
	...

4000c7fc <__lbst_pthread_mutex_init>:
4000c7fc:	00 00 00 00 	unimp  0

4000c800 <__lbst_pthread_mutex_destroy>:
4000c800:	00 00 00 00 	unimp  0

4000c804 <__lbst_pthread_mutex_trylock>:
4000c804:	00 00 00 00 	unimp  0

4000c808 <__lbst_pthread_mutex_lock>:
4000c808:	00 00 00 00 	unimp  0

4000c80c <__lbst_pthread_mutex_unlock>:
4000c80c:	00 00 00 00 	unimp  0

4000c810 <__lbst_pthread_mutexattr_init>:
4000c810:	00 00 00 00 	unimp  0

4000c814 <__lbst_pthread_mutexattr_destroy>:
4000c814:	00 00 00 00 	unimp  0

4000c818 <__lbst_pthread_mutexattr_settype>:
4000c818:	00 00 00 00 	unimp  0

4000c81c <_irqtbl>:
	...

4000c89c <_oirqtbl>:
	...

4000ca9c <no_inirq_check>:
4000ca9c:	00 00 00 00 	unimp  0

4000caa0 <inirq>:
	...

4000cb20 <handler_irq_pre>:
4000cb20:	00 00 00 00 	unimp  0

4000cb24 <handler_irq_post>:
4000cb24:	00 00 00 00 	unimp  0

4000cb28 <schedule_callback>:
	...

4000cb30 <bsArray0>:
	...

4000cb3c <errno>:
4000cb3c:	00 00 00 00 	unimp  0

4000cb40 <heap_ptr>:
	...

4000cb50 <xtime>:
	...

Disassembly of section .jcr:

4000cb58 <__JCR_END__>:
4000cb58:	00 00 00 00 	unimp  0

Disassembly of section .comment:

00000000 <.comment>:
   0:	00 47 43 43 	unknown
   4:	3a 20 28 42 	unknown
   8:	43 43 20 34 	call  d0c80d8 <_trap_table-0x32f37f28>
   c:	2e 34 2e 32 	unknown
  10:	20 72 65 6c 	unknown
  14:	65 61 73 65 	call  9585cda8 <__end+0x55850250>
  18:	20 31 2e 30 	unknown
  1c:	2e 35 30 29 	unknown
  20:	20 34 2e 34 	unknown
  24:	2e 32 00 00 	unknown
  28:	47 43 43 3a 	call  1d0d0d10 <_trap_table-0x22f2f2f0>
  2c:	20 28 42 43 	unknown
  30:	43 20 34 2e 	call  c80d0e8 <_trap_table-0x337f2f18>
  34:	34 2e 32 20 	unknown
  38:	72 65 6c 65 	call  c995b1cc <__end+0x8994e674>
  3c:	61 73 65 20 	call  85cd94bc <__end+0x45ccc964>
  40:	31 2e 30 2e 	sethi  %hi(0xb8c0b800), %i0
  44:	35 30 29 20 	sethi  %hi(0xc0a48000), %i2
  48:	34 2e 34 2e 	unknown
  4c:	32 00 00 47 	unknown
  50:	43 43 3a 20 	call  d0ce8d0 <_trap_table-0x32f31730>
  54:	28 42 43 43 	unknown
  58:	20 34 2e 34 	unknown
  5c:	2e 32 20 72 	unknown
  60:	65 6c 65 61 	call  95b195e4 <__end+0x55b0ca8c>
  64:	73 65 20 31 	call  cd948128 <__end+0x8d93b5d0>
  68:	2e 30 2e 35 	unknown
  6c:	30 29 20 34 	unknown
  70:	2e 34 2e 32 	unknown
  74:	00 00 47 43 	unimp  0x4743
  78:	43 3a 20 28 	call  ce88118 <_trap_table-0x33177ee8>
  7c:	42 43 43 20 	call  90d0cfc <_trap_table-0x36f2f304>
  80:	34 2e 34 2e 	unknown
  84:	32 20 72 65 	unknown
  88:	6c 65 61 73 	call  b1958654 <__end+0x7194bafc>
  8c:	65 20 31 2e 	call  9480c544 <__end+0x547ff9ec>
  90:	30 2e 35 30 	unknown
  94:	29 20 34 2e 	sethi  %hi(0x80d0b800), %l4
  98:	34 2e 32 00 	unknown
  9c:	00 40 28 23 	unknown
  a0:	29 73 74 64 	unknown
  a4:	69 6f 2e 68 	call  a5bcba44 <__end+0x65bbeeec>
  a8:	09 31 2e 33 	sethi  %hi(0xc4b8cc00), %g4
  ac:	34 09 39 34 	unknown
  b0:	2f 30 36 2f 	sethi  %hi(0xc0d8bc00), %l7
  b4:	30 37 20 53 	unknown
  b8:	4d 49 00 40 	call  352401b8 <_trap_table-0xadbfe48>
  bc:	28 23 29 66 	unknown
  c0:	65 61 74 75 	call  9585d294 <__end+0x5585073c>
  c4:	72 65 5f 74 	call  c9957e94 <__end+0x8994b33c>
  c8:	65 73 74 73 	call  95cdd294 <__end+0x55cd073c>
  cc:	2e 68 09 31 	unknown
  d0:	2e 36 09 39 	unknown
  d4:	33 2f 30 37 	sethi  %hi(0xbcc0dc00), %i1
  d8:	2f 30 39 20 	sethi  %hi(0xc0e48000), %l7
  dc:	53 4d 49 00 	call  4d3524dc <__end+0xd345984>
  e0:	61 63 6f 6d 	call  858dbe94 <__end+0x458cf33c>
  e4:	70 3a 20 28 	call  c0e88184 <__end+0x80e7b62c>
  e8:	43 44 53 29 	call  d114d8c <_trap_table-0x32eeb274>
  ec:	20 53 50 41 	unknown
  f0:	52 43 6f 6d 	call  490dbea4 <__end+0x90cf34c>
  f4:	70 69 6c 65 	call  c1a5b288 <__end+0x81a4e730>
  f8:	72 73 20 32 	call  c9cc81c0 <__end+0x89cbb668>
  fc:	2e 30 2e 31 	unknown
 100:	20 30 33 20 	unknown
 104:	53 65 70 20 	call  4d95c184 <__end+0xd94f62c>
 108:	31 39 39 32 	sethi  %hi(0xe4e4c800), %i0
 10c:	00 00 47 43 	unimp  0x4743
 110:	43 3a 20 28 	call  ce881b0 <_trap_table-0x33177e50>
 114:	42 43 43 20 	call  90d0d94 <_trap_table-0x36f2f26c>
 118:	34 2e 34 2e 	unknown
 11c:	32 20 72 65 	unknown
 120:	6c 65 61 73 	call  b19586ec <__end+0x7194bb94>
 124:	65 20 31 2e 	call  9480c5dc <__end+0x547ffa84>
 128:	30 2e 35 30 	unknown
 12c:	29 20 34 2e 	sethi  %hi(0x80d0b800), %l4
 130:	34 2e 32 00 	unknown
 134:	00 47 43 43 	unknown
 138:	3a 20 28 42 	unknown
 13c:	43 43 20 34 	call  d0c820c <_trap_table-0x32f37df4>
 140:	2e 34 2e 32 	unknown
 144:	20 72 65 6c 	unknown
 148:	65 61 73 65 	call  9585cedc <__end+0x55850384>
 14c:	20 31 2e 30 	unknown
 150:	2e 35 30 29 	unknown
 154:	20 34 2e 34 	unknown
 158:	2e 32 00 00 	unknown
 15c:	47 43 43 3a 	call  1d0d0e44 <_trap_table-0x22f2f1bc>
 160:	20 28 42 43 	unknown
 164:	43 20 34 2e 	call  c80d21c <_trap_table-0x337f2de4>
 168:	34 2e 32 20 	unknown
 16c:	72 65 6c 65 	call  c995b300 <__end+0x8994e7a8>
 170:	61 73 65 20 	call  85cd95f0 <__end+0x45ccca98>
 174:	31 2e 30 2e 	sethi  %hi(0xb8c0b800), %i0
 178:	35 30 29 20 	sethi  %hi(0xc0a48000), %i2
 17c:	34 2e 34 2e 	unknown
 180:	32 00 00 47 	unknown
 184:	43 43 3a 20 	call  d0cea04 <_trap_table-0x32f315fc>
 188:	28 42 43 43 	unknown
 18c:	20 34 2e 34 	unknown
 190:	2e 32 20 72 	unknown
 194:	65 6c 65 61 	call  95b19718 <__end+0x55b0cbc0>
 198:	73 65 20 31 	call  cd94825c <__end+0x8d93b704>
 19c:	2e 30 2e 35 	unknown
 1a0:	30 29 20 34 	unknown
 1a4:	2e 34 2e 32 	unknown
 1a8:	00 00 47 43 	unimp  0x4743
 1ac:	43 3a 20 28 	call  ce8824c <_trap_table-0x33177db4>
 1b0:	42 43 43 20 	call  90d0e30 <_trap_table-0x36f2f1d0>
 1b4:	34 2e 34 2e 	unknown
 1b8:	32 20 72 65 	unknown
 1bc:	6c 65 61 73 	call  b1958788 <__end+0x7194bc30>
 1c0:	65 20 31 2e 	call  9480c678 <__end+0x547ffb20>
 1c4:	30 2e 35 30 	unknown
 1c8:	29 20 34 2e 	sethi  %hi(0x80d0b800), %l4
 1cc:	34 2e 32 00 	unknown
 1d0:	00 47 43 43 	unknown
 1d4:	3a 20 28 42 	unknown
 1d8:	43 43 20 34 	call  d0c82a8 <_trap_table-0x32f37d58>
 1dc:	2e 34 2e 32 	unknown
 1e0:	20 72 65 6c 	unknown
 1e4:	65 61 73 65 	call  9585cf78 <__end+0x55850420>
 1e8:	20 31 2e 30 	unknown
 1ec:	2e 35 30 29 	unknown
 1f0:	20 34 2e 34 	unknown
 1f4:	2e 32 00 00 	unknown
 1f8:	47 43 43 3a 	call  1d0d0ee0 <_trap_table-0x22f2f120>
 1fc:	20 28 42 43 	unknown
 200:	43 20 34 2e 	call  c80d2b8 <_trap_table-0x337f2d48>
 204:	34 2e 32 20 	unknown
 208:	72 65 6c 65 	call  c995b39c <__end+0x8994e844>
 20c:	61 73 65 20 	call  85cd968c <__end+0x45cccb34>
 210:	31 2e 30 2e 	sethi  %hi(0xb8c0b800), %i0
 214:	35 30 29 20 	sethi  %hi(0xc0a48000), %i2
 218:	34 2e 34 2e 	unknown
 21c:	32 00 00 47 	unknown
 220:	43 43 3a 20 	call  d0ceaa0 <_trap_table-0x32f31560>
 224:	28 42 43 43 	unknown
 228:	20 34 2e 34 	unknown
 22c:	2e 32 20 72 	unknown
 230:	65 6c 65 61 	call  95b197b4 <__end+0x55b0cc5c>
 234:	73 65 20 31 	call  cd9482f8 <__end+0x8d93b7a0>
 238:	2e 30 2e 35 	unknown
 23c:	30 29 20 34 	unknown
 240:	2e 34 2e 32 	unknown
 244:	00 00 47 43 	unimp  0x4743
 248:	43 3a 20 28 	call  ce882e8 <_trap_table-0x33177d18>
 24c:	42 43 43 20 	call  90d0ecc <_trap_table-0x36f2f134>
 250:	34 2e 34 2e 	unknown
 254:	32 20 72 65 	unknown
 258:	6c 65 61 73 	call  b1958824 <__end+0x7194bccc>
 25c:	65 20 31 2e 	call  9480c714 <__end+0x547ffbbc>
 260:	30 2e 35 30 	unknown
 264:	29 20 34 2e 	sethi  %hi(0x80d0b800), %l4
 268:	34 2e 32 00 	unknown
 26c:	00 47 43 43 	unknown
 270:	3a 20 28 42 	unknown
 274:	43 43 20 34 	call  d0c8344 <_trap_table-0x32f37cbc>
 278:	2e 34 2e 32 	unknown
 27c:	20 72 65 6c 	unknown
 280:	65 61 73 65 	call  9585d014 <__end+0x558504bc>
 284:	20 31 2e 30 	unknown
 288:	2e 35 30 29 	unknown
 28c:	20 34 2e 34 	unknown
 290:	2e 32 00 00 	unknown
 294:	47 43 43 3a 	call  1d0d0f7c <_trap_table-0x22f2f084>
 298:	20 28 42 43 	unknown
 29c:	43 20 34 2e 	call  c80d354 <_trap_table-0x337f2cac>
 2a0:	34 2e 32 20 	unknown
 2a4:	72 65 6c 65 	call  c995b438 <__end+0x8994e8e0>
 2a8:	61 73 65 20 	call  85cd9728 <__end+0x45cccbd0>
 2ac:	31 2e 30 2e 	sethi  %hi(0xb8c0b800), %i0
 2b0:	35 30 29 20 	sethi  %hi(0xc0a48000), %i2
 2b4:	34 2e 34 2e 	unknown
 2b8:	32 00 00 47 	unknown
 2bc:	43 43 3a 20 	call  d0ceb3c <_trap_table-0x32f314c4>
 2c0:	28 42 43 43 	unknown
 2c4:	20 34 2e 34 	unknown
 2c8:	2e 32 20 72 	unknown
 2cc:	65 6c 65 61 	call  95b19850 <__end+0x55b0ccf8>
 2d0:	73 65 20 31 	call  cd948394 <__end+0x8d93b83c>
 2d4:	2e 30 2e 35 	unknown
 2d8:	30 29 20 34 	unknown
 2dc:	2e 34 2e 32 	unknown
 2e0:	00 00 47 43 	unimp  0x4743
 2e4:	43 3a 20 28 	call  ce88384 <_trap_table-0x33177c7c>
 2e8:	42 43 43 20 	call  90d0f68 <_trap_table-0x36f2f098>
 2ec:	34 2e 34 2e 	unknown
 2f0:	32 20 72 65 	unknown
 2f4:	6c 65 61 73 	call  b19588c0 <__end+0x7194bd68>
 2f8:	65 20 31 2e 	call  9480c7b0 <__end+0x547ffc58>
 2fc:	30 2e 35 30 	unknown
 300:	29 20 34 2e 	sethi  %hi(0x80d0b800), %l4
 304:	34 2e 32 00 	unknown
 308:	00 47 43 43 	unknown
 30c:	3a 20 28 42 	unknown
 310:	43 43 20 34 	call  d0c83e0 <_trap_table-0x32f37c20>
 314:	2e 34 2e 32 	unknown
 318:	20 72 65 6c 	unknown
 31c:	65 61 73 65 	call  9585d0b0 <__end+0x55850558>
 320:	20 31 2e 30 	unknown
 324:	2e 35 30 29 	unknown
 328:	20 34 2e 34 	unknown
 32c:	2e 32 00 00 	unknown
 330:	47 43 43 3a 	call  1d0d1018 <_trap_table-0x22f2efe8>
 334:	20 28 42 43 	unknown
 338:	43 20 34 2e 	call  c80d3f0 <_trap_table-0x337f2c10>
 33c:	34 2e 32 20 	unknown
 340:	72 65 6c 65 	call  c995b4d4 <__end+0x8994e97c>
 344:	61 73 65 20 	call  85cd97c4 <__end+0x45cccc6c>
 348:	31 2e 30 2e 	sethi  %hi(0xb8c0b800), %i0
 34c:	35 30 29 20 	sethi  %hi(0xc0a48000), %i2
 350:	34 2e 34 2e 	unknown
 354:	32 00 00 47 	unknown
 358:	43 43 3a 20 	call  d0cebd8 <_trap_table-0x32f31428>
 35c:	28 42 43 43 	unknown
 360:	20 34 2e 34 	unknown
 364:	2e 32 20 72 	unknown
 368:	65 6c 65 61 	call  95b198ec <__end+0x55b0cd94>
 36c:	73 65 20 31 	call  cd948430 <__end+0x8d93b8d8>
 370:	2e 30 2e 35 	unknown
 374:	30 29 20 34 	unknown
 378:	2e 34 2e 32 	unknown
 37c:	00 00 47 43 	unimp  0x4743
 380:	43 3a 20 28 	call  ce88420 <_trap_table-0x33177be0>
 384:	42 43 43 20 	call  90d1004 <_trap_table-0x36f2effc>
 388:	34 2e 34 2e 	unknown
 38c:	32 20 72 65 	unknown
 390:	6c 65 61 73 	call  b195895c <__end+0x7194be04>
 394:	65 20 31 2e 	call  9480c84c <__end+0x547ffcf4>
 398:	30 2e 35 30 	unknown
 39c:	29 20 34 2e 	sethi  %hi(0x80d0b800), %l4
 3a0:	34 2e 32 00 	unknown
 3a4:	00 47 43 43 	unknown
 3a8:	3a 20 28 42 	unknown
 3ac:	43 43 20 34 	call  d0c847c <_trap_table-0x32f37b84>
 3b0:	2e 34 2e 32 	unknown
 3b4:	20 72 65 6c 	unknown
 3b8:	65 61 73 65 	call  9585d14c <__end+0x558505f4>
 3bc:	20 31 2e 30 	unknown
 3c0:	2e 35 30 29 	unknown
 3c4:	20 34 2e 34 	unknown
 3c8:	2e 32 00 00 	unknown
 3cc:	47 43 43 3a 	call  1d0d10b4 <_trap_table-0x22f2ef4c>
 3d0:	20 28 42 43 	unknown
 3d4:	43 20 34 2e 	call  c80d48c <_trap_table-0x337f2b74>
 3d8:	34 2e 32 20 	unknown
 3dc:	72 65 6c 65 	call  c995b570 <__end+0x8994ea18>
 3e0:	61 73 65 20 	call  85cd9860 <__end+0x45cccd08>
 3e4:	31 2e 30 2e 	sethi  %hi(0xb8c0b800), %i0
 3e8:	35 30 29 20 	sethi  %hi(0xc0a48000), %i2
 3ec:	34 2e 34 2e 	unknown
 3f0:	32 00 00 47 	unknown
 3f4:	43 43 3a 20 	call  d0cec74 <_trap_table-0x32f3138c>
 3f8:	28 42 43 43 	unknown
 3fc:	20 34 2e 34 	unknown
 400:	2e 32 20 72 	unknown
 404:	65 6c 65 61 	call  95b19988 <__end+0x55b0ce30>
 408:	73 65 20 31 	call  cd9484cc <__end+0x8d93b974>
 40c:	2e 30 2e 35 	unknown
 410:	30 29 20 34 	unknown
 414:	2e 34 2e 32 	unknown
 418:	00 00 47 43 	unimp  0x4743
 41c:	43 3a 20 28 	call  ce884bc <_trap_table-0x33177b44>
 420:	42 43 43 20 	call  90d10a0 <_trap_table-0x36f2ef60>
 424:	34 2e 34 2e 	unknown
 428:	32 20 72 65 	unknown
 42c:	6c 65 61 73 	call  b19589f8 <__end+0x7194bea0>
 430:	65 20 31 2e 	call  9480c8e8 <__end+0x547ffd90>
 434:	30 2e 35 30 	unknown
 438:	29 20 34 2e 	sethi  %hi(0x80d0b800), %l4
 43c:	34 2e 32 00 	unknown
 440:	00 47 43 43 	unknown
 444:	3a 20 28 42 	unknown
 448:	43 43 20 34 	call  d0c8518 <_trap_table-0x32f37ae8>
 44c:	2e 34 2e 32 	unknown
 450:	20 72 65 6c 	unknown
 454:	65 61 73 65 	call  9585d1e8 <__end+0x55850690>
 458:	20 31 2e 30 	unknown
 45c:	2e 35 30 29 	unknown
 460:	20 34 2e 34 	unknown
 464:	2e 32 00 00 	unknown
 468:	47 43 43 3a 	call  1d0d1150 <_trap_table-0x22f2eeb0>
 46c:	20 28 42 43 	unknown
 470:	43 20 34 2e 	call  c80d528 <_trap_table-0x337f2ad8>
 474:	34 2e 32 20 	unknown
 478:	72 65 6c 65 	call  c995b60c <__end+0x8994eab4>
 47c:	61 73 65 20 	call  85cd98fc <__end+0x45cccda4>
 480:	31 2e 30 2e 	sethi  %hi(0xb8c0b800), %i0
 484:	35 30 29 20 	sethi  %hi(0xc0a48000), %i2
 488:	34 2e 34 2e 	unknown
 48c:	32 00 00 47 	unknown
 490:	43 43 3a 20 	call  d0ced10 <_trap_table-0x32f312f0>
 494:	28 42 43 43 	unknown
 498:	20 34 2e 34 	unknown
 49c:	2e 32 20 72 	unknown
 4a0:	65 6c 65 61 	call  95b19a24 <__end+0x55b0cecc>
 4a4:	73 65 20 31 	call  cd948568 <__end+0x8d93ba10>
 4a8:	2e 30 2e 35 	unknown
 4ac:	30 29 20 34 	unknown
 4b0:	2e 34 2e 32 	unknown
 4b4:	00 00 47 43 	unimp  0x4743
 4b8:	43 3a 20 28 	call  ce88558 <_trap_table-0x33177aa8>
 4bc:	42 43 43 20 	call  90d113c <_trap_table-0x36f2eec4>
 4c0:	34 2e 34 2e 	unknown
 4c4:	32 20 72 65 	unknown
 4c8:	6c 65 61 73 	call  b1958a94 <__end+0x7194bf3c>
 4cc:	65 20 31 2e 	call  9480c984 <__end+0x547ffe2c>
 4d0:	30 2e 35 30 	unknown
 4d4:	29 20 34 2e 	sethi  %hi(0x80d0b800), %l4
 4d8:	34 2e 32 00 	unknown
 4dc:	00 47 43 43 	unknown
 4e0:	3a 20 28 42 	unknown
 4e4:	43 43 20 34 	call  d0c85b4 <_trap_table-0x32f37a4c>
 4e8:	2e 34 2e 32 	unknown
 4ec:	20 72 65 6c 	unknown
 4f0:	65 61 73 65 	call  9585d284 <__end+0x5585072c>
 4f4:	20 31 2e 30 	unknown
 4f8:	2e 35 30 29 	unknown
 4fc:	20 34 2e 34 	unknown
 500:	2e 32 00 00 	unknown
 504:	47 43 43 3a 	call  1d0d11ec <_trap_table-0x22f2ee14>
 508:	20 28 42 43 	unknown
 50c:	43 20 34 2e 	call  c80d5c4 <_trap_table-0x337f2a3c>
 510:	34 2e 32 20 	unknown
 514:	72 65 6c 65 	call  c995b6a8 <__end+0x8994eb50>
 518:	61 73 65 20 	call  85cd9998 <__end+0x45ccce40>
 51c:	31 2e 30 2e 	sethi  %hi(0xb8c0b800), %i0
 520:	35 30 29 20 	sethi  %hi(0xc0a48000), %i2
 524:	34 2e 34 2e 	unknown
 528:	32 00 00 47 	unknown
 52c:	43 43 3a 20 	call  d0cedac <_trap_table-0x32f31254>
 530:	28 42 43 43 	unknown
 534:	20 34 2e 34 	unknown
 538:	2e 32 20 72 	unknown
 53c:	65 6c 65 61 	call  95b19ac0 <__end+0x55b0cf68>
 540:	73 65 20 31 	call  cd948604 <__end+0x8d93baac>
 544:	2e 30 2e 35 	unknown
 548:	30 29 20 34 	unknown
 54c:	2e 34 2e 32 	unknown
 550:	00 00 47 43 	unimp  0x4743
 554:	43 3a 20 28 	call  ce885f4 <_trap_table-0x33177a0c>
 558:	42 43 43 20 	call  90d11d8 <_trap_table-0x36f2ee28>
 55c:	34 2e 34 2e 	unknown
 560:	32 20 72 65 	unknown
 564:	6c 65 61 73 	call  b1958b30 <__end+0x7194bfd8>
 568:	65 20 31 2e 	call  9480ca20 <__end+0x547ffec8>
 56c:	30 2e 35 30 	unknown
 570:	29 20 34 2e 	sethi  %hi(0x80d0b800), %l4
 574:	34 2e 32 00 	unknown
 578:	00 47 43 43 	unknown
 57c:	3a 20 28 42 	unknown
 580:	43 43 20 34 	call  d0c8650 <_trap_table-0x32f379b0>
 584:	2e 34 2e 32 	unknown
 588:	20 72 65 6c 	unknown
 58c:	65 61 73 65 	call  9585d320 <__end+0x558507c8>
 590:	20 31 2e 30 	unknown
 594:	2e 35 30 29 	unknown
 598:	20 34 2e 34 	unknown
 59c:	2e 32 00 00 	unknown
 5a0:	47 43 43 3a 	call  1d0d1288 <_trap_table-0x22f2ed78>
 5a4:	20 28 42 43 	unknown
 5a8:	43 20 34 2e 	call  c80d660 <_trap_table-0x337f29a0>
 5ac:	34 2e 32 20 	unknown
 5b0:	72 65 6c 65 	call  c995b744 <__end+0x8994ebec>
 5b4:	61 73 65 20 	call  85cd9a34 <__end+0x45cccedc>
 5b8:	31 2e 30 2e 	sethi  %hi(0xb8c0b800), %i0
 5bc:	35 30 29 20 	sethi  %hi(0xc0a48000), %i2
 5c0:	34 2e 34 2e 	unknown
 5c4:	32 00 00 47 	unknown
 5c8:	43 43 3a 20 	call  d0cee48 <_trap_table-0x32f311b8>
 5cc:	28 42 43 43 	unknown
 5d0:	20 34 2e 34 	unknown
 5d4:	2e 32 20 72 	unknown
 5d8:	65 6c 65 61 	call  95b19b5c <__end+0x55b0d004>
 5dc:	73 65 20 31 	call  cd9486a0 <__end+0x8d93bb48>
 5e0:	2e 30 2e 35 	unknown
 5e4:	30 29 20 34 	unknown
 5e8:	2e 34 2e 32 	unknown
 5ec:	00 00 47 43 	unimp  0x4743
 5f0:	43 3a 20 28 	call  ce88690 <_trap_table-0x33177970>
 5f4:	42 43 43 20 	call  90d1274 <_trap_table-0x36f2ed8c>
 5f8:	34 2e 34 2e 	unknown
 5fc:	32 20 72 65 	unknown
 600:	6c 65 61 73 	call  b1958bcc <__end+0x7194c074>
 604:	65 20 31 2e 	call  9480cabc <__end+0x547fff64>
 608:	30 2e 35 30 	unknown
 60c:	29 20 34 2e 	sethi  %hi(0x80d0b800), %l4
 610:	34 2e 32 00 	unknown
 614:	00 47 43 43 	unknown
 618:	3a 20 28 42 	unknown
 61c:	43 43 20 34 	call  d0c86ec <_trap_table-0x32f37914>
 620:	2e 34 2e 32 	unknown
 624:	20 72 65 6c 	unknown
 628:	65 61 73 65 	call  9585d3bc <__end+0x55850864>
 62c:	20 31 2e 30 	unknown
 630:	2e 35 30 29 	unknown
 634:	20 34 2e 34 	unknown
 638:	2e 32 00 00 	unknown
 63c:	47 43 43 3a 	call  1d0d1324 <_trap_table-0x22f2ecdc>
 640:	20 28 42 43 	unknown
 644:	43 20 34 2e 	call  c80d6fc <_trap_table-0x337f2904>
 648:	34 2e 32 20 	unknown
 64c:	72 65 6c 65 	call  c995b7e0 <__end+0x8994ec88>
 650:	61 73 65 20 	call  85cd9ad0 <__end+0x45cccf78>
 654:	31 2e 30 2e 	sethi  %hi(0xb8c0b800), %i0
 658:	35 30 29 20 	sethi  %hi(0xc0a48000), %i2
 65c:	34 2e 34 2e 	unknown
 660:	32 00 00 47 	unknown
 664:	43 43 3a 20 	call  d0ceee4 <_trap_table-0x32f3111c>
 668:	28 42 43 43 	unknown
 66c:	20 34 2e 34 	unknown
 670:	2e 32 20 72 	unknown
 674:	65 6c 65 61 	call  95b19bf8 <__end+0x55b0d0a0>
 678:	73 65 20 31 	call  cd94873c <__end+0x8d93bbe4>
 67c:	2e 30 2e 35 	unknown
 680:	30 29 20 34 	unknown
 684:	2e 34 2e 32 	unknown
 688:	00 00 47 43 	unimp  0x4743
 68c:	43 3a 20 28 	call  ce8872c <_trap_table-0x331778d4>
 690:	42 43 43 20 	call  90d1310 <_trap_table-0x36f2ecf0>
 694:	34 2e 34 2e 	unknown
 698:	32 20 72 65 	unknown
 69c:	6c 65 61 73 	call  b1958c68 <__end+0x7194c110>
 6a0:	65 20 31 2e 	call  9480cb58 <__end+0x54800000>
 6a4:	30 2e 35 30 	unknown
 6a8:	29 20 34 2e 	sethi  %hi(0x80d0b800), %l4
 6ac:	34 2e 32 00 	unknown
 6b0:	00 47 43 43 	unknown
 6b4:	3a 20 28 42 	unknown
 6b8:	43 43 20 34 	call  d0c8788 <_trap_table-0x32f37878>
 6bc:	2e 34 2e 32 	unknown
 6c0:	20 72 65 6c 	unknown
 6c4:	65 61 73 65 	call  9585d458 <__end+0x55850900>
 6c8:	20 31 2e 30 	unknown
 6cc:	2e 35 30 29 	unknown
 6d0:	20 34 2e 34 	unknown
 6d4:	2e 32 00 00 	unknown
 6d8:	47 43 43 3a 	call  1d0d13c0 <_trap_table-0x22f2ec40>
 6dc:	20 28 42 43 	unknown
 6e0:	43 20 34 2e 	call  c80d798 <_trap_table-0x337f2868>
 6e4:	34 2e 32 20 	unknown
 6e8:	72 65 6c 65 	call  c995b87c <__end+0x8994ed24>
 6ec:	61 73 65 20 	call  85cd9b6c <__end+0x45ccd014>
 6f0:	31 2e 30 2e 	sethi  %hi(0xb8c0b800), %i0
 6f4:	35 30 29 20 	sethi  %hi(0xc0a48000), %i2
 6f8:	34 2e 34 2e 	unknown
 6fc:	32 00 00 47 	unknown
 700:	43 43 3a 20 	call  d0cef80 <_trap_table-0x32f31080>
 704:	28 42 43 43 	unknown
 708:	20 34 2e 34 	unknown
 70c:	2e 32 20 72 	unknown
 710:	65 6c 65 61 	call  95b19c94 <__end+0x55b0d13c>
 714:	73 65 20 31 	call  cd9487d8 <__end+0x8d93bc80>
 718:	2e 30 2e 35 	unknown
 71c:	30 29 20 34 	unknown
 720:	2e 34 2e 32 	unknown
 724:	00 00 47 43 	unimp  0x4743
 728:	43 3a 20 28 	call  ce887c8 <_trap_table-0x33177838>
 72c:	42 43 43 20 	call  90d13ac <_trap_table-0x36f2ec54>
 730:	34 2e 34 2e 	unknown
 734:	32 20 72 65 	unknown
 738:	6c 65 61 73 	call  b1958d04 <__end+0x7194c1ac>
 73c:	65 20 31 2e 	call  9480cbf4 <__end+0x5480009c>
 740:	30 2e 35 30 	unknown
 744:	29 20 34 2e 	sethi  %hi(0x80d0b800), %l4
 748:	34 2e 32 00 	unknown
 74c:	00 47 43 43 	unknown
 750:	3a 20 28 42 	unknown
 754:	43 43 20 34 	call  d0c8824 <_trap_table-0x32f377dc>
 758:	2e 34 2e 32 	unknown
 75c:	20 72 65 6c 	unknown
 760:	65 61 73 65 	call  9585d4f4 <__end+0x5585099c>
 764:	20 31 2e 30 	unknown
 768:	2e 35 30 29 	unknown
 76c:	20 34 2e 34 	unknown
 770:	2e 32 00 00 	unknown
 774:	47 43 43 3a 	call  1d0d145c <_trap_table-0x22f2eba4>
 778:	20 28 42 43 	unknown
 77c:	43 20 34 2e 	call  c80d834 <_trap_table-0x337f27cc>
 780:	34 2e 32 20 	unknown
 784:	72 65 6c 65 	call  c995b918 <__end+0x8994edc0>
 788:	61 73 65 20 	call  85cd9c08 <__end+0x45ccd0b0>
 78c:	31 2e 30 2e 	sethi  %hi(0xb8c0b800), %i0
 790:	35 30 29 20 	sethi  %hi(0xc0a48000), %i2
 794:	34 2e 34 2e 	unknown
 798:	32 00 00 47 	unknown
 79c:	43 43 3a 20 	call  d0cf01c <_trap_table-0x32f30fe4>
 7a0:	28 42 43 43 	unknown
 7a4:	20 34 2e 34 	unknown
 7a8:	2e 32 20 72 	unknown
 7ac:	65 6c 65 61 	call  95b19d30 <__end+0x55b0d1d8>
 7b0:	73 65 20 31 	call  cd948874 <__end+0x8d93bd1c>
 7b4:	2e 30 2e 35 	unknown
 7b8:	30 29 20 34 	unknown
 7bc:	2e 34 2e 32 	unknown
 7c0:	00 00 47 43 	unimp  0x4743
 7c4:	43 3a 20 28 	call  ce88864 <_trap_table-0x3317779c>
 7c8:	42 43 43 20 	call  90d1448 <_trap_table-0x36f2ebb8>
 7cc:	34 2e 34 2e 	unknown
 7d0:	32 20 72 65 	unknown
 7d4:	6c 65 61 73 	call  b1958da0 <__end+0x7194c248>
 7d8:	65 20 31 2e 	call  9480cc90 <__end+0x54800138>
 7dc:	30 2e 35 30 	unknown
 7e0:	29 20 34 2e 	sethi  %hi(0x80d0b800), %l4
 7e4:	34 2e 32 00 	unknown
 7e8:	00 47 43 43 	unknown
 7ec:	3a 20 28 42 	unknown
 7f0:	43 43 20 34 	call  d0c88c0 <_trap_table-0x32f37740>
 7f4:	2e 34 2e 32 	unknown
 7f8:	20 72 65 6c 	unknown
 7fc:	65 61 73 65 	call  9585d590 <__end+0x55850a38>
 800:	20 31 2e 30 	unknown
 804:	2e 35 30 29 	unknown
 808:	20 34 2e 34 	unknown
 80c:	2e 32 00 00 	unknown
 810:	47 43 43 3a 	call  1d0d14f8 <_trap_table-0x22f2eb08>
 814:	20 28 42 43 	unknown
 818:	43 20 34 2e 	call  c80d8d0 <_trap_table-0x337f2730>
 81c:	34 2e 32 20 	unknown
 820:	72 65 6c 65 	call  c995b9b4 <__end+0x8994ee5c>
 824:	61 73 65 20 	call  85cd9ca4 <__end+0x45ccd14c>
 828:	31 2e 30 2e 	sethi  %hi(0xb8c0b800), %i0
 82c:	35 30 29 20 	sethi  %hi(0xc0a48000), %i2
 830:	34 2e 34 2e 	unknown
 834:	32 00 00 47 	unknown
 838:	43 43 3a 20 	call  d0cf0b8 <_trap_table-0x32f30f48>
 83c:	28 42 43 43 	unknown
 840:	20 34 2e 34 	unknown
 844:	2e 32 20 72 	unknown
 848:	65 6c 65 61 	call  95b19dcc <__end+0x55b0d274>
 84c:	73 65 20 31 	call  cd948910 <__end+0x8d93bdb8>
 850:	2e 30 2e 35 	unknown
 854:	30 29 20 34 	unknown
 858:	2e 34 2e 32 	unknown
 85c:	00 00 47 43 	unimp  0x4743
 860:	43 3a 20 28 	call  ce88900 <_trap_table-0x33177700>
 864:	42 43 43 20 	call  90d14e4 <_trap_table-0x36f2eb1c>
 868:	34 2e 34 2e 	unknown
 86c:	32 20 72 65 	unknown
 870:	6c 65 61 73 	call  b1958e3c <__end+0x7194c2e4>
 874:	65 20 31 2e 	call  9480cd2c <__end+0x548001d4>
 878:	30 2e 35 30 	unknown
 87c:	29 20 34 2e 	sethi  %hi(0x80d0b800), %l4
 880:	34 2e 32 00 	unknown
 884:	00 47 43 43 	unknown
 888:	3a 20 28 42 	unknown
 88c:	43 43 20 34 	call  d0c895c <_trap_table-0x32f376a4>
 890:	2e 34 2e 32 	unknown
 894:	20 72 65 6c 	unknown
 898:	65 61 73 65 	call  9585d62c <__end+0x55850ad4>
 89c:	20 31 2e 30 	unknown
 8a0:	2e 35 30 29 	unknown
 8a4:	20 34 2e 34 	unknown
 8a8:	2e 32 00 00 	unknown
 8ac:	47 43 43 3a 	call  1d0d1594 <_trap_table-0x22f2ea6c>
 8b0:	20 28 42 43 	unknown
 8b4:	43 20 34 2e 	call  c80d96c <_trap_table-0x337f2694>
 8b8:	34 2e 32 20 	unknown
 8bc:	72 65 6c 65 	call  c995ba50 <__end+0x8994eef8>
 8c0:	61 73 65 20 	call  85cd9d40 <__end+0x45ccd1e8>
 8c4:	31 2e 30 2e 	sethi  %hi(0xb8c0b800), %i0
 8c8:	35 30 29 20 	sethi  %hi(0xc0a48000), %i2
 8cc:	34 2e 34 2e 	unknown
 8d0:	32 00 00 47 	unknown
 8d4:	43 43 3a 20 	call  d0cf154 <_trap_table-0x32f30eac>
 8d8:	28 42 43 43 	unknown
 8dc:	20 34 2e 34 	unknown
 8e0:	2e 32 20 72 	unknown
 8e4:	65 6c 65 61 	call  95b19e68 <__end+0x55b0d310>
 8e8:	73 65 20 31 	call  cd9489ac <__end+0x8d93be54>
 8ec:	2e 30 2e 35 	unknown
 8f0:	30 29 20 34 	unknown
 8f4:	2e 34 2e 32 	unknown
 8f8:	00 00 47 43 	unimp  0x4743
 8fc:	43 3a 20 28 	call  ce8899c <_trap_table-0x33177664>
 900:	42 43 43 20 	call  90d1580 <_trap_table-0x36f2ea80>
 904:	34 2e 34 2e 	unknown
 908:	32 20 72 65 	unknown
 90c:	6c 65 61 73 	call  b1958ed8 <__end+0x7194c380>
 910:	65 20 31 2e 	call  9480cdc8 <__end+0x54800270>
 914:	30 2e 35 30 	unknown
 918:	29 20 34 2e 	sethi  %hi(0x80d0b800), %l4
 91c:	34 2e 32 00 	unknown
 920:	00 47 43 43 	unknown
 924:	3a 20 28 42 	unknown
 928:	43 43 20 34 	call  d0c89f8 <_trap_table-0x32f37608>
 92c:	2e 34 2e 32 	unknown
 930:	20 72 65 6c 	unknown
 934:	65 61 73 65 	call  9585d6c8 <__end+0x55850b70>
 938:	20 31 2e 30 	unknown
 93c:	2e 35 30 29 	unknown
 940:	20 34 2e 34 	unknown
 944:	2e 32 00 00 	unknown
 948:	47 43 43 3a 	call  1d0d1630 <_trap_table-0x22f2e9d0>
 94c:	20 28 42 43 	unknown
 950:	43 20 34 2e 	call  c80da08 <_trap_table-0x337f25f8>
 954:	34 2e 32 20 	unknown
 958:	72 65 6c 65 	call  c995baec <__end+0x8994ef94>
 95c:	61 73 65 20 	call  85cd9ddc <__end+0x45ccd284>
 960:	31 2e 30 2e 	sethi  %hi(0xb8c0b800), %i0
 964:	35 30 29 20 	sethi  %hi(0xc0a48000), %i2
 968:	34 2e 34 2e 	unknown
 96c:	32 00 00 47 	unknown
 970:	43 43 3a 20 	call  d0cf1f0 <_trap_table-0x32f30e10>
 974:	28 42 43 43 	unknown
 978:	20 34 2e 34 	unknown
 97c:	2e 32 20 72 	unknown
 980:	65 6c 65 61 	call  95b19f04 <__end+0x55b0d3ac>
 984:	73 65 20 31 	call  cd948a48 <__end+0x8d93bef0>
 988:	2e 30 2e 35 	unknown
 98c:	30 29 20 34 	unknown
 990:	2e 34 2e 32 	unknown
 994:	00 00 47 43 	unimp  0x4743
 998:	43 3a 20 28 	call  ce88a38 <_trap_table-0x331775c8>
 99c:	42 43 43 20 	call  90d161c <_trap_table-0x36f2e9e4>
 9a0:	34 2e 34 2e 	unknown
 9a4:	32 20 72 65 	unknown
 9a8:	6c 65 61 73 	call  b1958f74 <__end+0x7194c41c>
 9ac:	65 20 31 2e 	call  9480ce64 <__end+0x5480030c>
 9b0:	30 2e 35 30 	unknown
 9b4:	29 20 34 2e 	sethi  %hi(0x80d0b800), %l4
 9b8:	34 2e 32 00 	unknown
 9bc:	00 47 43 43 	unknown
 9c0:	3a 20 28 42 	unknown
 9c4:	43 43 20 34 	call  d0c8a94 <_trap_table-0x32f3756c>
 9c8:	2e 34 2e 32 	unknown
 9cc:	20 72 65 6c 	unknown
 9d0:	65 61 73 65 	call  9585d764 <__end+0x55850c0c>
 9d4:	20 31 2e 30 	unknown
 9d8:	2e 35 30 29 	unknown
 9dc:	20 34 2e 34 	unknown
 9e0:	2e 32 00 00 	unknown
 9e4:	47 43 43 3a 	call  1d0d16cc <_trap_table-0x22f2e934>
 9e8:	20 28 42 43 	unknown
 9ec:	43 20 34 2e 	call  c80daa4 <_trap_table-0x337f255c>
 9f0:	34 2e 32 20 	unknown
 9f4:	72 65 6c 65 	call  c995bb88 <__end+0x8994f030>
 9f8:	61 73 65 20 	call  85cd9e78 <__end+0x45ccd320>
 9fc:	31 2e 30 2e 	sethi  %hi(0xb8c0b800), %i0
 a00:	35 30 29 20 	sethi  %hi(0xc0a48000), %i2
 a04:	34 2e 34 2e 	unknown
 a08:	32 00 00 47 	unknown
 a0c:	43 43 3a 20 	call  d0cf28c <_trap_table-0x32f30d74>
 a10:	28 42 43 43 	unknown
 a14:	20 34 2e 34 	unknown
 a18:	2e 32 20 72 	unknown
 a1c:	65 6c 65 61 	call  95b19fa0 <__end+0x55b0d448>
 a20:	73 65 20 31 	call  cd948ae4 <__end+0x8d93bf8c>
 a24:	2e 30 2e 35 	unknown
 a28:	30 29 20 34 	unknown
 a2c:	2e 34 2e 32 	unknown
 a30:	00 00 47 43 	unimp  0x4743
 a34:	43 3a 20 28 	call  ce88ad4 <_trap_table-0x3317752c>
 a38:	42 43 43 20 	call  90d16b8 <_trap_table-0x36f2e948>
 a3c:	34 2e 34 2e 	unknown
 a40:	32 20 72 65 	unknown
 a44:	6c 65 61 73 	call  b1959010 <__end+0x7194c4b8>
 a48:	65 20 31 2e 	call  9480cf00 <__end+0x548003a8>
 a4c:	30 2e 35 30 	unknown
 a50:	29 20 34 2e 	sethi  %hi(0x80d0b800), %l4
 a54:	34 2e 32 00 	unknown
 a58:	00 47 43 43 	unknown
 a5c:	3a 20 28 42 	unknown
 a60:	43 43 20 34 	call  d0c8b30 <_trap_table-0x32f374d0>
 a64:	2e 34 2e 32 	unknown
 a68:	20 72 65 6c 	unknown
 a6c:	65 61 73 65 	call  9585d800 <__end+0x55850ca8>
 a70:	20 31 2e 30 	unknown
 a74:	2e 35 30 29 	unknown
 a78:	20 34 2e 34 	unknown
 a7c:	2e 32 00 00 	unknown
 a80:	47 43 43 3a 	call  1d0d1768 <_trap_table-0x22f2e898>
 a84:	20 28 42 43 	unknown
 a88:	43 20 34 2e 	call  c80db40 <_trap_table-0x337f24c0>
 a8c:	34 2e 32 20 	unknown
 a90:	72 65 6c 65 	call  c995bc24 <__end+0x8994f0cc>
 a94:	61 73 65 20 	call  85cd9f14 <__end+0x45ccd3bc>
 a98:	31 2e 30 2e 	sethi  %hi(0xb8c0b800), %i0
 a9c:	35 30 29 20 	sethi  %hi(0xc0a48000), %i2
 aa0:	34 2e 34 2e 	unknown
 aa4:	32 00 00 47 	unknown
 aa8:	43 43 3a 20 	call  d0cf328 <_trap_table-0x32f30cd8>
 aac:	28 42 43 43 	unknown
 ab0:	20 34 2e 34 	unknown
 ab4:	2e 32 20 72 	unknown
 ab8:	65 6c 65 61 	call  95b1a03c <__end+0x55b0d4e4>
 abc:	73 65 20 31 	call  cd948b80 <__end+0x8d93c028>
 ac0:	2e 30 2e 35 	unknown
 ac4:	30 29 20 34 	unknown
 ac8:	2e 34 2e 32 	unknown
 acc:	00 00 47 43 	unimp  0x4743
 ad0:	43 3a 20 28 	call  ce88b70 <_trap_table-0x33177490>
 ad4:	42 43 43 20 	call  90d1754 <_trap_table-0x36f2e8ac>
 ad8:	34 2e 34 2e 	unknown
 adc:	32 20 72 65 	unknown
 ae0:	6c 65 61 73 	call  b19590ac <__end+0x7194c554>
 ae4:	65 20 31 2e 	call  9480cf9c <__end+0x54800444>
 ae8:	30 2e 35 30 	unknown
 aec:	29 20 34 2e 	sethi  %hi(0x80d0b800), %l4
 af0:	34 2e 32 00 	unknown
 af4:	00 47 43 43 	unknown
 af8:	3a 20 28 42 	unknown
 afc:	43 43 20 34 	call  d0c8bcc <_trap_table-0x32f37434>
 b00:	2e 34 2e 32 	unknown
 b04:	20 72 65 6c 	unknown
 b08:	65 61 73 65 	call  9585d89c <__end+0x55850d44>
 b0c:	20 31 2e 30 	unknown
 b10:	2e 35 30 29 	unknown
 b14:	20 34 2e 34 	unknown
 b18:	2e 32 00 00 	unknown
 b1c:	47 43 43 3a 	call  1d0d1804 <_trap_table-0x22f2e7fc>
 b20:	20 28 42 43 	unknown
 b24:	43 20 34 2e 	call  c80dbdc <_trap_table-0x337f2424>
 b28:	34 2e 32 20 	unknown
 b2c:	72 65 6c 65 	call  c995bcc0 <__end+0x8994f168>
 b30:	61 73 65 20 	call  85cd9fb0 <__end+0x45ccd458>
 b34:	31 2e 30 2e 	sethi  %hi(0xb8c0b800), %i0
 b38:	35 30 29 20 	sethi  %hi(0xc0a48000), %i2
 b3c:	34 2e 34 2e 	unknown
 b40:	32 00 00 47 	unknown
 b44:	43 43 3a 20 	call  d0cf3c4 <_trap_table-0x32f30c3c>
 b48:	28 42 43 43 	unknown
 b4c:	20 34 2e 34 	unknown
 b50:	2e 32 20 72 	unknown
 b54:	65 6c 65 61 	call  95b1a0d8 <__end+0x55b0d580>
 b58:	73 65 20 31 	call  cd948c1c <__end+0x8d93c0c4>
 b5c:	2e 30 2e 35 	unknown
 b60:	30 29 20 34 	unknown
 b64:	2e 34 2e 32 	unknown
 b68:	00 00 47 43 	unimp  0x4743
 b6c:	43 3a 20 28 	call  ce88c0c <_trap_table-0x331773f4>
 b70:	42 43 43 20 	call  90d17f0 <_trap_table-0x36f2e810>
 b74:	34 2e 34 2e 	unknown
 b78:	32 20 72 65 	unknown
 b7c:	6c 65 61 73 	call  b1959148 <__end+0x7194c5f0>
 b80:	65 20 31 2e 	call  9480d038 <__end+0x548004e0>
 b84:	30 2e 35 30 	unknown
 b88:	29 20 34 2e 	sethi  %hi(0x80d0b800), %l4
 b8c:	34 2e 32 00 	unknown
 b90:	00 47 43 43 	unknown
 b94:	3a 20 28 42 	unknown
 b98:	43 43 20 34 	call  d0c8c68 <_trap_table-0x32f37398>
 b9c:	2e 34 2e 32 	unknown
 ba0:	20 72 65 6c 	unknown
 ba4:	65 61 73 65 	call  9585d938 <__end+0x55850de0>
 ba8:	20 31 2e 30 	unknown
 bac:	2e 35 30 29 	unknown
 bb0:	20 34 2e 34 	unknown
 bb4:	2e 32 00 00 	unknown
 bb8:	47 43 43 3a 	call  1d0d18a0 <_trap_table-0x22f2e760>
 bbc:	20 28 42 43 	unknown
 bc0:	43 20 34 2e 	call  c80dc78 <_trap_table-0x337f2388>
 bc4:	34 2e 32 20 	unknown
 bc8:	72 65 6c 65 	call  c995bd5c <__end+0x8994f204>
 bcc:	61 73 65 20 	call  85cda04c <__end+0x45ccd4f4>
 bd0:	31 2e 30 2e 	sethi  %hi(0xb8c0b800), %i0
 bd4:	35 30 29 20 	sethi  %hi(0xc0a48000), %i2
 bd8:	34 2e 34 2e 	unknown
 bdc:	32 00 00 47 	unknown
 be0:	43 43 3a 20 	call  d0cf460 <_trap_table-0x32f30ba0>
 be4:	28 42 43 43 	unknown
 be8:	20 34 2e 34 	unknown
 bec:	2e 32 20 72 	unknown
 bf0:	65 6c 65 61 	call  95b1a174 <__end+0x55b0d61c>
 bf4:	73 65 20 31 	call  cd948cb8 <__end+0x8d93c160>
 bf8:	2e 30 2e 35 	unknown
 bfc:	30 29 20 34 	unknown
 c00:	2e 34 2e 32 	unknown
 c04:	00 00 47 43 	unimp  0x4743
 c08:	43 3a 20 28 	call  ce88ca8 <_trap_table-0x33177358>
 c0c:	42 43 43 20 	call  90d188c <_trap_table-0x36f2e774>
 c10:	34 2e 34 2e 	unknown
 c14:	32 20 72 65 	unknown
 c18:	6c 65 61 73 	call  b19591e4 <__end+0x7194c68c>
 c1c:	65 20 31 2e 	call  9480d0d4 <__end+0x5480057c>
 c20:	30 2e 35 30 	unknown
 c24:	29 20 34 2e 	sethi  %hi(0x80d0b800), %l4
 c28:	34 2e 32 00 	unknown
 c2c:	00 47 43 43 	unknown
 c30:	3a 20 28 42 	unknown
 c34:	43 43 20 34 	call  d0c8d04 <_trap_table-0x32f372fc>
 c38:	2e 34 2e 32 	unknown
 c3c:	20 72 65 6c 	unknown
 c40:	65 61 73 65 	call  9585d9d4 <__end+0x55850e7c>
 c44:	20 31 2e 30 	unknown
 c48:	2e 35 30 29 	unknown
 c4c:	20 34 2e 34 	unknown
 c50:	2e 32 00 00 	unknown
 c54:	47 43 43 3a 	call  1d0d193c <_trap_table-0x22f2e6c4>
 c58:	20 28 42 43 	unknown
 c5c:	43 20 34 2e 	call  c80dd14 <_trap_table-0x337f22ec>
 c60:	34 2e 32 20 	unknown
 c64:	72 65 6c 65 	call  c995bdf8 <__end+0x8994f2a0>
 c68:	61 73 65 20 	call  85cda0e8 <__end+0x45ccd590>
 c6c:	31 2e 30 2e 	sethi  %hi(0xb8c0b800), %i0
 c70:	35 30 29 20 	sethi  %hi(0xc0a48000), %i2
 c74:	34 2e 34 2e 	unknown
 c78:	32 00 00 47 	unknown
 c7c:	43 43 3a 20 	call  d0cf4fc <_trap_table-0x32f30b04>
 c80:	28 42 43 43 	unknown
 c84:	20 34 2e 34 	unknown
 c88:	2e 32 20 72 	unknown
 c8c:	65 6c 65 61 	call  95b1a210 <__end+0x55b0d6b8>
 c90:	73 65 20 31 	call  cd948d54 <__end+0x8d93c1fc>
 c94:	2e 30 2e 35 	unknown
 c98:	30 29 20 34 	unknown
 c9c:	2e 34 2e 32 	unknown
 ca0:	00 00 47 43 	unimp  0x4743
 ca4:	43 3a 20 28 	call  ce88d44 <_trap_table-0x331772bc>
 ca8:	42 43 43 20 	call  90d1928 <_trap_table-0x36f2e6d8>
 cac:	34 2e 34 2e 	unknown
 cb0:	32 20 72 65 	unknown
 cb4:	6c 65 61 73 	call  b1959280 <__end+0x7194c728>
 cb8:	65 20 31 2e 	call  9480d170 <__end+0x54800618>
 cbc:	30 2e 35 30 	unknown
 cc0:	29 20 34 2e 	sethi  %hi(0x80d0b800), %l4
 cc4:	34 2e 32 00 	unknown
 cc8:	00 47 43 43 	unknown
 ccc:	3a 20 28 42 	unknown
 cd0:	43 43 20 34 	call  d0c8da0 <_trap_table-0x32f37260>
 cd4:	2e 34 2e 32 	unknown
 cd8:	20 72 65 6c 	unknown
 cdc:	65 61 73 65 	call  9585da70 <__end+0x55850f18>
 ce0:	20 31 2e 30 	unknown
 ce4:	2e 35 30 29 	unknown
 ce8:	20 34 2e 34 	unknown
 cec:	2e 32 00 00 	unknown
 cf0:	47 43 43 3a 	call  1d0d19d8 <_trap_table-0x22f2e628>
 cf4:	20 28 42 43 	unknown
 cf8:	43 20 34 2e 	call  c80ddb0 <_trap_table-0x337f2250>
 cfc:	34 2e 32 20 	unknown
 d00:	72 65 6c 65 	call  c995be94 <__end+0x8994f33c>
 d04:	61 73 65 20 	call  85cda184 <__end+0x45ccd62c>
 d08:	31 2e 30 2e 	sethi  %hi(0xb8c0b800), %i0
 d0c:	35 30 29 20 	sethi  %hi(0xc0a48000), %i2
 d10:	34 2e 34 2e 	unknown
 d14:	Address 0x00000d14 is out of bounds.


Disassembly of section .stab:

00000000 <.stab>:
   0:	00 00 00 01 	unimp  0x1
   4:	00 00 00 01 	unimp  0x1
   8:	00 00 00 0e 	unimp  0xe
   c:	00 00 00 00 	unimp  0
  10:	62 00 00 00 	call  88000010 <__end+0x47ff34b8>
  14:	00 00 00 00 	unimp  0

Disassembly of section .stabstr:

00000000 <.stabstr>:
   0:	00 74 65 73 	unknown
   4:	74 61 6e 64 	call  d185b994 <__end+0x9184ee3c>
   8:	73 65 74 2e 	call  cd95d0c0 <__end+0x8d950568>
   c:	Address 0x0000000c is out of bounds.


Disassembly of section .debug_aranges:

00000000 <.debug_aranges>:
   0:	00 00 00 1c 	unimp  0x1c
   4:	00 02 00 00 	unimp  0x20000
   8:	00 00 04 00 	unimp  0x400
   c:	00 00 00 00 	unimp  0
  10:	40 00 00 00 	call  10 <_trap_table-0x3ffffff0>
  14:	00 00 00 0c 	unimp  0xc
	...
  20:	00 00 00 1c 	unimp  0x1c
  24:	00 02 00 00 	unimp  0x20000
  28:	00 c6 04 00 	unknown
  2c:	00 00 00 00 	unimp  0
  30:	40 00 00 0c 	call  60 <_trap_table-0x3fffffa0>
  34:	00 00 00 88 	unimp  0x88
	...
  40:	00 00 00 24 	unimp  0x24
  44:	00 02 00 00 	unimp  0x20000
  48:	01 86 04 00 	fbn  181048 <_trap_table-0x3fe7efb8>
  4c:	00 00 00 00 	unimp  0
  50:	40 00 bc 20 	call  2f0d0 <_trap_table-0x3ffd0f30>
  54:	00 00 00 04 	unimp  0x4
  58:	40 00 bc 3c 	call  2f148 <_trap_table-0x3ffd0eb8>
  5c:	00 00 00 04 	unimp  0x4
	...
  68:	00 00 00 1c 	unimp  0x1c
  6c:	00 02 00 00 	unimp  0x20000
  70:	02 17 04 00 	unknown
  74:	00 00 00 00 	unimp  0
  78:	40 00 01 b0 	call  738 <_trap_table-0x3ffff8c8>
  7c:	00 00 00 08 	unimp  0x8
	...
  88:	00 00 00 1c 	unimp  0x1c
  8c:	00 02 00 00 	unimp  0x20000
  90:	02 99 04 00 	be  641090 <_trap_table-0x3f9bef70>
  94:	00 00 00 00 	unimp  0
  98:	40 00 7e 08 	call  1f8b8 <_trap_table-0x3ffe0748>
  9c:	00 00 00 e8 	unimp  0xe8
	...
  a8:	00 00 00 1c 	unimp  0x1c
  ac:	00 02 00 00 	unimp  0x20000
  b0:	03 4c 04 00 	unknown
  b4:	00 00 00 00 	unimp  0
  b8:	40 00 7e f0 	call  1fc78 <_trap_table-0x3ffe0388>
  bc:	00 00 02 b0 	unimp  0x2b0
	...
  c8:	00 00 00 1c 	unimp  0x1c
  cc:	00 02 00 00 	unimp  0x20000
  d0:	03 ff 04 00 	cb123  fffc10d0 <__end+0xbffb4578>
  d4:	00 00 00 00 	unimp  0
  d8:	40 00 81 a0 	call  20758 <_trap_table-0x3ffdf8a8>
  dc:	00 00 02 b0 	unimp  0x2b0
	...
  e8:	00 00 00 1c 	unimp  0x1c
  ec:	00 02 00 00 	unimp  0x20000
  f0:	04 b2 04 00 	ble  ffc810f0 <__end+0xbfc74598>
  f4:	00 00 00 00 	unimp  0
  f8:	40 00 84 50 	call  21238 <_trap_table-0x3ffdedc8>
  fc:	00 00 04 74 	unimp  0x474
	...
 108:	00 00 00 1c 	unimp  0x1c
 10c:	00 02 00 00 	unimp  0x20000
 110:	08 f1 04 00 	unknown
 114:	00 00 00 00 	unimp  0
 118:	40 00 88 c4 	call  22428 <_trap_table-0x3ffddbd8>
 11c:	00 00 03 64 	unimp  0x364
	...
 128:	00 00 00 1c 	unimp  0x1c
 12c:	00 02 00 00 	unimp  0x20000
 130:	0d 0a 04 00 	sethi  %hi(0x28100000), %g6
 134:	00 00 00 00 	unimp  0
 138:	40 00 8c 28 	call  231d8 <_trap_table-0x3ffdce28>
 13c:	00 00 02 3c 	unimp  0x23c
	...
 148:	00 00 00 1c 	unimp  0x1c
 14c:	00 02 00 00 	unimp  0x20000
 150:	10 59 04 00 	unknown
 154:	00 00 00 00 	unimp  0
 158:	40 00 8e 64 	call  23ae8 <_trap_table-0x3ffdc518>
 15c:	00 00 00 64 	unimp  0x64
	...
 168:	00 00 00 1c 	unimp  0x1c
 16c:	00 02 00 00 	unimp  0x20000
 170:	12 a8 04 00 	bne  ffa01170 <__end+0xbf9f4618>
 174:	00 00 00 00 	unimp  0
 178:	40 00 8e c8 	call  23c98 <_trap_table-0x3ffdc368>
 17c:	00 00 00 64 	unimp  0x64
	...
 188:	00 00 00 1c 	unimp  0x1c
 18c:	00 02 00 00 	unimp  0x20000
 190:	14 f7 04 00 	unknown
 194:	00 00 00 00 	unimp  0
 198:	40 00 8f 2c 	call  23e48 <_trap_table-0x3ffdc1b8>
 19c:	00 00 00 64 	unimp  0x64
	...
 1a8:	00 00 00 1c 	unimp  0x1c
 1ac:	00 02 00 00 	unimp  0x20000
 1b0:	17 46 04 00 	unknown
 1b4:	00 00 00 00 	unimp  0
 1b8:	40 00 8f 90 	call  23ff8 <_trap_table-0x3ffdc008>
 1bc:	00 00 00 64 	unimp  0x64
	...
 1c8:	00 00 00 1c 	unimp  0x1c
 1cc:	00 02 00 00 	unimp  0x20000
 1d0:	19 95 04 00 	fbuge  5411d0 <_trap_table-0x3fabee30>
 1d4:	00 00 00 00 	unimp  0
 1d8:	40 00 8f f4 	call  241a8 <_trap_table-0x3ffdbe58>
 1dc:	00 00 00 64 	unimp  0x64
	...
 1e8:	00 00 00 1c 	unimp  0x1c
 1ec:	00 02 00 00 	unimp  0x20000
 1f0:	1b e4 04 00 	cb01  ff9011f0 <__end+0xbf8f4698>
 1f4:	00 00 00 00 	unimp  0
 1f8:	40 00 90 58 	call  24358 <_trap_table-0x3ffdbca8>
 1fc:	00 00 00 d8 	unimp  0xd8
	...
 208:	00 00 00 1c 	unimp  0x1c
 20c:	00 02 00 00 	unimp  0x20000
 210:	1d f4 04 00 	cb013  ffd01210 <__end+0xbfcf46b8>
 214:	00 00 00 00 	unimp  0
 218:	40 00 91 30 	call  246d8 <_trap_table-0x3ffdb928>
 21c:	00 00 00 dc 	unimp  0xdc
	...
 228:	00 00 00 1c 	unimp  0x1c
 22c:	00 02 00 00 	unimp  0x20000
 230:	21 d1 04 00 	cbn,a   441230 <_trap_table-0x3fbbedd0>
 234:	00 00 00 00 	unimp  0
 238:	40 00 92 0c 	call  24a68 <_trap_table-0x3ffdb598>
 23c:	00 00 01 3c 	unimp  0x13c
	...
 248:	00 00 00 1c 	unimp  0x1c
 24c:	00 02 00 00 	unimp  0x20000
 250:	23 dc 04 00 	cb123,a   701250 <_trap_table-0x3f8fedb0>
 254:	00 00 00 00 	unimp  0
 258:	40 00 93 48 	call  24f78 <_trap_table-0x3ffdb088>
 25c:	00 00 00 cc 	unimp  0xcc
	...
 268:	00 00 00 1c 	unimp  0x1c
 26c:	00 02 00 00 	unimp  0x20000
 270:	25 5b 04 00 	unknown
 274:	00 00 00 00 	unimp  0
 278:	40 00 94 14 	call  252c8 <_trap_table-0x3ffdad38>
 27c:	00 00 00 3c 	unimp  0x3c
	...
 288:	00 00 00 1c 	unimp  0x1c
 28c:	00 02 00 00 	unimp  0x20000
 290:	26 b9 04 00 	bl,a   ffe41290 <__end+0xbfe34738>
 294:	00 00 00 00 	unimp  0
 298:	40 00 94 50 	call  253d8 <_trap_table-0x3ffdac28>
 29c:	00 00 00 78 	unimp  0x78
	...
 2a8:	00 00 00 1c 	unimp  0x1c
 2ac:	00 02 00 00 	unimp  0x20000
 2b0:	27 e3 04 00 	cb13,a   ff8c12b0 <__end+0xbf8b4758>
 2b4:	00 00 00 00 	unimp  0
 2b8:	40 00 94 c8 	call  255d8 <_trap_table-0x3ffdaa28>
 2bc:	00 00 02 a8 	unimp  0x2a8
	...
 2c8:	00 00 00 1c 	unimp  0x1c
 2cc:	00 02 00 00 	unimp  0x20000
 2d0:	2a 8f 04 00 	bcs,a   3c12d0 <_trap_table-0x3fc3ed30>
 2d4:	00 00 00 00 	unimp  0
 2d8:	40 00 97 70 	call  26098 <_trap_table-0x3ffd9f68>
 2dc:	00 00 01 3c 	unimp  0x13c
	...
 2e8:	00 00 00 1c 	unimp  0x1c
 2ec:	00 02 00 00 	unimp  0x20000
 2f0:	2c a9 04 00 	bneg,a   ffa412f0 <__end+0xbfa34798>
 2f4:	00 00 00 00 	unimp  0
 2f8:	40 00 98 ac 	call  265a8 <_trap_table-0x3ffd9a58>
 2fc:	00 00 01 38 	unimp  0x138
	...
 308:	00 00 00 1c 	unimp  0x1c
 30c:	00 02 00 00 	unimp  0x20000
 310:	2e ca 04 00 	unknown
 314:	00 00 00 00 	unimp  0
 318:	40 00 99 e4 	call  26aa8 <_trap_table-0x3ffd9558>
 31c:	00 00 00 40 	unimp  0x40
	...
 328:	00 00 00 1c 	unimp  0x1c
 32c:	00 02 00 00 	unimp  0x20000
 330:	30 63 04 00 	unknown
 334:	00 00 00 00 	unimp  0
 338:	40 00 9a 24 	call  26bc8 <_trap_table-0x3ffd9438>
 33c:	00 00 00 40 	unimp  0x40
	...
 348:	00 00 00 24 	unimp  0x24
 34c:	00 02 00 00 	unimp  0x20000
 350:	32 c1 04 00 	unknown
 354:	00 00 00 00 	unimp  0
 358:	40 00 bc 34 	call  2f428 <_trap_table-0x3ffd0bd8>
 35c:	00 00 00 08 	unimp  0x8
 360:	40 00 bc 48 	call  2f480 <_trap_table-0x3ffd0b80>
 364:	00 00 00 08 	unimp  0x8
	...

Disassembly of section .debug_pubnames:

00000000 <.debug_pubnames>:
   0:	00 00 00 1a 	unimp  0x1a
   4:	00 02 00 00 	unimp  0x20000
   8:	02 17 00 00 	unknown
   c:	00 82 00 00 	bn  8000c <_trap_table-0x3ff7fff4>
  10:	00 6e 70 6e 	unknown
  14:	70 69 6e 69 	call  c1a5b9b8 <__end+0x81a4ee60>
  18:	74 00 00 00 	call  d0000018 <__end+0x8fff34c0>
  1c:	00 00 00 00 	unimp  0
  20:	00 28 00 02 	unimp  0xffe80002
  24:	00 00 04 b2 	unimp  0x4b2
  28:	00 00 04 3f 	unimp  0x43f
  2c:	00 00 03 09 	unimp  0x309
  30:	5f 5f 73 75 	call  7d7dce04 <__end+0x3d7d02ac>
  34:	62 64 66 33 	call  89919900 <__end+0x4990cda8>
  38:	00 00 00 03 	unimp  0x3
  3c:	9d 5f 5f 61 	unknown
  40:	64 64 64 66 	call  919191d8 <__end+0x5190c680>
  44:	33 00 00 00 	sethi  %hi(0), %i1
  48:	00 00 00 00 	unimp  0
  4c:	00 1b 00 02 	unimp  0x1b0002
  50:	00 00 08 f1 	unimp  0x8f1
  54:	00 00 04 19 	unimp  0x419
  58:	00 00 02 d4 	unimp  0x2d4
  5c:	5f 5f 6d 75 	call  7d7db630 <__end+0x3d7cead8>
  60:	6c 64 66 33 	call  b191992c <__end+0x7190cdd4>
  64:	00 00 00 00 	unimp  0
  68:	00 00 00 00 	unimp  0
  6c:	1b 00 02 00 	sethi  %hi(0x80000), %o5
  70:	00 0d 0a 00 	unimp  0xd0a00
  74:	00 03 4f 00 	unimp  0x34f00
  78:	00 02 5e 5f 	unimp  0x25e5f
  7c:	5f 64 69 76 	call  7d91a654 <__end+0x3d90dafc>
  80:	64 66 33 00 	call  9198cc80 <__end+0x51980128>
  84:	00 00 00 00 	unimp  0
  88:	00 00 00 1a 	unimp  0x1a
  8c:	00 02 00 00 	unimp  0x20000
  90:	10 59 00 00 	unknown
  94:	02 4f 00 00 	unknown
  98:	01 c9 5f 5f 	cbn  257e14 <_trap_table-0x3fda81ec>
  9c:	65 71 64 66 	call  95c59234 <__end+0x55c4c6dc>
  a0:	32 00 00 00 	unknown
  a4:	00 00 00 00 	unimp  0
  a8:	00 1a 00 02 	unimp  0x1a0002
  ac:	00 00 12 a8 	unimp  0x12a8
  b0:	00 00 02 4f 	unimp  0x24f
  b4:	00 00 01 c9 	unimp  0x1c9
  b8:	5f 5f 6e 65 	call  7d7dba4c <__end+0x3d7ceef4>
  bc:	64 66 32 00 	call  9198c8bc <__end+0x5197fd64>
  c0:	00 00 00 00 	unimp  0
  c4:	00 00 00 1a 	unimp  0x1a
  c8:	00 02 00 00 	unimp  0x20000
  cc:	14 f7 00 00 	unknown
  d0:	02 4f 00 00 	unknown
  d4:	01 c9 5f 5f 	cbn  257e50 <_trap_table-0x3fda81b0>
  d8:	67 74 64 66 	call  9dd19270 <__end+0x5dd0c718>
  dc:	32 00 00 00 	unknown
  e0:	00 00 00 00 	unimp  0
  e4:	00 1a 00 02 	unimp  0x1a0002
  e8:	00 00 17 46 	unimp  0x1746
  ec:	00 00 02 4f 	unimp  0x24f
  f0:	00 00 01 c9 	unimp  0x1c9
  f4:	5f 5f 67 65 	call  7d7d9e88 <__end+0x3d7cd330>
  f8:	64 66 32 00 	call  9198c8f8 <__end+0x5197fda0>
  fc:	00 00 00 00 	unimp  0
 100:	00 00 00 1a 	unimp  0x1a
 104:	00 02 00 00 	unimp  0x20000
 108:	19 95 00 00 	fbuge  540108 <_trap_table-0x3fabfef8>
 10c:	02 4f 00 00 	unknown
 110:	01 c9 5f 5f 	cbn  257e8c <_trap_table-0x3fda8174>
 114:	6c 74 64 66 	call  b1d192ac <__end+0x71d0c754>
 118:	32 00 00 00 	unknown
 11c:	00 00 00 00 	unimp  0
 120:	00 1e 00 02 	unimp  0x1e0002
 124:	00 00 1b e4 	unimp  0x1be4
 128:	00 00 02 10 	unimp  0x210
 12c:	00 00 01 84 	unimp  0x184
 130:	5f 5f 66 6c 	call  7d7d9ae0 <__end+0x3d7ccf88>
 134:	6f 61 74 73 	call  bd85d300 <__end+0x7d8507a8>
 138:	69 64 66 00 	call  a5919938 <__end+0x6590cde0>
 13c:	00 00 00 00 	unimp  0
 140:	00 00 00 1c 	unimp  0x1c
 144:	00 02 00 00 	unimp  0x20000
 148:	1d f4 00 00 	cb013  ffd00148 <__end+0xbfcf35f0>
 14c:	02 7d 00 00 	unknown
 150:	01 ff 5f 5f 	cbn  fffd7ecc <__end+0xbffcb374>
 154:	66 69 78 64 	call  99a5e2e4 <__end+0x59a5178c>
 158:	66 73 69 00 	call  99cda558 <__end+0x59ccda00>
 15c:	00 00 00 00 	unimp  0
 160:	00 00 00 1e 	unimp  0x1e
 164:	00 02 00 00 	unimp  0x20000
 168:	20 71 00 00 	unknown
 16c:	01 60 00 00 	unknown
 170:	01 48 5f 5f 	unknown
 174:	74 68 65 6e 	call  d1a1972c <__end+0x91a0cbd4>
 178:	61 6e 5f 64 	call  85b97f08 <__end+0x45b8b3b0>
 17c:	66 00 00 00 	call  9800017c <__end+0x57ff3624>
 180:	00 00 00 00 	unimp  0
 184:	00 20 00 02 	unimp  0xffe00002
 188:	00 00 21 d1 	unimp  0x21d1
 18c:	00 00 02 0b 	unimp  0x20b
 190:	00 00 01 79 	unimp  0x179
 194:	5f 5f 66 6c 	call  7d7d9b44 <__end+0x3d7ccfec>
 198:	6f 61 74 75 	call  bd85d36c <__end+0x7d850814>
 19c:	6e 73 69 64 	call  b9cda72c <__end+0x79ccdbd4>
 1a0:	66 00 00 00 	call  980001a0 <__end+0x57ff3648>
 1a4:	00 00 00 00 	unimp  0
 1a8:	00 1b 00 02 	unimp  0x1b0002
 1ac:	00 00 23 dc 	unimp  0x23dc
 1b0:	00 00 01 7f 	unimp  0x17f
 1b4:	00 00 00 fe 	unimp  0xfe
 1b8:	5f 5f 6d 75 	call  7d7db78c <__end+0x3d7cec34>
 1bc:	6c 64 69 33 	call  b191a688 <__end+0x7190db30>
 1c0:	00 00 00 00 	unimp  0
 1c4:	00 00 00 00 	unimp  0
 1c8:	1c 00 02 00 	unknown
 1cc:	00 25 5b 00 	unimp  0xffe55b00
 1d0:	00 01 5e 00 	unimp  0x15e00
 1d4:	00 01 09 5f 	unimp  0x1095f
 1d8:	5f 75 63 6d 	call  7dd58f8c <__end+0x3dd4c434>
 1dc:	70 64 69 32 	call  c191a6a4 <__end+0x8190db4c>
 1e0:	00 00 00 00 	unimp  0
 1e4:	00 00 00 00 	unimp  0
 1e8:	1b 00 02 00 	sethi  %hi(0x80000), %o5
 1ec:	00 26 b9 00 	unimp  0xffe6b900
 1f0:	00 01 2a 00 	unimp  0x12a00
 1f4:	00 00 b2 5f 	unimp  0xb25f
 1f8:	5f 63 6c 7a 	call  7d8db3e0 <__end+0x3d8ce888>
 1fc:	73 69 32 00 	call  cda4c9fc <__end+0x8da3fea4>
 200:	00 00 00 00 	unimp  0
 204:	00 00 00 1b 	unimp  0x1b
 208:	00 02 00 00 	unimp  0x20000
 20c:	27 e3 00 00 	cb13,a   ff8c020c <__end+0xbf8b36b4>
 210:	02 ac 00 00 	be  ffb00210 <__end+0xbfaf36b8>
 214:	01 f4 5f 5f 	cbn  ffd17f90 <__end+0xbfd0b438>
 218:	70 61 63 6b 	call  c1858fc4 <__end+0x8184c46c>
 21c:	5f 64 00 00 	call  7d90021c <__end+0x3d8f36c4>
 220:	00 00 00 00 	unimp  0
 224:	00 00 1d 00 	unimp  0x1d00
 228:	02 00 00 2a 	unknown
 22c:	8f 00 00 02 	taddcc  %g0, %g2, %g7
 230:	1a 00 00 01 	unknown
 234:	98 5f 5f 75 	unknown
 238:	6e 70 61 63 	call  b9c187c4 <__end+0x79c0bc6c>
 23c:	6b 5f 64 00 	call  ad7d923c <__end+0x6d7cc6e4>
 240:	00 00 00 00 	unimp  0
 244:	00 00 00 22 	unimp  0x22
 248:	00 02 00 00 	unimp  0x20000
 24c:	2c a9 00 00 	bneg,a   ffa4024c <__end+0xbfa336f4>
 250:	02 21 00 00 	unknown
 254:	01 a4 5f 5f 	fbn  ff917fd0 <__end+0xbf90b478>
 258:	66 70 63 6d 	call  99c1900c <__end+0x59c0c4b4>
 25c:	70 5f 70 61 	call  c17dc3e0 <__end+0x817cf888>
 260:	72 74 73 5f 	call  c9d1cfdc <__end+0x89d10484>
 264:	64 00 00 00 	call  90000264 <__end+0x4fff370c>
 268:	00 00 00 00 	unimp  0
 26c:	00 1c 00 02 	unimp  0x1c0002
 270:	00 00 2e ca 	unimp  0x2eca
 274:	00 00 01 99 	unimp  0x199
 278:	00 00 01 14 	unimp  0x114
 27c:	5f 5f 6c 73 	call  7d7db448 <__end+0x3d7ce8f0>
 280:	68 72 64 69 	call  a1c99424 <__end+0x61c8c8cc>
 284:	33 00 00 00 	sethi  %hi(0), %i1
 288:	00 00 00 00 	unimp  0
 28c:	00 1c 00 02 	unimp  0x1c0002
 290:	00 00 30 63 	unimp  0x3063
 294:	00 00 01 99 	unimp  0x199
 298:	00 00 01 14 	unimp  0x114
 29c:	5f 5f 61 73 	call  7d7d8868 <__end+0x3d7cbd10>
 2a0:	68 6c 64 69 	call  a1b19444 <__end+0x61b0c8ec>
 2a4:	33 00 00 00 	sethi  %hi(0), %i1
 2a8:	00 00 00 00 	unimp  0
 2ac:	00 1c 00 02 	unimp  0x1c0002
 2b0:	00 00 31 fc 	unimp  0x31fc
 2b4:	00 00 00 c5 	unimp  0xc5
 2b8:	00 00 00 ac 	unimp  0xac
 2bc:	5f 5f 63 6c 	call  7d7d906c <__end+0x3d7cc514>
 2c0:	7a 5f 74 61 	call  e97dd444 <__end+0xa97d08ec>
 2c4:	62 00 00 00 	call  880002c4 <__end+0x47ff376c>
 2c8:	Address 0x000002c8 is out of bounds.


Disassembly of section .debug_info:

00000000 <.debug_info>:
       0:	00 00 00 c2 	unimp  0xc2
       4:	00 02 00 00 	unimp  0x20000
       8:	00 00 04 01 	unimp  0x401
       c:	00 00 00 00 	unimp  0
      10:	40 00 00 00 	call  10 <_trap_table-0x3ffffff0>
      14:	40 00 00 0c 	call  44 <_trap_table-0x3fffffbc>
      18:	2e 2e 2f 2e 	unknown
      1c:	2e 2f 2e 2e 	unknown
      20:	2f 2e 2e 2f 	sethi  %hi(0xb8b8bc00), %l7
      24:	2e 2e 2f 6e 	unknown
      28:	65 77 6c 69 	call  95ddb1cc <__end+0x55dce674>
      2c:	62 2d 31 2e 	call  88b4c4e4 <__end+0x48b3f98c>
      30:	31 33 2e 30 	sethi  %hi(0xccb8c000), %i0
      34:	2f 6c 69 62 	unknown
      38:	67 6c 6f 73 	call  9db1be04 <__end+0x5db0f2ac>
      3c:	73 2f 73 70 	call  ccbdcdfc <__end+0x8cbd02a4>
      40:	61 72 63 5f 	call  85c98dbc <__end+0x45c8c264>
      44:	6c 65 6f 6e 	call  b195bdfc <__end+0x7194f2a4>
      48:	2f 6c 6f 63 	unknown
      4c:	6f 72 65 5f 	call  bdc995c8 <__end+0x7dc8ca70>
      50:	73 76 74 2e 	call  cdd9d108 <__end+0x8dd905b0>
      54:	53 00 2f 68 	call  4c00bdf4 <__end+0xbfff29c>
      58:	6f 6d 65 2f 	call  bdb59514 <__end+0x7db4c9bc>
      5c:	62 75 69 6c 	call  89d5a60c <__end+0x49d4dab4>
      60:	64 2f 62 63 	call  90bd89ec <__end+0x50bcbe94>
      64:	63 2f 42 43 	call  8cbd0970 <__end+0x4cbc3e18>
      68:	43 5f 52 45 	call  d7d497c <_trap_table-0x3282b684>
      6c:	50 2f 67 63 	call  40bd9df8 <__end+0xbcd2a0>
      70:	63 2d 34 2e 	call  8cb4d128 <__end+0x4cb405d0>
      74:	34 2e 32 2d 	unknown
      78:	31 2e 30 2e 	sethi  %hi(0xb8c0b800), %i0
      7c:	35 30 6e 65 	sethi  %hi(0xc1b99400), %i2
      80:	77 6c 69 62 	call  ddb1a608 <__end+0x9db0dab0>
      84:	2d 31 2e 31 	sethi  %hi(0xc4b8c400), %l6
      88:	33 2e 30 2d 	sethi  %hi(0xb8c0b400), %i1
      8c:	62 75 69 6c 	call  89d5a63c <__end+0x49d4dae4>
      90:	64 2f 73 70 	call  90bdce50 <__end+0x50bd02f8>
      94:	61 72 63 2d 	call  85c98d48 <__end+0x45c8c1f0>
      98:	65 6c 66 2f 	call  95b19954 <__end+0x55b0cdfc>
      9c:	73 6f 66 74 	call  cdbd9a6c <__end+0x8dbccf14>
      a0:	2f 6c 69 62 	unknown
      a4:	67 6c 6f 73 	call  9db1be70 <__end+0x5db0f318>
      a8:	73 2f 73 70 	call  ccbdce68 <__end+0x8cbd0310>
      ac:	61 72 63 5f 	call  85c98e28 <__end+0x45c8c2d0>
      b0:	6c 65 6f 6e 	call  b195be68 <__end+0x7194f310>
      b4:	00 47 4e 55 	unknown
      b8:	20 41 53 20 	unknown
      bc:	32 2e 31 39 	unknown
      c0:	2e 35 31 00 	unknown
      c4:	80 01 00 00 	add  %g4, %g0, %g0
      c8:	00 bc 00 02 	bn  fff000d0 <__end+0xbfef3578>
      cc:	00 00 00 14 	unimp  0x14
      d0:	04 01 00 00 	unknown
      d4:	00 6f 40 00 	unknown
      d8:	00 0c 40 00 	unimp  0xc4000
      dc:	00 94 2e 2e 	bn  50b994 <_trap_table-0x3faf466c>
      e0:	2f 2e 2e 2f 	sethi  %hi(0xb8b8bc00), %l7
      e4:	2e 2e 2f 2e 	unknown
      e8:	2e 2f 2e 2e 	unknown
      ec:	2f 6e 65 77 	unknown
      f0:	6c 69 62 2d 	call  b1a589a4 <__end+0x71a4be4c>
      f4:	31 2e 31 33 	sethi  %hi(0xb8c4cc00), %i0
      f8:	2e 30 2f 6c 	unknown
      fc:	69 62 67 6c 	call  a5899eac <__end+0x6588d354>
     100:	6f 73 73 2f 	call  bdcdcdbc <__end+0x7dcd0264>
     104:	73 70 61 72 	call  cdc186cc <__end+0x8dc0bb74>
     108:	63 5f 6c 65 	call  8d7db29c <__end+0x4d7ce744>
     10c:	6f 6e 2f 63 	call  bdb8be98 <__end+0x7db7f340>
     110:	72 74 30 2e 	call  c9d0c1c8 <__end+0x89cff670>
     114:	53 00 2f 68 	call  4c00beb4 <__end+0xbfff35c>
     118:	6f 6d 65 2f 	call  bdb595d4 <__end+0x7db4ca7c>
     11c:	62 75 69 6c 	call  89d5a6cc <__end+0x49d4db74>
     120:	64 2f 62 63 	call  90bd8aac <__end+0x50bcbf54>
     124:	63 2f 42 43 	call  8cbd0a30 <__end+0x4cbc3ed8>
     128:	43 5f 52 45 	call  d7d4a3c <_trap_table-0x3282b5c4>
     12c:	50 2f 67 63 	call  40bd9eb8 <__end+0xbcd360>
     130:	63 2d 34 2e 	call  8cb4d1e8 <__end+0x4cb40690>
     134:	34 2e 32 2d 	unknown
     138:	31 2e 30 2e 	sethi  %hi(0xb8c0b800), %i0
     13c:	35 30 6e 65 	sethi  %hi(0xc1b99400), %i2
     140:	77 6c 69 62 	call  ddb1a6c8 <__end+0x9db0db70>
     144:	2d 31 2e 31 	sethi  %hi(0xc4b8c400), %l6
     148:	33 2e 30 2d 	sethi  %hi(0xb8c0b400), %i1
     14c:	62 75 69 6c 	call  89d5a6fc <__end+0x49d4dba4>
     150:	64 2f 73 70 	call  90bdcf10 <__end+0x50bd03b8>
     154:	61 72 63 2d 	call  85c98e08 <__end+0x45c8c2b0>
     158:	65 6c 66 2f 	call  95b19a14 <__end+0x55b0cebc>
     15c:	73 6f 66 74 	call  cdbd9b2c <__end+0x8dbccfd4>
     160:	2f 6c 69 62 	unknown
     164:	67 6c 6f 73 	call  9db1bf30 <__end+0x5db0f3d8>
     168:	73 2f 73 70 	call  ccbdcf28 <__end+0x8cbd03d0>
     16c:	61 72 63 5f 	call  85c98ee8 <__end+0x45c8c390>
     170:	6c 65 6f 6e 	call  b195bf28 <__end+0x7194f3d0>
     174:	00 47 4e 55 	unknown
     178:	20 41 53 20 	unknown
     17c:	32 2e 31 39 	unknown
     180:	2e 35 31 00 	unknown
     184:	80 01 00 00 	add  %g4, %g0, %g0
     188:	00 8d 00 02 	bn  340190 <_trap_table-0x3fcbfe70>
     18c:	00 00 00 28 	unimp  0x28
     190:	04 01 00 00 	unknown
     194:	00 f5 00 00 	unknown
     198:	00 00 2e 2e 	unimp  0x2e2e
     19c:	2f 2e 2e 2f 	sethi  %hi(0xb8b8bc00), %l7
     1a0:	67 63 63 2d 	call  9d8d8e54 <__end+0x5d8cc2fc>
     1a4:	34 2e 34 2e 	unknown
     1a8:	32 2f 67 63 	unknown
     1ac:	63 2f 63 6f 	call  8cbd8f68 <__end+0x4cbcc410>
     1b0:	6e 66 69 67 	call  b999a74c <__end+0x7998dbf4>
     1b4:	2f 73 70 61 	unknown
     1b8:	72 63 2f 73 	call  c98cbf84 <__end+0x898bf42c>
     1bc:	70 61 72 63 	call  c185cb48 <__end+0x8184fff0>
     1c0:	6c 65 6f 6e 	call  b195bf78 <__end+0x7194f420>
     1c4:	2d 63 69 2e 	unknown
     1c8:	53 00 2f 68 	call  4c00bf68 <__end+0xbfff410>
     1cc:	6f 6d 65 2f 	call  bdb59688 <__end+0x7db4cb30>
     1d0:	62 75 69 6c 	call  89d5a780 <__end+0x49d4dc28>
     1d4:	64 2f 62 63 	call  90bd8b60 <__end+0x50bcc008>
     1d8:	63 2f 42 43 	call  8cbd0ae4 <__end+0x4cbc3f8c>
     1dc:	43 5f 52 45 	call  d7d4af0 <_trap_table-0x3282b510>
     1e0:	50 2f 67 63 	call  40bd9f6c <__end+0xbcd414>
     1e4:	63 2d 34 2e 	call  8cb4d29c <__end+0x4cb40744>
     1e8:	34 2e 32 2d 	unknown
     1ec:	31 2e 30 2e 	sethi  %hi(0xb8c0b800), %i0
     1f0:	35 30 67 63 	sethi  %hi(0xc19d8c00), %i2
     1f4:	63 2d 34 2e 	call  8cb4d2ac <__end+0x4cb40754>
     1f8:	34 2e 32 2d 	unknown
     1fc:	62 75 69 6c 	call  89d5a7ac <__end+0x49d4dc54>
     200:	64 2f 67 63 	call  90bd9f8c <__end+0x50bcd434>
     204:	63 00 47 4e 	call  8c011f3c <__end+0x4c0053e4>
     208:	55 20 41 53 	call  54810754 <__end+0x14803bfc>
     20c:	20 32 2e 31 	unknown
     210:	39 2e 35 31 	sethi  %hi(0xb8d4c400), %i4
     214:	00 80 01 00 	bn  614 <_trap_table-0x3ffff9ec>
     218:	00 00 7e 00 	unimp  0x7e00
     21c:	02 00 00 00 	unknown
     220:	3a 04 01 00 	unknown
     224:	00 00 eb 01 	unimp  0xeb01
     228:	00 00 00 7a 	unimp  0x7a
     22c:	00 00 00 08 	unimp  0x8
     230:	40 00 01 b0 	call  8f0 <_trap_table-0x3ffff710>
     234:	40 00 01 b8 	call  914 <_trap_table-0x3ffff6ec>
     238:	00 00 01 63 	unimp  0x163
     23c:	02 04 07 00 	unknown
     240:	00 00 d0 03 	unimp  0xd003
     244:	04 07 04 04 	unknown
     248:	05 69 6e 74 	unknown
     24c:	00 02 01 08 	unimp  0x20108
     250:	00 00 00 dd 	unimp  0xdd
     254:	02 02 07 00 	unknown
     258:	00 00 67 02 	unimp  0x6702
     25c:	01 06 00 00 	sethi  %hi(0x18000000), %g0
     260:	00 e6 02 04 	unknown
     264:	05 00 00 00 	sethi  %hi(0), %g2
     268:	fc 02 08 05 	ld  [ %o0 + %g5 ], %fp
     26c:	00 00 00 f7 	unimp  0xf7
     270:	02 04 07 00 	unknown
     274:	00 00 cb 02 	unimp  0xcb02
     278:	02 05 00 00 	unknown
     27c:	00 bc 02 08 	bn  fff00a9c <__end+0xbfef3f44>
     280:	07 00 00 00 	sethi  %hi(0), %g3
     284:	c6 05 01 00 	ld  [ %l4 ], %g3
     288:	00 00 00 01 	unimp  0x1
     28c:	06 01 40 00 	unknown
     290:	01 b0 40 00 	fbn  ffc10290 <__end+0xbfc03738>
     294:	01 b8 01 5e 	fbn  ffe0080c <__end+0xbfdf3cb4>
     298:	00 00 00 00 	unimp  0
     29c:	af 00 02 00 	unknown
     2a0:	00 00 82 04 	unimp  0x8204
     2a4:	01 00 00 01 	sethi  %hi(0x400), %g0
     2a8:	d3 40 00 7e 	unknown
     2ac:	08 40 00 7e 	unknown
     2b0:	f0 2e 2e 2f 	stb  %i0, [ %i0 + 0xe2f ]
     2b4:	2e 2e 2f 2e 	unknown
     2b8:	2e 2f 2e 2e 	unknown
     2bc:	2f 67 63 63 	unknown
     2c0:	2d 34 2e 34 	sethi  %hi(0xd0b8d000), %l6
     2c4:	2e 32 2f 6c 	unknown
     2c8:	69 62 67 63 	call  a589a054 <__end+0x6588d4fc>
     2cc:	63 2f 2e 2e 	call  8cbcbb84 <__end+0x4cbbf02c>
     2d0:	2f 67 63 63 	unknown
     2d4:	2f 63 6f 6e 	unknown
     2d8:	66 69 67 2f 	call  99a59f94 <__end+0x59a4d43c>
     2dc:	73 70 61 72 	call  cdc188a4 <__end+0x8dc0bd4c>
     2e0:	63 2f 6c 62 	call  8cbdb468 <__end+0x4cbce910>
     2e4:	31 73 70 63 	unknown
     2e8:	2e 61 73 6d 	unknown
     2ec:	00 2f 68 6f 	unimp  0xffef686f
     2f0:	6d 65 2f 62 	call  b594c078 <__end+0x7593f520>
     2f4:	75 69 6c 64 	call  d5a5b484 <__end+0x95a4e92c>
     2f8:	2f 62 63 63 	unknown
     2fc:	2f 42 43 43 	unknown
     300:	5f 52 45 50 	call  7d491840 <__end+0x3d484ce8>
     304:	2f 67 63 63 	unknown
     308:	2d 34 2e 34 	sethi  %hi(0xd0b8d000), %l6
     30c:	2e 32 2d 31 	unknown
     310:	2e 30 2e 35 	unknown
     314:	30 67 63 63 	unknown
     318:	2d 34 2e 34 	sethi  %hi(0xd0b8d000), %l6
     31c:	2e 32 2d 62 	unknown
     320:	75 69 6c 64 	call  d5a5b4b0 <__end+0x95a4e958>
     324:	2f 73 70 61 	unknown
     328:	72 63 2d 65 	call  c98cb8bc <__end+0x898bed64>
     32c:	6c 66 2f 73 	call  b198c0f8 <__end+0x7197f5a0>
     330:	6f 66 74 2f 	call  bd99d3ec <__end+0x7d990894>
     334:	6c 69 62 67 	call  b1a58cd0 <__end+0x71a4c178>
     338:	63 63 00 47 	call  8d8c0454 <__end+0x4d8b38fc>
     33c:	4e 55 20 41 	call  39548440 <_trap_table-0x6ab7bc0>
     340:	53 20 32 2e 	call  4c80cbf8 <__end+0xc8000a0>
     344:	31 39 2e 35 	sethi  %hi(0xe4b8d400), %i0
     348:	31 00 80 01 	sethi  %hi(0x2000400), %i0
     34c:	00 00 00 af 	unimp  0xaf
     350:	00 02 00 00 	unimp  0x20000
     354:	00 96 04 01 	bn  581358 <_trap_table-0x3fa7eca8>
     358:	00 00 02 77 	unimp  0x277
     35c:	40 00 7e f0 	call  1ff1c <_trap_table-0x3ffe00e4>
     360:	40 00 81 a0 	call  209e0 <_trap_table-0x3ffdf620>
     364:	2e 2e 2f 2e 	unknown
     368:	2e 2f 2e 2e 	unknown
     36c:	2f 2e 2e 2f 	sethi  %hi(0xb8b8bc00), %l7
     370:	67 63 63 2d 	call  9d8d9024 <__end+0x5d8cc4cc>
     374:	34 2e 34 2e 	unknown
     378:	32 2f 6c 69 	unknown
     37c:	62 67 63 63 	call  899d9108 <__end+0x499cc5b0>
     380:	2f 2e 2e 2f 	sethi  %hi(0xb8b8bc00), %l7
     384:	67 63 63 2f 	call  9d8d9040 <__end+0x5d8cc4e8>
     388:	63 6f 6e 66 	call  8dbdbd20 <__end+0x4dbcf1c8>
     38c:	69 67 2f 73 	call  a59cc158 <__end+0x659bf600>
     390:	70 61 72 63 	call  c185cd1c <__end+0x818501c4>
     394:	2f 6c 62 31 	unknown
     398:	73 70 63 2e 	call  cdc19050 <__end+0x8dc0c4f8>
     39c:	61 73 6d 00 	call  85cdb79c <__end+0x45ccec44>
     3a0:	2f 68 6f 6d 	unknown
     3a4:	65 2f 62 75 	call  94bd8d78 <__end+0x54bcc220>
     3a8:	69 6c 64 2f 	call  a5b19464 <__end+0x65b0c90c>
     3ac:	62 63 63 2f 	call  898d9068 <__end+0x498cc510>
     3b0:	42 43 43 5f 	call  90d112c <_trap_table-0x36f2eed4>
     3b4:	52 45 50 2f 	call  49154470 <__end+0x9147918>
     3b8:	67 63 63 2d 	call  9d8d906c <__end+0x5d8cc514>
     3bc:	34 2e 34 2e 	unknown
     3c0:	32 2d 31 2e 	unknown
     3c4:	30 2e 35 30 	unknown
     3c8:	67 63 63 2d 	call  9d8d907c <__end+0x5d8cc524>
     3cc:	34 2e 34 2e 	unknown
     3d0:	32 2d 62 75 	unknown
     3d4:	69 6c 64 2f 	call  a5b19490 <__end+0x65b0c938>
     3d8:	73 70 61 72 	call  cdc189a0 <__end+0x8dc0be48>
     3dc:	63 2d 65 6c 	call  8cb5998c <__end+0x4cb4ce34>
     3e0:	66 2f 73 6f 	call  98bdd19c <__end+0x58bd0644>
     3e4:	66 74 2f 6c 	call  99d0c194 <__end+0x59cff63c>
     3e8:	69 62 67 63 	call  a589a174 <__end+0x6588d61c>
     3ec:	63 00 47 4e 	call  8c012124 <__end+0x4c0055cc>
     3f0:	55 20 41 53 	call  5481093c <__end+0x14803de4>
     3f4:	20 32 2e 31 	unknown
     3f8:	39 2e 35 31 	sethi  %hi(0xb8d4c400), %i4
     3fc:	00 80 01 00 	bn  7fc <_trap_table-0x3ffff804>
     400:	00 00 af 00 	unimp  0xaf00
     404:	02 00 00 00 	unknown
     408:	aa 04 01 00 	unknown
     40c:	00 03 90 40 	unimp  0x39040
     410:	00 81 a0 40 	bn  68510 <_trap_table-0x3ff97af0>
     414:	00 84 50 2e 	bn  1144cc <_trap_table-0x3feebb34>
     418:	2e 2f 2e 2e 	unknown
     41c:	2f 2e 2e 2f 	sethi  %hi(0xb8b8bc00), %l7
     420:	2e 2e 2f 67 	unknown
     424:	63 63 2d 34 	call  8d8cb8f4 <__end+0x4d8bed9c>
     428:	2e 34 2e 32 	unknown
     42c:	2f 6c 69 62 	unknown
     430:	67 63 63 2f 	call  9d8d90ec <__end+0x5d8cc594>
     434:	2e 2e 2f 67 	unknown
     438:	63 63 2f 63 	call  8d8cc1c4 <__end+0x4d8bf66c>
     43c:	6f 6e 66 69 	call  bdb99de0 <__end+0x7db8d288>
     440:	67 2f 73 70 	call  9cbdd200 <__end+0x5cbd06a8>
     444:	61 72 63 2f 	call  85c99100 <__end+0x45c8c5a8>
     448:	6c 62 31 73 	call  b188ca14 <__end+0x7187febc>
     44c:	70 63 2e 61 	call  c18cbdd0 <__end+0x818bf278>
     450:	73 6d 00 2f 	call  cdb4050c <__end+0x8db339b4>
     454:	68 6f 6d 65 	call  a1bdb9e8 <__end+0x61bcee90>
     458:	2f 62 75 69 	unknown
     45c:	6c 64 2f 62 	call  b190c1e4 <__end+0x718ff68c>
     460:	63 63 2f 42 	call  8d8cc168 <__end+0x4d8bf610>
     464:	43 43 5f 52 	call  d0d81ac <_trap_table-0x32f27e54>
     468:	45 50 2f 67 	call  1540c204 <_trap_table-0x2abf3dfc>
     46c:	63 63 2d 34 	call  8d8cb93c <__end+0x4d8bede4>
     470:	2e 34 2e 32 	unknown
     474:	2d 31 2e 30 	sethi  %hi(0xc4b8c000), %l6
     478:	2e 35 30 67 	unknown
     47c:	63 63 2d 34 	call  8d8cb94c <__end+0x4d8bedf4>
     480:	2e 34 2e 32 	unknown
     484:	2d 62 75 69 	unknown
     488:	6c 64 2f 73 	call  b190c254 <__end+0x718ff6fc>
     48c:	70 61 72 63 	call  c185ce18 <__end+0x818502c0>
     490:	2d 65 6c 66 	unknown
     494:	2f 73 6f 66 	unknown
     498:	74 2f 6c 69 	call  d0bdb63c <__end+0x90bceae4>
     49c:	62 67 63 63 	call  899d9228 <__end+0x499cc6d0>
     4a0:	00 47 4e 55 	unknown
     4a4:	20 41 53 20 	unknown
     4a8:	32 2e 31 39 	unknown
     4ac:	2e 35 31 00 	unknown
     4b0:	80 01 00 00 	add  %g4, %g0, %g0
     4b4:	04 3b 00 02 	unknown
     4b8:	00 00 00 be 	unimp  0xbe
     4bc:	04 01 00 00 	unknown
     4c0:	00 eb 01 00 	unknown
     4c4:	00 02 7b 00 	unimp  0x27b00
     4c8:	00 01 6d 40 	unimp  0x16d40
     4cc:	00 84 50 40 	bn  1145cc <_trap_table-0x3feeba34>
     4d0:	00 88 c4 00 	bn  2314d0 <_trap_table-0x3fdceb30>
     4d4:	00 04 a9 02 	unimp  0x4a902
     4d8:	04 05 69 6e 	unknown
     4dc:	74 00 03 01 	call  d00010e0 <__end+0x8fff4588>
     4e0:	06 00 00 00 	unknown
     4e4:	e6 03 04 04 	ld  [ %o4 + %g4 ], %l3
     4e8:	00 00 03 aa 	unimp  0x3aa
     4ec:	04 00 00 01 	unknown
     4f0:	50 02 5d 00 	call  400978f0 <__end+0x8ad98>
     4f4:	00 00 45 03 	unimp  0x4503
     4f8:	08 04 00 00 	unknown
     4fc:	03 f7 03 02 	cb123  ffdc1104 <__end+0xbfdb45ac>
     500:	05 00 00 00 	sethi  %hi(0), %g2
     504:	bc 04 00 00 	add  %l0, %g0, %fp
     508:	02 12 02 64 	unknown
     50c:	00 00 00 5e 	unimp  0x5e
     510:	03 08 05 00 	sethi  %hi(0x20140000), %g1
     514:	00 00 f7 03 	unimp  0xf703
     518:	02 07 00 00 	unknown
     51c:	00 67 04 00 	unknown
     520:	00 01 57 02 	unimp  0x15702
     524:	70 00 00 00 	call  c0000524 <__end+0x7fff39cc>
     528:	77 03 04 07 	call  dc0c1544 <__end+0x9c0b49ec>
     52c:	00 00 00 d0 	unimp  0xd0
     530:	04 00 00 02 	unknown
     534:	11 02 71 00 	sethi  %hi(0x9c40000), %o0
     538:	00 00 89 03 	unimp  0x8903
     53c:	08 07 00 00 	unknown
     540:	00 c6 04 00 	unknown
     544:	00 02 b3 02 	unimp  0x2b302
     548:	d6 00 00 00 	ld  [ %g0 ], %o3
     54c:	7e 04 00 00 	call  f810054c <__end+0xb80f39f4>
     550:	02 af 02 d7 	be  ffbc10ac <__end+0xbfbb4554>
     554:	00 00 00 6c 	unimp  0x6c
     558:	04 00 00 02 	unknown
     55c:	21 02 d8 00 	sethi  %hi(0xb600000), %l0
     560:	00 00 3a 04 	unimp  0x3a04
     564:	00 00 02 19 	unimp  0x219
     568:	02 d9 00 00 	unknown
     56c:	00 53 05 04 	unknown
     570:	02 01 57 00 	unknown
     574:	00 00 e4 06 	unimp  0xe406
     578:	00 00 02 2a 	unimp  0x22a
     57c:	00 06 00 00 	unimp  0x60000
     580:	01 bb 01 06 	fbn  ffec0998 <__end+0xbfeb3e40>
     584:	00 00 01 0b 	unimp  0x10b
     588:	02 06 00 00 	unknown
     58c:	02 a2 03 06 	be  ff8811a4 <__end+0xbf87464c>
     590:	00 00 02 64 	unimp  0x264
     594:	04 00 07 00 	unknown
     598:	00 01 5f 02 	unimp  0x15f02
     59c:	01 5d 00 00 	unknown
     5a0:	00 bc 08 08 	bn  fff025c0 <__end+0xbfef5a68>
     5a4:	02 01 6c 00 	unknown
     5a8:	00 01 0f 09 	unimp  0x10f09
     5ac:	6c 6c 00 02 	call  b1b005b4 <__end+0x71af3a5c>
     5b0:	01 6d 00 00 	unknown
     5b4:	00 90 09 6c 	bn  402b64 <_trap_table-0x3fbfd49c>
     5b8:	00 02 01 6e 	unimp  0x2016e
     5bc:	00 00 01 0f 	unimp  0x10f
     5c0:	00 0a 00 00 	unimp  0xa0000
     5c4:	00 9b 00 00 	bn  6c05c4 <_trap_table-0x3f93fa3c>
     5c8:	01 1f 0b 00 	sethi  %hi(0x7c2c0000), %g0
     5cc:	00 01 1f 01 	unimp  0x11f01
     5d0:	00 0c 04 07 	unimp  0xc0407
     5d4:	0d 18 02 01 	sethi  %hi(0x60080400), %g6
     5d8:	60 00 00 01 	call  800005dc <__end+0x3fff3a84>
     5dc:	68 0e 00 00 	call  a03805dc <__end+0x60373a84>
     5e0:	01 3e 02 01 	sethi  %hi(0xf8080400), %g0
     5e4:	66 00 00 00 	call  980005e4 <__end+0x57ff3a8c>
     5e8:	e4 02 23 00 	ld  [ %o0 + 0x300 ], %l2
     5ec:	0e 00 00 02 	unknown
     5f0:	93 02 01 67 	unknown
     5f4:	00 00 00 77 	unimp  0x77
     5f8:	02 23 04 0e 	unknown
     5fc:	00 00 01 18 	unimp  0x118
     600:	02 01 68 00 	unknown
     604:	00 00 25 02 	unimp  0x2502
     608:	23 08 0e 00 	sethi  %hi(0x20380000), %l1
     60c:	00 02 5b 02 	unimp  0x25b02
     610:	01 6f 00 00 	unknown
     614:	00 f0 02 23 	unknown
     618:	10 00 07 00 	unknown
     61c:	00 02 3f 02 	unimp  0x23f02
     620:	01 70 00 00 	unknown
     624:	01 22 08 08 	sethi  %hi(0x88202000), %g0
     628:	02 01 73 00 	unknown
     62c:	00 01 a2 0f 	unimp  0x1a20f
     630:	00 00 01 29 	unimp  0x129
     634:	02 01 74 00 	unknown
     638:	00 00 a6 0f 	unimp  0xa60f
     63c:	00 00 02 98 	unimp  0x298
     640:	02 01 75 00 	unknown
     644:	00 00 90 0f 	unimp  0x900f
     648:	00 00 02 0b 	unimp  0x20b
     64c:	02 01 7b 00 	unknown
     650:	00 01 0f 00 	unimp  0x10f00
     654:	07 00 00 01 	sethi  %hi(0x400), %g3
     658:	e6 02 01 9b 	ld  [ %o0 + %i3 ], %l3
     65c:	00 00 01 74 	unimp  0x174
     660:	10 00 00 01 	unknown
     664:	23 01 97 01 	sethi  %hi(0x65c0400), %l1
     668:	00 00 00 25 	unimp  0x25
     66c:	03 00 00 01 	sethi  %hi(0x400), %g1
     670:	c9 11 78 00 	unknown
     674:	01 97 00 00 	fbn  5c0674 <_trap_table-0x3fa3f98c>
     678:	01 c9 00 12 	cbn  2406c0 <_trap_table-0x3fdbf940>
     67c:	04 00 00 01 	unknown
     680:	cf 13 00 00 	unknown
     684:	01 68 10 00 	unknown
     688:	00 01 38 01 	unimp  0x13801
     68c:	9f 01 00 00 	taddcc  %g4, %g0, %o7
     690:	00 25 03 00 	unimp  0xffe50300
     694:	00 01 ef 11 	unimp  0x1ef11
     698:	78 00 01 9f 	call  e0000d14 <__end+0x9fff41bc>
     69c:	00 00 01 c9 	unimp  0x1c9
     6a0:	00 14 00 00 	unimp  0x140000
     6a4:	02 73 01 8a 	unknown
     6a8:	01 00 00 01 	sethi  %hi(0x400), %g0
     6ac:	c9 03 10 00 	ld  [ %o4 ], %f4
     6b0:	00 01 df 01 	unimp  0x1df01
     6b4:	a8 01 00 00 	add  %g4, %g0, %l4
     6b8:	00 25 03 00 	unimp  0xffe50300
     6bc:	00 02 17 11 	unimp  0x21711
     6c0:	78 00 01 a8 	call  e0000d60 <__end+0x9fff4208>
     6c4:	00 00 01 c9 	unimp  0x1c9
     6c8:	00 15 00 00 	unimp  0x150000
     6cc:	01 d2 01 02 	cbn  480ad4 <_trap_table-0x3fb7f52c>
     6d0:	52 01 00 00 	call  480406d0 <__end+0x8033b78>
     6d4:	01 c9 40 00 	cbn  2506d4 <_trap_table-0x3fdaf92c>
     6d8:	84 50 40 00 	umul  %g1, %g0, %g2
     6dc:	88 18 00 00 	xor  %g0, %g0, %g4
     6e0:	00 00 00 00 	unimp  0
     6e4:	03 03 16 61 	sethi  %hi(0xc598400), %g1
     6e8:	00 01 02 52 	unimp  0x10252
     6ec:	00 00 03 03 	unimp  0x303
     6f0:	00 00 00 1e 	unimp  0x1e
     6f4:	17 62 00 01 	unknown
     6f8:	02 53 00 00 	unknown
     6fc:	03 03 01 69 	sethi  %hi(0xc05a400), %g1
     700:	17 74 6d 70 	unknown
     704:	00 01 02 54 	unimp  0x10254
     708:	00 00 03 03 	unimp  0x303
     70c:	01 6a 18 00 	unknown
     710:	00 02 35 01 	unimp  0x23501
     714:	02 56 00 00 	unknown
     718:	00 b1 00 00 	bn  ffc40718 <__end+0xbfc33bc0>
     71c:	00 52 18 00 	unknown
     720:	00 01 16 01 	unimp  0x11601
     724:	02 59 00 00 	unknown
     728:	00 25 00 00 	unimp  0xffe50000
     72c:	00 8a 18 00 	bn  28672c <_trap_table-0x3fd798d4>
     730:	00 01 fe 01 	unimp  0x1fe01
     734:	02 5a 00 00 	unknown
     738:	00 25 00 00 	unimp  0xffe50000
     73c:	00 b3 18 00 	bn  ffcc673c <__end+0xbfcb9be4>
     740:	00 02 59 01 	unimp  0x25901
     744:	02 5b 00 00 	unknown
     748:	00 90 00 00 	bn  400748 <_trap_table-0x3fbff8b8>
     74c:	01 1e 18 00 	sethi  %hi(0x78600000), %g0
     750:	00 02 4e 01 	unimp  0x24e01
     754:	02 5c 00 00 	unknown
     758:	00 90 00 00 	bn  400758 <_trap_table-0x3fbff8a8>
     75c:	01 96 19 00 	fbn  586b5c <_trap_table-0x3fa794a4>
     760:	00 01 ae 40 	unimp  0x1ae40
     764:	00 84 54 40 	bn  115864 <_trap_table-0x3feea79c>
     768:	00 84 58 01 	bn  11676c <_trap_table-0x3fee9894>
     76c:	02 5e 00 00 	unknown
     770:	02 c6 1a 00 	unknown
     774:	00 01 bf 00 	unimp  0x1bf00
     778:	19 00 00 01 	sethi  %hi(0x400), %o4
     77c:	ae 40 00 84 	unknown
     780:	64 40 00 84 	call  91000990 <__end+0x50ff3e38>
     784:	68 01 02 62 	call  a004110c <__end+0x600345b4>
     788:	00 00 02 e0 	unimp  0x2e0
     78c:	1a 00 00 01 	unknown
     790:	bf 00 1b 00 	unknown
     794:	00 00 20 18 	unimp  0x2018
     798:	00 00 01 06 	unimp  0x106
     79c:	01 02 83 00 	sethi  %hi(0xa0c0000), %g0
     7a0:	00 00 25 00 	unimp  0x2500
     7a4:	00 02 1e 1c 	unimp  0x21e1c
     7a8:	00 00 01 05 	unimp  0x105
     7ac:	01 02 84 00 	sethi  %hi(0xa100000), %g0
     7b0:	00 00 25 00 	unimp  0x2500
     7b4:	00 12 04 00 	unimp  0x120400
     7b8:	00 01 68 1d 	unimp  0x1681d
     7bc:	01 00 00 01 	sethi  %hi(0x400), %g0
     7c0:	f5 01 02 f2 	ld  [ %g4 + %l2 ], %f26
     7c4:	01 00 00 00 	nop 
     7c8:	a6 40 00 88 	unknown
     7cc:	18 40 00 88 	unknown
     7d0:	74 00 00 02 	call  d00007d8 <__end+0x8fff3c80>
     7d4:	94 00 00 03 	add  %g0, %g3, %o2
     7d8:	9d 1e 00 00 	tsubcctv  %i0, %g0, %sp
     7dc:	01 c6 01 02 	cbn  180be4 <_trap_table-0x3fe7f41c>
     7e0:	f2 00 00 00 	ld  [ %g0 ], %i1
     7e4:	a6 00 00 02 	add  %g0, %g2, %l3
     7e8:	b2 1f 00 00 	xor  %i4, %g0, %i1
     7ec:	01 cc 01 02 	cbn  300bf4 <_trap_table-0x3fcff40c>
     7f0:	f2 00 00 00 	ld  [ %g0 ], %i1
     7f4:	a6 06 6a 93 	add  %i1, 0xa93, %l3
     7f8:	04 6b 93 04 	unknown
     7fc:	20 61 00 01 	unknown
     800:	02 f4 00 00 	unknown
     804:	01 68 02 91 	unknown
     808:	58 20 62 00 	call  60819008 <__end+0x2080c4b0>
     80c:	01 02 f5 00 	sethi  %hi(0xbd40000), %g0
     810:	00 01 68 02 	unimp  0x16802
     814:	91 40 20 74 	unknown
     818:	6d 70 00 01 	call  b5c0081c <__end+0x75bf3cc4>
     81c:	02 f6 00 00 	unknown
     820:	01 68 03 91 	unknown
     824:	a8 7f 21 72 	sdiv  %i4, 0x172, %l4
     828:	65 73 00 01 	call  95cc082c <__end+0x55cb3cd4>
     82c:	02 f7 00 00 	unknown
     830:	01 c9 20 61 	cbn  2489b4 <_trap_table-0x3fdb764c>
     834:	75 00 01 02 	call  d4000c3c <__end+0x93ff40e4>
     838:	f8 00 00 01 	ld  [ %g0 + %g1 ], %i4
     83c:	a2 02 91 78 	unknown
     840:	20 62 75 00 	unknown
     844:	01 02 f8 00 	sethi  %hi(0xbe00000), %g0
     848:	00 01 a2 02 	unimp  0x1a202
     84c:	91 70 00 1d 	unknown
     850:	01 00 00 01 	sethi  %hi(0x400), %g0
     854:	2f 01 02 de 	sethi  %hi(0x40b7800), %l7
     858:	01 00 00 00 	nop 
     85c:	a6 40 00 88 	unknown
     860:	74 40 00 88 	call  d1000a80 <__end+0x90ff3f28>
     864:	c4 00 00 02 	ld  [ %g0 + %g2 ], %g2
     868:	ca 00 00 04 	ld  [ %g0 + %g4 ], %g5
     86c:	31 1e 00 00 	sethi  %hi(0x78000000), %i0
     870:	01 c6 01 02 	cbn  180c78 <_trap_table-0x3fe7f388>
     874:	de 00 00 00 	ld  [ %g0 ], %o7
     878:	a6 00 00 02 	add  %g0, %g2, %l3
     87c:	e8 1f 00 00 	ldd  [ %i4 ], %l4
     880:	01 cc 01 02 	cbn  300c88 <_trap_table-0x3fcff378>
     884:	de 00 00 00 	ld  [ %g0 ], %o7
     888:	a6 06 6a 93 	add  %i1, 0xa93, %l3
     88c:	04 6b 93 04 	unknown
     890:	20 61 00 01 	unknown
     894:	02 e0 00 00 	unknown
     898:	01 68 02 91 	unknown
     89c:	58 20 62 00 	call  6081909c <__end+0x2080c544>
     8a0:	01 02 e1 00 	sethi  %hi(0xb840000), %g0
     8a4:	00 01 68 02 	unimp  0x16802
     8a8:	91 40 20 74 	unknown
     8ac:	6d 70 00 01 	call  b5c008b0 <__end+0x75bf3d58>
     8b0:	02 e2 00 00 	unknown
     8b4:	01 68 03 91 	unknown
     8b8:	a8 7f 21 72 	sdiv  %i4, 0x172, %l4
     8bc:	65 73 00 01 	call  95cc08c0 <__end+0x55cb3d68>
     8c0:	02 e3 00 00 	unknown
     8c4:	01 c9 20 61 	cbn  248a48 <_trap_table-0x3fdb75b8>
     8c8:	75 00 01 02 	call  d4000cd0 <__end+0x93ff4178>
     8cc:	e4 00 00 01 	ld  [ %g0 + %g1 ], %l2
     8d0:	a2 02 91 78 	unknown
     8d4:	20 62 75 00 	unknown
     8d8:	01 02 e4 00 	sethi  %hi(0xb900000), %g0
     8dc:	00 01 a2 02 	unimp  0x1a202
     8e0:	91 70 00 22 	unknown
     8e4:	00 00 01 44 	unimp  0x144
     8e8:	01 85 00 00 	fbn  1408e8 <_trap_table-0x3febf718>
     8ec:	01 cf 01 01 	cbn  3c0cf0 <_trap_table-0x3fc3f310>
     8f0:	00 00 00 04 	unimp  0x4
     8f4:	15 00 02 00 	sethi  %hi(0x80000), %o2
     8f8:	00 02 8b 04 	unimp  0x28b04
     8fc:	01 00 00 00 	nop 
     900:	eb 01 00 00 	ld  [ %g4 ], %f21
     904:	02 7b 00 00 	unknown
     908:	01 6d 40 00 	unknown
     90c:	88 c4 40 00 	addxcc  %l1, %g0, %g4
     910:	8c 28 00 00 	andn  %g0, %g0, %g6
     914:	05 c3 02 04 	cb12  c1124 <_trap_table-0x3ff3eedc>
     918:	05 69 6e 74 	unknown
     91c:	00 03 01 06 	unimp  0x30106
     920:	00 00 00 e6 	unimp  0xe6
     924:	03 04 04 00 	sethi  %hi(0x10100000), %g1
     928:	00 03 aa 04 	unimp  0x3aa04
     92c:	00 00 01 50 	unimp  0x150
     930:	02 5d 00 00 	unknown
     934:	00 45 03 08 	unknown
     938:	04 00 00 03 	unknown
     93c:	f7 03 02 05 	ld  [ %o4 + %g5 ], %f27
     940:	00 00 00 bc 	unimp  0xbc
     944:	03 08 05 00 	sethi  %hi(0x20140000), %g1
     948:	00 00 f7 03 	unimp  0xf703
     94c:	02 07 00 00 	unknown
     950:	00 67 04 00 	unknown
     954:	00 01 57 02 	unimp  0x15702
     958:	70 00 00 00 	call  c0000958 <__end+0x7fff3e00>
     95c:	6c 03 04 07 	call  b00c1978 <__end+0x700b4e20>
     960:	00 00 00 d0 	unimp  0xd0
     964:	04 00 00 02 	unknown
     968:	11 02 71 00 	sethi  %hi(0x9c40000), %o0
     96c:	00 00 7e 03 	unimp  0x7e03
     970:	08 07 00 00 	unknown
     974:	00 c6 04 00 	unknown
     978:	00 02 b3 02 	unimp  0x2b302
     97c:	d6 00 00 00 	ld  [ %g0 ], %o3
     980:	73 04 00 00 	call  cc100980 <__end+0x8c0f3e28>
     984:	02 af 02 d7 	be  ffbc14e0 <__end+0xbfbb4988>
     988:	00 00 00 61 	unimp  0x61
     98c:	04 00 00 02 	unknown
     990:	21 02 d8 00 	sethi  %hi(0xb600000), %l0
     994:	00 00 3a 05 	unimp  0x3a05
     998:	04 02 01 57 	unknown
     99c:	00 00 00 ce 	unimp  0xce
     9a0:	06 00 00 02 	unknown
     9a4:	2a 00 06 00 	unknown
     9a8:	00 01 bb 01 	unimp  0x1bb01
     9ac:	06 00 00 01 	unknown
     9b0:	0b 02 06 00 	sethi  %hi(0x8180000), %g5
     9b4:	00 02 a2 03 	unimp  0x2a203
     9b8:	06 00 00 02 	unknown
     9bc:	64 04 00 07 	call  901009d8 <__end+0x500f3e80>
     9c0:	00 00 01 5f 	unimp  0x15f
     9c4:	02 01 5d 00 	unknown
     9c8:	00 00 a6 08 	unimp  0xa608
     9cc:	08 02 01 6c 	unknown
     9d0:	00 00 00 f9 	unimp  0xf9
     9d4:	09 6c 6c 00 	unknown
     9d8:	02 01 6d 00 	unknown
     9dc:	00 00 85 09 	unimp  0x8509
     9e0:	6c 00 02 01 	call  b00011e4 <__end+0x6fff468c>
     9e4:	6e 00 00 00 	call  b80009e4 <__end+0x77ff3e8c>
     9e8:	f9 00 0a 00 	ld  [ %g0 ], %f28
     9ec:	00 00 90 00 	unimp  0x9000
     9f0:	00 01 09 0b 	unimp  0x1090b
     9f4:	00 00 01 09 	unimp  0x109
     9f8:	01 00 0c 04 	sethi  %hi(0x301000), %g0
     9fc:	07 0d 18 02 	sethi  %hi(0x34600800), %g3
     a00:	01 60 00 00 	unknown
     a04:	01 52 0e 00 	unknown
     a08:	00 01 3e 02 	unimp  0x13e02
     a0c:	01 66 00 00 	unknown
     a10:	00 ce 02 23 	unknown
     a14:	00 0e 00 00 	unimp  0xe0000
     a18:	02 93 02 01 	be  4c121c <_trap_table-0x3fb3ede4>
     a1c:	67 00 00 00 	call  9c000a1c <__end+0x5bff3ec4>
     a20:	6c 02 23 04 	call  b0089630 <__end+0x7007cad8>
     a24:	0e 00 00 01 	unknown
     a28:	18 02 01 68 	unknown
     a2c:	00 00 00 25 	unimp  0x25
     a30:	02 23 08 0e 	unknown
     a34:	00 00 02 5b 	unimp  0x25b
     a38:	02 01 6f 00 	unknown
     a3c:	00 00 da 02 	unimp  0xda02
     a40:	23 10 00 07 	sethi  %hi(0x40001c00), %l1
     a44:	00 00 02 3f 	unimp  0x23f
     a48:	02 01 70 00 	unknown
     a4c:	00 01 0c 08 	unimp  0x10c08
     a50:	08 02 01 73 	unknown
     a54:	00 00 01 8c 	unimp  0x18c
     a58:	0f 00 00 01 	sethi  %hi(0x400), %g7
     a5c:	29 02 01 74 	sethi  %hi(0x805d000), %l4
     a60:	00 00 00 9b 	unimp  0x9b
     a64:	0f 00 00 02 	sethi  %hi(0x800), %g7
     a68:	98 02 01 75 	unknown
     a6c:	00 00 00 85 	unimp  0x85
     a70:	0f 00 00 02 	sethi  %hi(0x800), %g7
     a74:	0b 02 01 7b 	sethi  %hi(0x805ec00), %g5
     a78:	00 00 00 f9 	unimp  0xf9
     a7c:	00 07 00 00 	unimp  0x70000
     a80:	01 e6 02 01 	cbn  ff981284 <__end+0xbf97472c>
     a84:	9b 00 00 01 	taddcc  %g0, %g1, %o5
     a88:	5e 10 00 00 	call  78400a88 <__end+0x383f3f30>
     a8c:	01 23 01 97 	sethi  %hi(0x8c065c00), %g0
     a90:	01 00 00 00 	nop 
     a94:	25 03 00 00 	sethi  %hi(0xc000000), %l2
     a98:	01 b3 11 78 	fbn  ffcc5078 <__end+0xbfcb8520>
     a9c:	00 01 97 00 	unimp  0x19700
     aa0:	00 01 b3 00 	unimp  0x1b300
     aa4:	12 04 00 00 	unknown
     aa8:	01 b9 13 00 	fbn  ffe456a8 <__end+0xbfe38b50>
     aac:	00 01 52 10 	unimp  0x15210
     ab0:	00 00 01 38 	unimp  0x138
     ab4:	01 9f 01 00 	fbn  7c0eb4 <_trap_table-0x3f83f14c>
     ab8:	00 00 25 03 	unimp  0x2503
     abc:	00 00 01 d9 	unimp  0x1d9
     ac0:	11 78 00 01 	unknown
     ac4:	9f 00 00 01 	taddcc  %g0, %g1, %o7
     ac8:	b3 00 10 00 	unknown
     acc:	00 01 df 01 	unimp  0x1df01
     ad0:	a8 01 00 00 	add  %g4, %g0, %l4
     ad4:	00 25 03 00 	unimp  0xffe50300
     ad8:	00 01 f4 11 	unimp  0x1f411
     adc:	78 00 01 a8 	call  e000117c <__end+0x9fff4624>
     ae0:	00 00 01 b3 	unimp  0x1b3
     ae4:	00 14 00 00 	unimp  0x140000
     ae8:	02 73 01 8a 	unknown
     aec:	01 00 00 01 	sethi  %hi(0x400), %g0
     af0:	b3 03 15 00 	unknown
     af4:	00 02 d9 01 	unimp  0x2d901
     af8:	03 0a 01 00 	sethi  %hi(0x28040000), %g1
     afc:	00 01 b3 03 	unimp  0x1b303
     b00:	00 00 02 ce 	unimp  0x2ce
     b04:	16 61 00 01 	unknown
     b08:	03 0a 00 00 	sethi  %hi(0x28000000), %g1
     b0c:	02 ce 16 62 	unknown
     b10:	00 01 03 0b 	unimp  0x1030b
     b14:	00 00 02 ce 	unimp  0x2ce
     b18:	16 74 6d 70 	unknown
     b1c:	00 01 03 0c 	unimp  0x1030c
     b20:	00 00 02 ce 	unimp  0x2ce
     b24:	17 6c 6f 77 	unknown
     b28:	00 01 03 0e 	unimp  0x1030e
     b2c:	00 00 00 85 	unimp  0x85
     b30:	18 00 00 02 	unknown
     b34:	bc 01 03 0f 	unknown
     b38:	00 00 00 85 	unimp  0x85
     b3c:	19 17 6e 6c 	sethi  %hi(0x5db9b000), %o4
     b40:	00 01 03 60 	unimp  0x10360
     b44:	00 00 00 61 	unimp  0x61
     b48:	17 6e 68 00 	unknown
     b4c:	01 03 61 00 	sethi  %hi(0xd840000), %g0
     b50:	00 00 61 17 	unimp  0x6117
     b54:	6d 6c 00 01 	call  b5b00b58 <__end+0x75af4000>
     b58:	03 62 00 00 	unknown
     b5c:	00 61 17 6d 	unknown
     b60:	68 00 01 03 	call  a0000f6c <__end+0x5fff4414>
     b64:	63 00 00 00 	call  8c000b64 <__end+0x4bff400c>
     b68:	61 18 00 00 	call  84600b68 <__end+0x445f4010>
     b6c:	02 d3 01 03 	unknown
     b70:	64 00 00 00 	call  90000b70 <__end+0x4fff4018>
     b74:	73 18 00 00 	call  cc600b74 <__end+0x8c5f401c>
     b78:	02 c7 01 03 	unknown
     b7c:	65 00 00 00 	call  94000b7c <__end+0x53ff4024>
     b80:	73 18 00 00 	call  cc600b80 <__end+0x8c5f4028>
     b84:	02 cd 01 03 	unknown
     b88:	66 00 00 00 	call  98000b88 <__end+0x57ff4030>
     b8c:	73 18 00 00 	call  cc600b8c <__end+0x8c5f4034>
     b90:	02 c1 01 03 	unknown
     b94:	67 00 00 00 	call  9c000b94 <__end+0x5bff403c>
     b98:	73 18 00 00 	call  cc600b98 <__end+0x8c5f4040>
     b9c:	02 eb 01 03 	unknown
     ba0:	68 00 00 00 	call  a0000ba0 <__end+0x5fff4048>
     ba4:	73 18 00 00 	call  cc600ba4 <__end+0x8c5f404c>
     ba8:	02 e6 01 03 	unknown
     bac:	69 00 00 00 	call  a4000bac <__end+0x63ff4054>
     bb0:	73 18 00 00 	call  cc600bb0 <__end+0x8c5f4058>
     bb4:	02 f0 01 03 	unknown
     bb8:	6a 00 00 00 	call  a8000bb8 <__end+0x67ff4060>
     bbc:	73 00 00 12 	call  cc000c04 <__end+0x8bff40ac>
     bc0:	04 00 00 01 	unknown
     bc4:	52 1a 01 00 	call  48680fc4 <__end+0x867446c>
     bc8:	00 02 f8 01 	unimp  0x2f801
     bcc:	03 ac 01 00 	fbne  ffb00fcc <__end+0xbfaf4474>
     bd0:	00 00 9b 40 	unimp  0x9b40
     bd4:	00 88 c4 40 	bn  231cd4 <_trap_table-0x3fdce32c>
     bd8:	00 8c 28 00 	bn  30abd8 <_trap_table-0x3fcf5428>
     bdc:	00 03 00 00 	unimp  0x30000
     be0:	00 04 0b 1b 	unimp  0x40b1b
     be4:	00 00 01 c6 	unimp  0x1c6
     be8:	01 03 ac 00 	sethi  %hi(0xeb00000), %g0
     bec:	00 00 9b 00 	unimp  0x9b00
     bf0:	00 03 1e 1c 	unimp  0x31e1c
     bf4:	00 00 01 cc 	unimp  0x1cc
     bf8:	01 03 ac 00 	sethi  %hi(0xeb00000), %g0
     bfc:	00 00 9b 06 	unimp  0x9b06
     c00:	6a 93 04 6b 	call  aa4c1dac <__end+0x6a4b5254>
     c04:	93 04 1d 61 	unknown
     c08:	00 01 03 ae 	unimp  0x103ae
     c0c:	00 00 01 52 	unimp  0x152
     c10:	02 91 58 1d 	be  456c84 <_trap_table-0x3fba937c>
     c14:	62 00 01 03 	call  88001020 <__end+0x47ff44c8>
     c18:	af 00 00 01 	taddcc  %g0, %g1, %l7
     c1c:	52 02 91 40 	call  480a511c <__end+0x80985c4>
     c20:	1d 74 6d 70 	unknown
     c24:	00 01 03 b0 	unimp  0x103b0
     c28:	00 00 01 52 	unimp  0x152
     c2c:	03 91 a8 7f 	fbne  46ae28 <_trap_table-0x3fb951d8>
     c30:	1e 72 65 73 	unknown
     c34:	00 01 03 b1 	unimp  0x103b1
     c38:	00 00 01 b3 	unimp  0x1b3
     c3c:	00 00 03 66 	unimp  0x366
     c40:	1d 61 75 00 	unknown
     c44:	01 03 b2 00 	sethi  %hi(0xec80000), %g0
     c48:	00 01 8c 02 	unimp  0x18c02
     c4c:	91 78 1d 62 	unknown
     c50:	75 00 01 03 	call  d400105c <__end+0x93ff4504>
     c54:	b2 00 00 01 	add  %g0, %g1, %i1
     c58:	8c 02 91 70 	unknown
     c5c:	1f 00 00 02 	sethi  %hi(0x800), %o7
     c60:	01 40 00 88 	unknown
     c64:	f0 00 00 00 	ld  [ %g0 ], %i0
     c68:	58 01 03 ba 	call  60041b50 <__end+0x20034ff8>
     c6c:	20 00 00 02 	unknown
     c70:	27 20 00 00 	sethi  %hi(0x80000000), %l3
     c74:	02 1d 20 00 	unknown
     c78:	00 02 13 21 	unimp  0x21321
     c7c:	00 00 00 80 	unimp  0x80
     c80:	22 00 00 02 	unknown
     c84:	33 00 00 03 	sethi  %hi(0xc00), %i1
     c88:	8f 22 00 00 	mulscc  %o0, %g0, %g7
     c8c:	02 3f 00 00 	unknown
     c90:	04 57 23 00 	unknown
     c94:	00 00 a8 00 	unimp  0xa800
     c98:	00 03 f2 24 	unimp  0x3f224
     c9c:	00 00 02 4c 	unimp  0x24c
     ca0:	24 00 00 02 	unknown
     ca4:	57 24 00 00 	call  5c900ca4 <__end+0x1c8f414c>
     ca8:	02 62 24 00 	unknown
     cac:	00 02 6d 22 	unimp  0x26d22
     cb0:	00 00 02 78 	unimp  0x278
     cb4:	00 00 04 ff 	unimp  0x4ff
     cb8:	22 00 00 02 	unknown
     cbc:	84 00 00 05 	add  %g0, %g5, %g2
     cc0:	47 24 00 00 	call  1c900cc0 <_trap_table-0x236ff340>
     cc4:	02 90 24 00 	be  409cc4 <_trap_table-0x3fbf633c>
     cc8:	00 02 9c 22 	unimp  0x29c22
     ccc:	00 00 02 a8 	unimp  0x2a8
     cd0:	00 00 05 7f 	unimp  0x57f
     cd4:	24 00 00 02 	unknown
     cd8:	b4 22 00 00 	sub  %o0, %g0, %i2
     cdc:	02 c0 00 00 	unknown
     ce0:	05 c7 00 25 	cb12  1c0d74 <_trap_table-0x3fe3f28c>
     ce4:	00 00 01 98 	unimp  0x198
     ce8:	40 00 88 f0 	call  230a8 <_trap_table-0x3ffdcf58>
     cec:	40 00 88 f4 	call  230bc <_trap_table-0x3ffdcf44>
     cf0:	01 03 11 20 	sethi  %hi(0xc448000), %g0
     cf4:	00 00 01 a9 	unimp  0x1a9
     cf8:	00 00 00 00 	unimp  0
     cfc:	26 00 00 01 	unknown
     d00:	44 01 85 00 	call  10062100 <_trap_table-0x2ff9df00>
     d04:	00 01 b9 01 	unimp  0x1b901
     d08:	01 00 00 00 	nop 
     d0c:	03 4b 00 02 	unknown
     d10:	00 00 04 6e 	unimp  0x46e
     d14:	04 01 00 00 	unknown
     d18:	00 eb 01 00 	unknown
     d1c:	00 02 7b 00 	unimp  0x27b00
     d20:	00 01 6d 40 	unimp  0x16d40
     d24:	00 8c 28 40 	bn  30ae24 <_trap_table-0x3fcf51dc>
     d28:	00 8e 64 00 	bn  399d28 <_trap_table-0x3fc662d8>
     d2c:	00 06 d6 02 	unimp  0x6d602
     d30:	04 05 69 6e 	unknown
     d34:	74 00 03 01 	call  d0001938 <__end+0x8fff4de0>
     d38:	06 00 00 00 	unknown
     d3c:	e6 03 04 04 	ld  [ %o4 + %g4 ], %l3
     d40:	00 00 03 aa 	unimp  0x3aa
     d44:	04 00 00 01 	unknown
     d48:	50 02 5d 00 	call  40098148 <__end+0x8b5f0>
     d4c:	00 00 45 03 	unimp  0x4503
     d50:	08 04 00 00 	unknown
     d54:	03 f7 03 02 	cb123  ffdc195c <__end+0xbfdb4e04>
     d58:	05 00 00 00 	sethi  %hi(0), %g2
     d5c:	bc 03 08 05 	unknown
     d60:	00 00 00 f7 	unimp  0xf7
     d64:	03 02 07 00 	sethi  %hi(0x81c0000), %g1
     d68:	00 00 67 04 	unimp  0x6704
     d6c:	00 00 01 57 	unimp  0x157
     d70:	02 70 00 00 	unknown
     d74:	00 6c 03 04 	unknown
     d78:	07 00 00 00 	sethi  %hi(0), %g3
     d7c:	d0 04 00 00 	ld  [ %l0 ], %o0
     d80:	02 11 02 71 	unknown
     d84:	00 00 00 7e 	unimp  0x7e
     d88:	03 08 07 00 	sethi  %hi(0x201c0000), %g1
     d8c:	00 00 c6 04 	unimp  0xc604
     d90:	00 00 02 b3 	unimp  0x2b3
     d94:	02 d6 00 00 	unknown
     d98:	00 73 04 00 	unknown
     d9c:	00 02 af 02 	unimp  0x2af02
     da0:	d7 00 00 00 	ld  [ %g0 ], %f11
     da4:	61 04 00 00 	call  84100da4 <__end+0x440f424c>
     da8:	02 21 02 d8 	unknown
     dac:	00 00 00 3a 	unimp  0x3a
     db0:	05 04 02 01 	sethi  %hi(0x10080400), %g2
     db4:	57 00 00 00 	call  5c000db4 <__end+0x1bff425c>
     db8:	ce 06 00 00 	ld  [ %i0 ], %g7
     dbc:	02 2a 00 06 	unknown
     dc0:	00 00 01 bb 	unimp  0x1bb
     dc4:	01 06 00 00 	sethi  %hi(0x18000000), %g0
     dc8:	01 0b 02 06 	sethi  %hi(0x2c081800), %g0
     dcc:	00 00 02 a2 	unimp  0x2a2
     dd0:	03 06 00 00 	sethi  %hi(0x18000000), %g1
     dd4:	02 64 04 00 	unknown
     dd8:	07 00 00 01 	sethi  %hi(0x400), %g3
     ddc:	5f 02 01 5d 	call  7c081350 <__end+0x3c0747f8>
     de0:	00 00 00 a6 	unimp  0xa6
     de4:	08 08 02 01 	unknown
     de8:	6c 00 00 00 	call  b0000de8 <__end+0x6fff4290>
     dec:	f9 09 6c 6c 	unknown
     df0:	00 02 01 6d 	unimp  0x2016d
     df4:	00 00 00 85 	unimp  0x85
     df8:	09 6c 00 02 	unknown
     dfc:	01 6e 00 00 	unknown
     e00:	00 f9 00 0a 	unknown
     e04:	00 00 00 90 	unimp  0x90
     e08:	00 00 01 09 	unimp  0x109
     e0c:	0b 00 00 01 	sethi  %hi(0x400), %g5
     e10:	09 01 00 0c 	sethi  %hi(0x4003000), %g4
     e14:	04 07 0d 18 	unknown
     e18:	02 01 60 00 	unknown
     e1c:	00 01 52 0e 	unimp  0x1520e
     e20:	00 00 01 3e 	unimp  0x13e
     e24:	02 01 66 00 	unknown
     e28:	00 00 ce 02 	unimp  0xce02
     e2c:	23 00 0e 00 	sethi  %hi(0x380000), %l1
     e30:	00 02 93 02 	unimp  0x29302
     e34:	01 67 00 00 	unknown
     e38:	00 6c 02 23 	unknown
     e3c:	04 0e 00 00 	unknown
     e40:	01 18 02 01 	sethi  %hi(0x60080400), %g0
     e44:	68 00 00 00 	call  a0000e44 <__end+0x5fff42ec>
     e48:	25 02 23 08 	sethi  %hi(0x88c2000), %l2
     e4c:	0e 00 00 02 	unknown
     e50:	5b 02 01 6f 	call  6c08140c <__end+0x2c0748b4>
     e54:	00 00 00 da 	unimp  0xda
     e58:	02 23 10 00 	unknown
     e5c:	07 00 00 02 	sethi  %hi(0x800), %g3
     e60:	3f 02 01 70 	sethi  %hi(0x805c000), %i7
     e64:	00 00 01 0c 	unimp  0x10c
     e68:	08 08 02 01 	unknown
     e6c:	73 00 00 01 	call  cc000e70 <__end+0x8bff4318>
     e70:	8c 0f 00 00 	and  %i4, %g0, %g6
     e74:	01 29 02 01 	sethi  %hi(0xa4080400), %g0
     e78:	74 00 00 00 	call  d0000e78 <__end+0x8fff4320>
     e7c:	9b 0f 00 00 	tsubcc  %i4, %g0, %o5
     e80:	02 98 02 01 	be  601684 <_trap_table-0x3f9fe97c>
     e84:	75 00 00 00 	call  d4000e84 <__end+0x93ff432c>
     e88:	85 0f 00 00 	tsubcc  %i4, %g0, %g2
     e8c:	02 0b 02 01 	unknown
     e90:	7b 00 00 00 	call  ec000e90 <__end+0xabff4338>
     e94:	f9 00 07 00 	ld  [ %g0 ], %f28
     e98:	00 01 e6 02 	unimp  0x1e602
     e9c:	01 9b 00 00 	fbn  6c0e9c <_trap_table-0x3f93f164>
     ea0:	01 5e 10 00 	unknown
     ea4:	00 01 23 01 	unimp  0x12301
     ea8:	97 01 00 00 	taddcc  %g4, %g0, %o3
     eac:	00 25 03 00 	unimp  0xffe50300
     eb0:	00 01 b3 11 	unimp  0x1b311
     eb4:	78 00 01 97 	call  e0001510 <__end+0x9fff49b8>
     eb8:	00 00 01 b3 	unimp  0x1b3
     ebc:	00 12 04 00 	unimp  0x120400
     ec0:	00 01 b9 13 	unimp  0x1b913
     ec4:	00 00 01 52 	unimp  0x152
     ec8:	10 00 00 01 	unknown
     ecc:	38 01 9f 01 	unknown
     ed0:	00 00 00 25 	unimp  0x25
     ed4:	03 00 00 01 	sethi  %hi(0x400), %g1
     ed8:	d9 11 78 00 	unknown
     edc:	01 9f 00 00 	fbn  7c0edc <_trap_table-0x3f83f124>
     ee0:	01 b3 00 10 	fbn  ffcc0f20 <__end+0xbfcb43c8>
     ee4:	00 00 01 df 	unimp  0x1df
     ee8:	01 a8 01 00 	fbn  ffa012e8 <__end+0xbf9f4790>
     eec:	00 00 25 03 	unimp  0x2503
     ef0:	00 00 01 f4 	unimp  0x1f4
     ef4:	11 78 00 01 	unknown
     ef8:	a8 00 00 01 	add  %g0, %g1, %l4
     efc:	b3 00 14 00 	unknown
     f00:	00 02 73 01 	unimp  0x27301
     f04:	8a 01 00 00 	add  %g4, %g0, %g5
     f08:	01 b3 03 15 	fbn  ffcc1b5c <__end+0xbfcb5004>
     f0c:	00 00 03 01 	unimp  0x301
     f10:	01 03 c2 01 	sethi  %hi(0xf080400), %g0
     f14:	00 00 01 b3 	unimp  0x1b3
     f18:	03 00 00 02 	sethi  %hi(0x800), %g1
     f1c:	58 16 61 00 	call  6059931c <__end+0x2058c7c4>
     f20:	01 03 c2 00 	sethi  %hi(0xf080000), %g0
     f24:	00 02 58 16 	unimp  0x25816
     f28:	62 00 01 03 	call  88001334 <__end+0x47ff47dc>
     f2c:	c3 00 00 02 	ld  [ %g0 + %g2 ], %f1
     f30:	58 17 62 69 	call  605d98d4 <__end+0x205ccd7c>
     f34:	74 00 01 03 	call  d0001340 <__end+0x8fff47e8>
     f38:	c5 00 00 00 	ld  [ %g0 ], %f2
     f3c:	85 18 00 00 	tsubcctv  %g0, %g0, %g2
     f40:	03 20 01 03 	sethi  %hi(0x80040c00), %g1
     f44:	c6 00 00 00 	ld  [ %g0 ], %g3
     f48:	85 18 00 00 	tsubcctv  %g0, %g0, %g2
     f4c:	03 2a 01 03 	sethi  %hi(0xa8040c00), %g1
     f50:	c7 00 00 00 	ld  [ %g0 ], %f3
     f54:	85 18 00 00 	tsubcctv  %g0, %g0, %g2
     f58:	03 0e 01 03 	sethi  %hi(0x38040c00), %g1
     f5c:	c8 00 00 00 	ld  [ %g0 ], %g4
     f60:	85 00 12 04 	unknown
     f64:	00 00 01 52 	unimp  0x152
     f68:	19 01 00 00 	sethi  %hi(0x4000000), %o4
     f6c:	03 17 01 04 	sethi  %hi(0x5c041000), %g1
     f70:	23 01 00 00 	sethi  %hi(0x4000000), %l1
     f74:	00 9b 40 00 	bn  6d0f74 <_trap_table-0x3f92f08c>
     f78:	8c 28 40 00 	andn  %g1, %g0, %g6
     f7c:	8e 64 00 00 	subx  %l0, %g0, %g7
     f80:	06 1f 00 00 	unknown
     f84:	03 41 1a 00 	unknown
     f88:	00 01 c6 01 	unimp  0x1c601
     f8c:	04 23 00 00 	unknown
     f90:	00 9b 00 00 	bn  6c0f90 <_trap_table-0x3f93f070>
     f94:	06 3d 1b 00 	unknown
     f98:	00 01 cc 01 	unimp  0x1cc01
     f9c:	04 23 00 00 	unknown
     fa0:	00 9b 06 6a 	bn  6c2948 <_trap_table-0x3f93d6b8>
     fa4:	93 04 6b 93 	taddcc  %l1, 0xb93, %o1
     fa8:	04 1c 61 00 	unknown
     fac:	01 04 25 00 	sethi  %hi(0x10940000), %g0
     fb0:	00 01 52 02 	unimp  0x15202
     fb4:	91 58 1c 62 	unknown
     fb8:	00 01 04 26 	unimp  0x10426
     fbc:	00 00 01 52 	unimp  0x152
     fc0:	02 91 40 1d 	be  451034 <_trap_table-0x3fbaefcc>
     fc4:	72 65 73 00 	call  c995dbc4 <__end+0x8995106c>
     fc8:	01 04 27 00 	sethi  %hi(0x109c0000), %g0
     fcc:	00 01 b3 00 	unimp  0x1b300
     fd0:	00 06 75 1c 	unimp  0x6751c
     fd4:	61 75 00 01 	call  85d40fd8 <__end+0x45d34480>
     fd8:	04 28 00 00 	unknown
     fdc:	01 8c 02 91 	fbn  301a20 <_trap_table-0x3fcfe5e0>
     fe0:	78 1c 62 75 	call  e07199b4 <__end+0xa070ce5c>
     fe4:	00 01 04 28 	unimp  0x10428
     fe8:	00 00 01 8c 	unimp  0x18c
     fec:	02 91 70 1e 	be  45d064 <_trap_table-0x3fba2f9c>
     ff0:	00 00 02 01 	unimp  0x201
     ff4:	40 00 8c 54 	call  24144 <_trap_table-0x3ffdbebc>
     ff8:	00 00 00 e0 	unimp  0xe0
     ffc:	01 04 30 1f 	sethi  %hi(0x10c07c00), %g0
    1000:	00 00 02 1d 	unimp  0x21d
    1004:	1f 00 00 02 	sethi  %hi(0x800), %o7
    1008:	13 20 00 00 	sethi  %hi(0x80000000), %o1
    100c:	01 00 21 00 	sethi  %hi(0x840000), %g0
    1010:	00 02 27 00 	unimp  0x22700
    1014:	00 06 eb 21 	unimp  0x6eb21
    1018:	00 00 02 33 	unimp  0x233
    101c:	00 00 07 a3 	unimp  0x7a3
    1020:	21 00 00 02 	sethi  %hi(0x800), %l0
    1024:	3f 00 00 08 	sethi  %hi(0x2000), %i7
    1028:	8b 21 00 00 	mulscc  %g4, %g0, %g5
    102c:	02 4b 00 00 	unknown
    1030:	08 c3 22 00 	unknown
    1034:	00 01 98 40 	unimp  0x19840
    1038:	00 8c 64 40 	bn  31a138 <_trap_table-0x3fce5ec8>
    103c:	00 8c 68 01 	bn  31b040 <_trap_table-0x3fce4fc0>
    1040:	03 ce 1f 00 	cb123  388c40 <_trap_table-0x3fc773c0>
    1044:	00 01 a9 00 	unimp  0x1a900
    1048:	00 00 00 23 	unimp  0x23
    104c:	00 00 01 44 	unimp  0x144
    1050:	01 85 00 00 	fbn  141050 <_trap_table-0x3febefb0>
    1054:	01 b9 01 01 	fbn  ffe41458 <__end+0xbfe34900>
    1058:	00 00 00 02 	unimp  0x2
    105c:	4b 00 02 00 	call  2c00185c <_trap_table-0x13ffe7a4>
    1060:	00 06 3c 04 	unimp  0x63c04
    1064:	01 00 00 00 	nop 
    1068:	eb 01 00 00 	ld  [ %g4 ], %f21
    106c:	02 7b 00 00 	unknown
    1070:	01 6d 40 00 	unknown
    1074:	8e 64 40 00 	subx  %l1, %g0, %g7
    1078:	8e c8 00 00 	unknown
    107c:	07 c4 02 04 	cb13  10188c <_trap_table-0x3fefe774>
    1080:	05 69 6e 74 	unknown
    1084:	00 03 01 06 	unimp  0x30106
    1088:	00 00 00 e6 	unimp  0xe6
    108c:	03 04 04 00 	sethi  %hi(0x10100000), %g1
    1090:	00 03 aa 04 	unimp  0x3aa04
    1094:	00 00 01 50 	unimp  0x150
    1098:	02 5d 00 00 	unknown
    109c:	00 45 03 08 	unknown
    10a0:	04 00 00 03 	unknown
    10a4:	f7 03 02 05 	ld  [ %o4 + %g5 ], %f27
    10a8:	00 00 00 bc 	unimp  0xbc
    10ac:	03 08 05 00 	sethi  %hi(0x20140000), %g1
    10b0:	00 00 f7 04 	unimp  0xf704
    10b4:	00 00 03 3e 	unimp  0x33e
    10b8:	02 6c 00 00 	unknown
    10bc:	00 25 03 02 	unimp  0xffe50302
    10c0:	07 00 00 00 	sethi  %hi(0), %g3
    10c4:	67 04 00 00 	call  9c1010c4 <__end+0x5c0f456c>
    10c8:	01 57 02 70 	unknown
    10cc:	00 00 00 77 	unimp  0x77
    10d0:	03 04 07 00 	sethi  %hi(0x101c0000), %g1
    10d4:	00 00 d0 04 	unimp  0xd004
    10d8:	00 00 02 11 	unimp  0x211
    10dc:	02 71 00 00 	unknown
    10e0:	00 89 03 08 	bn  241d00 <_trap_table-0x3fdbe300>
    10e4:	07 00 00 00 	sethi  %hi(0), %g3
    10e8:	c6 04 00 00 	ld  [ %l0 ], %g3
    10ec:	02 b3 02 d6 	be  ffcc1c44 <__end+0xbfcb50ec>
    10f0:	00 00 00 7e 	unimp  0x7e
    10f4:	04 00 00 02 	unknown
    10f8:	af 02 d7 00 	unknown
    10fc:	00 00 6c 04 	unimp  0x6c04
    1100:	00 00 02 21 	unimp  0x221
    1104:	02 d8 00 00 	unknown
    1108:	00 3a 05 04 	unimp  0xfffa0504
    110c:	02 01 57 00 	unknown
    1110:	00 00 d9 06 	unimp  0xd906
    1114:	00 00 02 2a 	unimp  0x22a
    1118:	00 06 00 00 	unimp  0x60000
    111c:	01 bb 01 06 	fbn  ffec1534 <__end+0xbfeb49dc>
    1120:	00 00 01 0b 	unimp  0x10b
    1124:	02 06 00 00 	unknown
    1128:	02 a2 03 06 	be  ff881d40 <__end+0xbf8751e8>
    112c:	00 00 02 64 	unimp  0x264
    1130:	04 00 07 00 	unknown
    1134:	00 01 5f 02 	unimp  0x15f02
    1138:	01 5d 00 00 	unknown
    113c:	00 b1 08 08 	bn  ffc4315c <__end+0xbfc36604>
    1140:	02 01 6c 00 	unknown
    1144:	00 01 04 09 	unimp  0x10409
    1148:	6c 6c 00 02 	call  b1b01150 <__end+0x71af45f8>
    114c:	01 6d 00 00 	unknown
    1150:	00 90 09 6c 	bn  403700 <_trap_table-0x3fbfc900>
    1154:	00 02 01 6e 	unimp  0x2016e
    1158:	00 00 01 04 	unimp  0x104
    115c:	00 0a 00 00 	unimp  0xa0000
    1160:	00 9b 00 00 	bn  6c1160 <_trap_table-0x3f93eea0>
    1164:	01 14 0b 00 	sethi  %hi(0x502c0000), %g0
    1168:	00 01 14 01 	unimp  0x11401
    116c:	00 0c 04 07 	unimp  0xc0407
    1170:	0d 18 02 01 	sethi  %hi(0x60080400), %g6
    1174:	60 00 00 01 	call  80001178 <__end+0x3fff4620>
    1178:	5d 0e 00 00 	call  74381178 <__end+0x34374620>
    117c:	01 3e 02 01 	sethi  %hi(0xf8080400), %g0
    1180:	66 00 00 00 	call  98001180 <__end+0x57ff4628>
    1184:	d9 02 23 00 	ld  [ %o0 + 0x300 ], %f12
    1188:	0e 00 00 02 	unknown
    118c:	93 02 01 67 	unknown
    1190:	00 00 00 77 	unimp  0x77
    1194:	02 23 04 0e 	unknown
    1198:	00 00 01 18 	unimp  0x118
    119c:	02 01 68 00 	unknown
    11a0:	00 00 25 02 	unimp  0x2502
    11a4:	23 08 0e 00 	sethi  %hi(0x20380000), %l1
    11a8:	00 02 5b 02 	unimp  0x25b02
    11ac:	01 6f 00 00 	unknown
    11b0:	00 e5 02 23 	unknown
    11b4:	10 00 07 00 	unknown
    11b8:	00 02 3f 02 	unimp  0x23f02
    11bc:	01 70 00 00 	unknown
    11c0:	01 17 08 08 	sethi  %hi(0x5c202000), %g0
    11c4:	02 01 73 00 	unknown
    11c8:	00 01 97 0f 	unimp  0x1970f
    11cc:	00 00 01 29 	unimp  0x129
    11d0:	02 01 74 00 	unknown
    11d4:	00 00 a6 0f 	unimp  0xa60f
    11d8:	00 00 02 98 	unimp  0x298
    11dc:	02 01 75 00 	unknown
    11e0:	00 00 90 0f 	unimp  0x900f
    11e4:	00 00 02 0b 	unimp  0x20b
    11e8:	02 01 7b 00 	unknown
    11ec:	00 01 04 00 	unimp  0x10400
    11f0:	07 00 00 01 	sethi  %hi(0x400), %g3
    11f4:	e6 02 01 9b 	ld  [ %o0 + %i3 ], %l3
    11f8:	00 00 01 69 	unimp  0x169
    11fc:	10 00 00 01 	unknown
    1200:	23 01 97 01 	sethi  %hi(0x65c0400), %l1
    1204:	00 00 00 25 	unimp  0x25
    1208:	03 00 00 01 	sethi  %hi(0x400), %g1
    120c:	be 11 78 00 	or  %g5, -2048, %i7
    1210:	01 97 00 00 	fbn  5c1210 <_trap_table-0x3fa3edf0>
    1214:	01 be 00 12 	fbn  fff8125c <__end+0xbff74704>
    1218:	04 00 00 01 	unknown
    121c:	c4 13 00 00 	lduh  [ %o4 ], %g2
    1220:	01 5d 14 01 	unknown
    1224:	00 00 03 36 	unimp  0x336
    1228:	01 04 a4 01 	sethi  %hi(0x12900400), %g0
    122c:	00 00 00 5a 	unimp  0x5a
    1230:	40 00 8e 64 	call  24bc0 <_trap_table-0x3ffdb440>
    1234:	40 00 8e c8 	call  24d54 <_trap_table-0x3ffdb2ac>
    1238:	00 00 08 eb 	unimp  0x8eb
    123c:	00 00 02 41 	unimp  0x241
    1240:	15 00 00 01 	sethi  %hi(0x400), %o2
    1244:	c6 01 04 a4 	ld  [ %g4 + %g4 ], %g3
    1248:	00 00 00 a6 	unimp  0xa6
    124c:	00 00 09 09 	unimp  0x909
    1250:	16 00 00 01 	unknown
    1254:	cc 01 04 a4 	ld  [ %g4 + %g4 ], %g6
    1258:	00 00 00 a6 	unimp  0xa6
    125c:	06 6a 93 04 	unknown
    1260:	6b 93 04 17 	call  ae4c22bc <__end+0x6e4b5764>
    1264:	61 00 01 04 	call  84001674 <__end+0x43ff4b1c>
    1268:	a6 00 00 01 	add  %g0, %g1, %l3
    126c:	5d 02 91 58 	call  740a57cc <__end+0x34098c74>
    1270:	17 62 00 01 	unknown
    1274:	04 a7 00 00 	ble  ff9c1274 <__end+0xbf9b471c>
    1278:	01 5d 02 91 	unknown
    127c:	40 17 61 75 	call  5d9850 <_trap_table-0x3fa267b0>
    1280:	00 01 04 a8 	unimp  0x104a8
    1284:	00 00 01 97 	unimp  0x197
    1288:	02 91 78 17 	be  45f2e4 <_trap_table-0x3fba0d1c>
    128c:	62 75 00 01 	call  89d41290 <__end+0x49d34738>
    1290:	04 a8 00 00 	ble  ffa01290 <__end+0xbf9f4738>
    1294:	01 97 02 91 	fbn  5c1cd8 <_trap_table-0x3fa3e328>
    1298:	70 00 18 00 	call  c0007298 <__end+0x7fffa740>
    129c:	00 01 44 01 	unimp  0x14401
    12a0:	85 00 00 01 	taddcc  %g0, %g1, %g2
    12a4:	c4 01 01 00 	ld  [ %g4 ], %g2
    12a8:	00 00 02 4b 	unimp  0x24b
    12ac:	00 02 00 00 	unimp  0x20000
    12b0:	07 7b 04 01 	unknown
    12b4:	00 00 00 eb 	unimp  0xeb
    12b8:	01 00 00 02 	sethi  %hi(0x800), %g0
    12bc:	7b 00 00 01 	call  ec0012c0 <__end+0xabff4768>
    12c0:	6d 40 00 8e 	call  b50014f8 <__end+0x74ff49a0>
    12c4:	c8 40 00 8f 	unknown
    12c8:	2c 00 00 08 	unknown
    12cc:	4c 02 04 05 	call  300822e0 <_trap_table-0xff7dd20>
    12d0:	69 6e 74 00 	call  a5b9e2d0 <__end+0x65b91778>
    12d4:	03 01 06 00 	sethi  %hi(0x4180000), %g1
    12d8:	00 00 e6 03 	unimp  0xe603
    12dc:	04 04 00 00 	unknown
    12e0:	03 aa 04 00 	fbne  ffa822e0 <__end+0xbfa75788>
    12e4:	00 01 50 02 	unimp  0x15002
    12e8:	5d 00 00 00 	call  740012e8 <__end+0x33ff4790>
    12ec:	45 03 08 04 	call  140c32fc <_trap_table-0x2bf3cd04>
    12f0:	00 00 03 f7 	unimp  0x3f7
    12f4:	03 02 05 00 	sethi  %hi(0x8140000), %g1
    12f8:	00 00 bc 03 	unimp  0xbc03
    12fc:	08 05 00 00 	unknown
    1300:	00 f7 04 00 	unknown
    1304:	00 03 3e 02 	unimp  0x33e02
    1308:	6c 00 00 00 	call  b0001308 <__end+0x6fff47b0>
    130c:	25 03 02 07 	sethi  %hi(0xc081c00), %l2
    1310:	00 00 00 67 	unimp  0x67
    1314:	04 00 00 01 	unknown
    1318:	57 02 70 00 	call  5c09d318 <__end+0x1c0907c0>
    131c:	00 00 77 03 	unimp  0x7703
    1320:	04 07 00 00 	unknown
    1324:	00 d0 04 00 	unknown
    1328:	00 02 11 02 	unimp  0x21102
    132c:	71 00 00 00 	call  c400132c <__end+0x83ff47d4>
    1330:	89 03 08 07 	unknown
    1334:	00 00 00 c6 	unimp  0xc6
    1338:	04 00 00 02 	unknown
    133c:	b3 02 d6 00 	unknown
    1340:	00 00 7e 04 	unimp  0x7e04
    1344:	00 00 02 af 	unimp  0x2af
    1348:	02 d7 00 00 	unknown
    134c:	00 6c 04 00 	unknown
    1350:	00 02 21 02 	unimp  0x22102
    1354:	d8 00 00 00 	ld  [ %g0 ], %o4
    1358:	3a 05 04 02 	unknown
    135c:	01 57 00 00 	unknown
    1360:	00 d9 06 00 	unknown
    1364:	00 02 2a 00 	unimp  0x22a00
    1368:	06 00 00 01 	unknown
    136c:	bb 01 06 00 	unknown
    1370:	00 01 0b 02 	unimp  0x10b02
    1374:	06 00 00 02 	unknown
    1378:	a2 03 06 00 	unknown
    137c:	00 02 64 04 	unimp  0x26404
    1380:	00 07 00 00 	unimp  0x70000
    1384:	01 5f 02 01 	unknown
    1388:	5d 00 00 00 	call  74001388 <__end+0x33ff4830>
    138c:	b1 08 08 02 	unknown
    1390:	01 6c 00 00 	unknown
    1394:	01 04 09 6c 	sethi  %hi(0x1025b000), %g0
    1398:	6c 00 02 01 	call  b0001b9c <__end+0x6fff5044>
    139c:	6d 00 00 00 	call  b400139c <__end+0x73ff4844>
    13a0:	90 09 6c 00 	and  %g5, 0xc00, %o0
    13a4:	02 01 6e 00 	unknown
    13a8:	00 01 04 00 	unimp  0x10400
    13ac:	0a 00 00 00 	unknown
    13b0:	9b 00 00 01 	taddcc  %g0, %g1, %o5
    13b4:	14 0b 00 00 	unknown
    13b8:	01 14 01 00 	sethi  %hi(0x50040000), %g0
    13bc:	0c 04 07 0d 	unknown
    13c0:	18 02 01 60 	unknown
    13c4:	00 00 01 5d 	unimp  0x15d
    13c8:	0e 00 00 01 	unknown
    13cc:	3e 02 01 66 	unknown
    13d0:	00 00 00 d9 	unimp  0xd9
    13d4:	02 23 00 0e 	unknown
    13d8:	00 00 02 93 	unimp  0x293
    13dc:	02 01 67 00 	unknown
    13e0:	00 00 77 02 	unimp  0x7702
    13e4:	23 04 0e 00 	sethi  %hi(0x10380000), %l1
    13e8:	00 01 18 02 	unimp  0x11802
    13ec:	01 68 00 00 	unknown
    13f0:	00 25 02 23 	unimp  0xffe50223
    13f4:	08 0e 00 00 	unknown
    13f8:	02 5b 02 01 	unknown
    13fc:	6f 00 00 00 	call  bc0013fc <__end+0x7bff48a4>
    1400:	e5 02 23 10 	ld  [ %o0 + 0x310 ], %f18
    1404:	00 07 00 00 	unimp  0x70000
    1408:	02 3f 02 01 	unknown
    140c:	70 00 00 01 	call  c0001410 <__end+0x7fff48b8>
    1410:	17 08 08 02 	sethi  %hi(0x20200800), %o3
    1414:	01 73 00 00 	unknown
    1418:	01 97 0f 00 	fbn  5c5018 <_trap_table-0x3fa3afe8>
    141c:	00 01 29 02 	unimp  0x12902
    1420:	01 74 00 00 	unknown
    1424:	00 a6 0f 00 	bn  ff985024 <__end+0xbf9784cc>
    1428:	00 02 98 02 	unimp  0x29802
    142c:	01 75 00 00 	unknown
    1430:	00 90 0f 00 	bn  405030 <_trap_table-0x3fbfafd0>
    1434:	00 02 0b 02 	unimp  0x20b02
    1438:	01 7b 00 00 	unknown
    143c:	01 04 00 07 	sethi  %hi(0x10001c00), %g0
    1440:	00 00 01 e6 	unimp  0x1e6
    1444:	02 01 9b 00 	unknown
    1448:	00 01 69 10 	unimp  0x16910
    144c:	00 00 01 23 	unimp  0x123
    1450:	01 97 01 00 	fbn  5c1850 <_trap_table-0x3fa3e7b0>
    1454:	00 00 25 03 	unimp  0x2503
    1458:	00 00 01 be 	unimp  0x1be
    145c:	11 78 00 01 	unknown
    1460:	97 00 00 01 	taddcc  %g0, %g1, %o3
    1464:	be 00 12 04 	unknown
    1468:	00 00 01 c4 	unimp  0x1c4
    146c:	13 00 00 01 	sethi  %hi(0x400), %o1
    1470:	5d 14 01 00 	call  74501870 <__end+0x344f4d18>
    1474:	00 03 46 01 	unimp  0x34601
    1478:	04 b9 01 00 	ble  ffe41878 <__end+0xbfe34d20>
    147c:	00 00 5a 40 	unimp  0x5a40
    1480:	00 8e c8 40 	bn  3b3580 <_trap_table-0x3fc4ca80>
    1484:	00 8f 2c 00 	bn  3cc484 <_trap_table-0x3fc33b7c>
    1488:	00 09 31 00 	unimp  0x93100
    148c:	00 02 41 15 	unimp  0x24115
    1490:	00 00 01 c6 	unimp  0x1c6
    1494:	01 04 b9 00 	sethi  %hi(0x12e40000), %g0
    1498:	00 00 a6 00 	unimp  0xa600
    149c:	00 09 4f 16 	unimp  0x94f16
    14a0:	00 00 01 cc 	unimp  0x1cc
    14a4:	01 04 b9 00 	sethi  %hi(0x12e40000), %g0
    14a8:	00 00 a6 06 	unimp  0xa606
    14ac:	6a 93 04 6b 	call  aa4c2658 <__end+0x6a4b5b00>
    14b0:	93 04 17 61 	unknown
    14b4:	00 01 04 bb 	unimp  0x104bb
    14b8:	00 00 01 5d 	unimp  0x15d
    14bc:	02 91 58 17 	be  457518 <_trap_table-0x3fba8ae8>
    14c0:	62 00 01 04 	call  880018d0 <__end+0x47ff4d78>
    14c4:	bc 00 00 01 	add  %g0, %g1, %fp
    14c8:	5d 02 91 40 	call  740a59c8 <__end+0x34098e70>
    14cc:	17 61 75 00 	unknown
    14d0:	01 04 bd 00 	sethi  %hi(0x12f40000), %g0
    14d4:	00 01 97 02 	unimp  0x19702
    14d8:	91 78 17 62 	unknown
    14dc:	75 00 01 04 	call  d40018ec <__end+0x93ff4d94>
    14e0:	bd 00 00 01 	taddcc  %g0, %g1, %fp
    14e4:	97 02 91 70 	unknown
    14e8:	00 18 00 00 	unimp  0x180000
    14ec:	01 44 01 85 	unknown
    14f0:	00 00 01 c4 	unimp  0x1c4
    14f4:	01 01 00 00 	sethi  %hi(0x4000000), %g0
    14f8:	00 02 4b 00 	unimp  0x24b00
    14fc:	02 00 00 08 	unknown
    1500:	ba 04 01 00 	unknown
    1504:	00 00 eb 01 	unimp  0xeb01
    1508:	00 00 02 7b 	unimp  0x27b
    150c:	00 00 01 6d 	unimp  0x16d
    1510:	40 00 8f 2c 	call  251c0 <_trap_table-0x3ffdae40>
    1514:	40 00 8f 90 	call  25354 <_trap_table-0x3ffdacac>
    1518:	00 00 08 d4 	unimp  0x8d4
    151c:	02 04 05 69 	unknown
    1520:	6e 74 00 03 	call  b9d0152c <__end+0x79cf49d4>
    1524:	01 06 00 00 	sethi  %hi(0x18000000), %g0
    1528:	00 e6 03 04 	unknown
    152c:	04 00 00 03 	unknown
    1530:	aa 04 00 00 	add  %l0, %g0, %l5
    1534:	01 50 02 5d 	unknown
    1538:	00 00 00 45 	unimp  0x45
    153c:	03 08 04 00 	sethi  %hi(0x20100000), %g1
    1540:	00 03 f7 03 	unimp  0x3f703
    1544:	02 05 00 00 	unknown
    1548:	00 bc 03 08 	bn  fff02168 <__end+0xbfef5610>
    154c:	05 00 00 00 	sethi  %hi(0), %g2
    1550:	f7 04 00 00 	ld  [ %l0 ], %f27
    1554:	03 3e 02 6c 	sethi  %hi(0xf809b000), %g1
    1558:	00 00 00 25 	unimp  0x25
    155c:	03 02 07 00 	sethi  %hi(0x81c0000), %g1
    1560:	00 00 67 04 	unimp  0x6704
    1564:	00 00 01 57 	unimp  0x157
    1568:	02 70 00 00 	unknown
    156c:	00 77 03 04 	unknown
    1570:	07 00 00 00 	sethi  %hi(0), %g3
    1574:	d0 04 00 00 	ld  [ %l0 ], %o0
    1578:	02 11 02 71 	unknown
    157c:	00 00 00 89 	unimp  0x89
    1580:	03 08 07 00 	sethi  %hi(0x201c0000), %g1
    1584:	00 00 c6 04 	unimp  0xc604
    1588:	00 00 02 b3 	unimp  0x2b3
    158c:	02 d6 00 00 	unknown
    1590:	00 7e 04 00 	unknown
    1594:	00 02 af 02 	unimp  0x2af02
    1598:	d7 00 00 00 	ld  [ %g0 ], %f11
    159c:	6c 04 00 00 	call  b010159c <__end+0x700f4a44>
    15a0:	02 21 02 d8 	unknown
    15a4:	00 00 00 3a 	unimp  0x3a
    15a8:	05 04 02 01 	sethi  %hi(0x10080400), %g2
    15ac:	57 00 00 00 	call  5c0015ac <__end+0x1bff4a54>
    15b0:	d9 06 00 00 	ld  [ %i0 ], %f12
    15b4:	02 2a 00 06 	unknown
    15b8:	00 00 01 bb 	unimp  0x1bb
    15bc:	01 06 00 00 	sethi  %hi(0x18000000), %g0
    15c0:	01 0b 02 06 	sethi  %hi(0x2c081800), %g0
    15c4:	00 00 02 a2 	unimp  0x2a2
    15c8:	03 06 00 00 	sethi  %hi(0x18000000), %g1
    15cc:	02 64 04 00 	unknown
    15d0:	07 00 00 01 	sethi  %hi(0x400), %g3
    15d4:	5f 02 01 5d 	call  7c081b48 <__end+0x3c074ff0>
    15d8:	00 00 00 b1 	unimp  0xb1
    15dc:	08 08 02 01 	unknown
    15e0:	6c 00 00 01 	call  b00015e4 <__end+0x6fff4a8c>
    15e4:	04 09 6c 6c 	unknown
    15e8:	00 02 01 6d 	unimp  0x2016d
    15ec:	00 00 00 90 	unimp  0x90
    15f0:	09 6c 00 02 	unknown
    15f4:	01 6e 00 00 	unknown
    15f8:	01 04 00 0a 	sethi  %hi(0x10002800), %g0
    15fc:	00 00 00 9b 	unimp  0x9b
    1600:	00 00 01 14 	unimp  0x114
    1604:	0b 00 00 01 	sethi  %hi(0x400), %g5
    1608:	14 01 00 0c 	unknown
    160c:	04 07 0d 18 	unknown
    1610:	02 01 60 00 	unknown
    1614:	00 01 5d 0e 	unimp  0x15d0e
    1618:	00 00 01 3e 	unimp  0x13e
    161c:	02 01 66 00 	unknown
    1620:	00 00 d9 02 	unimp  0xd902
    1624:	23 00 0e 00 	sethi  %hi(0x380000), %l1
    1628:	00 02 93 02 	unimp  0x29302
    162c:	01 67 00 00 	unknown
    1630:	00 77 02 23 	unknown
    1634:	04 0e 00 00 	unknown
    1638:	01 18 02 01 	sethi  %hi(0x60080400), %g0
    163c:	68 00 00 00 	call  a000163c <__end+0x5fff4ae4>
    1640:	25 02 23 08 	sethi  %hi(0x88c2000), %l2
    1644:	0e 00 00 02 	unknown
    1648:	5b 02 01 6f 	call  6c081c04 <__end+0x2c0750ac>
    164c:	00 00 00 e5 	unimp  0xe5
    1650:	02 23 10 00 	unknown
    1654:	07 00 00 02 	sethi  %hi(0x800), %g3
    1658:	3f 02 01 70 	sethi  %hi(0x805c000), %i7
    165c:	00 00 01 17 	unimp  0x117
    1660:	08 08 02 01 	unknown
    1664:	73 00 00 01 	call  cc001668 <__end+0x8bff4b10>
    1668:	97 0f 00 00 	tsubcc  %i4, %g0, %o3
    166c:	01 29 02 01 	sethi  %hi(0xa4080400), %g0
    1670:	74 00 00 00 	call  d0001670 <__end+0x8fff4b18>
    1674:	a6 0f 00 00 	and  %i4, %g0, %l3
    1678:	02 98 02 01 	be  601e7c <_trap_table-0x3f9fe184>
    167c:	75 00 00 00 	call  d400167c <__end+0x93ff4b24>
    1680:	90 0f 00 00 	and  %i4, %g0, %o0
    1684:	02 0b 02 01 	unknown
    1688:	7b 00 00 01 	call  ec00168c <__end+0xabff4b34>
    168c:	04 00 07 00 	unknown
    1690:	00 01 e6 02 	unimp  0x1e602
    1694:	01 9b 00 00 	fbn  6c1694 <_trap_table-0x3f93e96c>
    1698:	01 69 10 00 	unknown
    169c:	00 01 23 01 	unimp  0x12301
    16a0:	97 01 00 00 	taddcc  %g4, %g0, %o3
    16a4:	00 25 03 00 	unimp  0xffe50300
    16a8:	00 01 be 11 	unimp  0x1be11
    16ac:	78 00 01 97 	call  e0001d08 <__end+0x9fff51b0>
    16b0:	00 00 01 be 	unimp  0x1be
    16b4:	00 12 04 00 	unimp  0x120400
    16b8:	00 01 c4 13 	unimp  0x1c413
    16bc:	00 00 01 5d 	unimp  0x15d
    16c0:	14 01 00 00 	unknown
    16c4:	03 4e 01 04 	unknown
    16c8:	ce 01 00 00 	ld  [ %g4 ], %g7
    16cc:	00 5a 40 00 	unknown
    16d0:	8f 2c 40 00 	sll  %l1, %g0, %g7
    16d4:	8f 90 00 00 	unknown
    16d8:	09 77 00 00 	unknown
    16dc:	02 41 15 00 	unknown
    16e0:	00 01 c6 01 	unimp  0x1c601
    16e4:	04 ce 00 00 	unknown
    16e8:	00 a6 00 00 	bn  ff9816e8 <__end+0xbf974b90>
    16ec:	09 95 16 00 	fbl  546eec <_trap_table-0x3fab9114>
    16f0:	00 01 cc 01 	unimp  0x1cc01
    16f4:	04 ce 00 00 	unknown
    16f8:	00 a6 06 6a 	bn  ff9830a0 <__end+0xbf976548>
    16fc:	93 04 6b 93 	taddcc  %l1, 0xb93, %o1
    1700:	04 17 61 00 	unknown
    1704:	01 04 d0 00 	sethi  %hi(0x13400000), %g0
    1708:	00 01 5d 02 	unimp  0x15d02
    170c:	91 58 17 62 	unknown
    1710:	00 01 04 d1 	unimp  0x104d1
    1714:	00 00 01 5d 	unimp  0x15d
    1718:	02 91 40 17 	be  451774 <_trap_table-0x3fbae88c>
    171c:	61 75 00 01 	call  85d41720 <__end+0x45d34bc8>
    1720:	04 d2 00 00 	unknown
    1724:	01 97 02 91 	fbn  5c2168 <_trap_table-0x3fa3de98>
    1728:	78 17 62 75 	call  e05da0fc <__end+0xa05cd5a4>
    172c:	00 01 04 d2 	unimp  0x104d2
    1730:	00 00 01 97 	unimp  0x197
    1734:	02 91 70 00 	be  45d734 <_trap_table-0x3fba28cc>
    1738:	18 00 00 01 	unknown
    173c:	44 01 85 00 	call  10062b3c <_trap_table-0x2ff9d4c4>
    1740:	00 01 c4 01 	unimp  0x1c401
    1744:	01 00 00 00 	nop 
    1748:	02 4b 00 02 	unknown
    174c:	00 00 09 f9 	unimp  0x9f9
    1750:	04 01 00 00 	unknown
    1754:	00 eb 01 00 	unknown
    1758:	00 02 7b 00 	unimp  0x27b00
    175c:	00 01 6d 40 	unimp  0x16d40
    1760:	00 8f 90 40 	bn  3e5860 <_trap_table-0x3fc1a7a0>
    1764:	00 8f f4 00 	bn  3fe764 <_trap_table-0x3fc0189c>
    1768:	00 09 5c 02 	unimp  0x95c02
    176c:	04 05 69 6e 	unknown
    1770:	74 00 03 01 	call  d0002374 <__end+0x8fff581c>
    1774:	06 00 00 00 	unknown
    1778:	e6 03 04 04 	ld  [ %o4 + %g4 ], %l3
    177c:	00 00 03 aa 	unimp  0x3aa
    1780:	04 00 00 01 	unknown
    1784:	50 02 5d 00 	call  40098b84 <__end+0x8c02c>
    1788:	00 00 45 03 	unimp  0x4503
    178c:	08 04 00 00 	unknown
    1790:	03 f7 03 02 	cb123  ffdc2398 <__end+0xbfdb5840>
    1794:	05 00 00 00 	sethi  %hi(0), %g2
    1798:	bc 03 08 05 	unknown
    179c:	00 00 00 f7 	unimp  0xf7
    17a0:	04 00 00 03 	unknown
    17a4:	3e 02 6c 00 	unknown
    17a8:	00 00 25 03 	unimp  0x2503
    17ac:	02 07 00 00 	unknown
    17b0:	00 67 04 00 	unknown
    17b4:	00 01 57 02 	unimp  0x15702
    17b8:	70 00 00 00 	call  c00017b8 <__end+0x7fff4c60>
    17bc:	77 03 04 07 	call  dc0c27d8 <__end+0x9c0b5c80>
    17c0:	00 00 00 d0 	unimp  0xd0
    17c4:	04 00 00 02 	unknown
    17c8:	11 02 71 00 	sethi  %hi(0x9c40000), %o0
    17cc:	00 00 89 03 	unimp  0x8903
    17d0:	08 07 00 00 	unknown
    17d4:	00 c6 04 00 	unknown
    17d8:	00 02 b3 02 	unimp  0x2b302
    17dc:	d6 00 00 00 	ld  [ %g0 ], %o3
    17e0:	7e 04 00 00 	call  f81017e0 <__end+0xb80f4c88>
    17e4:	02 af 02 d7 	be  ffbc2340 <__end+0xbfbb57e8>
    17e8:	00 00 00 6c 	unimp  0x6c
    17ec:	04 00 00 02 	unknown
    17f0:	21 02 d8 00 	sethi  %hi(0xb600000), %l0
    17f4:	00 00 3a 05 	unimp  0x3a05
    17f8:	04 02 01 57 	unknown
    17fc:	00 00 00 d9 	unimp  0xd9
    1800:	06 00 00 02 	unknown
    1804:	2a 00 06 00 	unknown
    1808:	00 01 bb 01 	unimp  0x1bb01
    180c:	06 00 00 01 	unknown
    1810:	0b 02 06 00 	sethi  %hi(0x8180000), %g5
    1814:	00 02 a2 03 	unimp  0x2a203
    1818:	06 00 00 02 	unknown
    181c:	64 04 00 07 	call  90101838 <__end+0x500f4ce0>
    1820:	00 00 01 5f 	unimp  0x15f
    1824:	02 01 5d 00 	unknown
    1828:	00 00 b1 08 	unimp  0xb108
    182c:	08 02 01 6c 	unknown
    1830:	00 00 01 04 	unimp  0x104
    1834:	09 6c 6c 00 	unknown
    1838:	02 01 6d 00 	unknown
    183c:	00 00 90 09 	unimp  0x9009
    1840:	6c 00 02 01 	call  b0002044 <__end+0x6fff54ec>
    1844:	6e 00 00 01 	call  b8001848 <__end+0x77ff4cf0>
    1848:	04 00 0a 00 	unknown
    184c:	00 00 9b 00 	unimp  0x9b00
    1850:	00 01 14 0b 	unimp  0x1140b
    1854:	00 00 01 14 	unimp  0x114
    1858:	01 00 0c 04 	sethi  %hi(0x301000), %g0
    185c:	07 0d 18 02 	sethi  %hi(0x34600800), %g3
    1860:	01 60 00 00 	unknown
    1864:	01 5d 0e 00 	unknown
    1868:	00 01 3e 02 	unimp  0x13e02
    186c:	01 66 00 00 	unknown
    1870:	00 d9 02 23 	unknown
    1874:	00 0e 00 00 	unimp  0xe0000
    1878:	02 93 02 01 	be  4c207c <_trap_table-0x3fb3df84>
    187c:	67 00 00 00 	call  9c00187c <__end+0x5bff4d24>
    1880:	77 02 23 04 	call  dc08a490 <__end+0x9c07d938>
    1884:	0e 00 00 01 	unknown
    1888:	18 02 01 68 	unknown
    188c:	00 00 00 25 	unimp  0x25
    1890:	02 23 08 0e 	unknown
    1894:	00 00 02 5b 	unimp  0x25b
    1898:	02 01 6f 00 	unknown
    189c:	00 00 e5 02 	unimp  0xe502
    18a0:	23 10 00 07 	sethi  %hi(0x40001c00), %l1
    18a4:	00 00 02 3f 	unimp  0x23f
    18a8:	02 01 70 00 	unknown
    18ac:	00 01 17 08 	unimp  0x11708
    18b0:	08 02 01 73 	unknown
    18b4:	00 00 01 97 	unimp  0x197
    18b8:	0f 00 00 01 	sethi  %hi(0x400), %g7
    18bc:	29 02 01 74 	sethi  %hi(0x805d000), %l4
    18c0:	00 00 00 a6 	unimp  0xa6
    18c4:	0f 00 00 02 	sethi  %hi(0x800), %g7
    18c8:	98 02 01 75 	unknown
    18cc:	00 00 00 90 	unimp  0x90
    18d0:	0f 00 00 02 	sethi  %hi(0x800), %g7
    18d4:	0b 02 01 7b 	sethi  %hi(0x805ec00), %g5
    18d8:	00 00 01 04 	unimp  0x104
    18dc:	00 07 00 00 	unimp  0x70000
    18e0:	01 e6 02 01 	cbn  ff9820e4 <__end+0xbf97558c>
    18e4:	9b 00 00 01 	taddcc  %g0, %g1, %o5
    18e8:	69 10 00 00 	call  a44018e8 <__end+0x643f4d90>
    18ec:	01 23 01 97 	sethi  %hi(0x8c065c00), %g0
    18f0:	01 00 00 00 	nop 
    18f4:	25 03 00 00 	sethi  %hi(0xc000000), %l2
    18f8:	01 be 11 78 	fbn  fff85ed8 <__end+0xbff79380>
    18fc:	00 01 97 00 	unimp  0x19700
    1900:	00 01 be 00 	unimp  0x1be00
    1904:	12 04 00 00 	unknown
    1908:	01 c4 13 00 	cbn  106508 <_trap_table-0x3fef9af8>
    190c:	00 01 5d 14 	unimp  0x15d14
    1910:	01 00 00 03 	sethi  %hi(0xc00), %g0
    1914:	56 01 04 e3 	call  58042ca0 <__end+0x18036148>
    1918:	01 00 00 00 	nop 
    191c:	5a 40 00 8f 	call  69001b58 <__end+0x28ff5000>
    1920:	90 40 00 8f 	unknown
    1924:	f4 00 00 09 	ld  [ %g0 + %o1 ], %i2
    1928:	bd 00 00 02 	taddcc  %g0, %g2, %fp
    192c:	41 15 00 00 	call  454192c <_trap_table-0x3babe6d4>
    1930:	01 c6 01 04 	cbn  181d40 <_trap_table-0x3fe7e2c0>
    1934:	e3 00 00 00 	ld  [ %g0 ], %f17
    1938:	a6 00 00 09 	add  %g0, %o1, %l3
    193c:	db 16 00 00 	unknown
    1940:	01 cc 01 04 	cbn  301d50 <_trap_table-0x3fcfe2b0>
    1944:	e3 00 00 00 	ld  [ %g0 ], %f17
    1948:	a6 06 6a 93 	add  %i1, 0xa93, %l3
    194c:	04 6b 93 04 	unknown
    1950:	17 61 00 01 	unknown
    1954:	04 e5 00 00 	unknown
    1958:	01 5d 02 91 	unknown
    195c:	58 17 62 00 	call  605da15c <__end+0x205cd604>
    1960:	01 04 e6 00 	sethi  %hi(0x13980000), %g0
    1964:	00 01 5d 02 	unimp  0x15d02
    1968:	91 40 17 61 	unknown
    196c:	75 00 01 04 	call  d4001d7c <__end+0x93ff5224>
    1970:	e7 00 00 01 	ld  [ %g0 + %g1 ], %f19
    1974:	97 02 91 78 	unknown
    1978:	17 62 75 00 	unknown
    197c:	01 04 e7 00 	sethi  %hi(0x139c0000), %g0
    1980:	00 01 97 02 	unimp  0x19702
    1984:	91 70 00 18 	unknown
    1988:	00 00 01 44 	unimp  0x144
    198c:	01 85 00 00 	fbn  14198c <_trap_table-0x3febe674>
    1990:	01 c4 01 01 	cbn  101d94 <_trap_table-0x3fefe26c>
    1994:	00 00 00 02 	unimp  0x2
    1998:	4b 00 02 00 	call  2c002198 <_trap_table-0x13ffde68>
    199c:	00 0b 38 04 	unimp  0xb3804
    19a0:	01 00 00 00 	nop 
    19a4:	eb 01 00 00 	ld  [ %g4 ], %f21
    19a8:	02 7b 00 00 	unknown
    19ac:	01 6d 40 00 	unknown
    19b0:	8f f4 40 00 	umac  %l1, %g0, %g7
    19b4:	90 58 00 00 	smul  %g0, %g0, %o0
    19b8:	09 e4 02 04 	cb1  ff9021c8 <__end+0xbf8f5670>
    19bc:	05 69 6e 74 	unknown
    19c0:	00 03 01 06 	unimp  0x30106
    19c4:	00 00 00 e6 	unimp  0xe6
    19c8:	03 04 04 00 	sethi  %hi(0x10100000), %g1
    19cc:	00 03 aa 04 	unimp  0x3aa04
    19d0:	00 00 01 50 	unimp  0x150
    19d4:	02 5d 00 00 	unknown
    19d8:	00 45 03 08 	unknown
    19dc:	04 00 00 03 	unknown
    19e0:	f7 03 02 05 	ld  [ %o4 + %g5 ], %f27
    19e4:	00 00 00 bc 	unimp  0xbc
    19e8:	03 08 05 00 	sethi  %hi(0x20140000), %g1
    19ec:	00 00 f7 04 	unimp  0xf704
    19f0:	00 00 03 3e 	unimp  0x33e
    19f4:	02 6c 00 00 	unknown
    19f8:	00 25 03 02 	unimp  0xffe50302
    19fc:	07 00 00 00 	sethi  %hi(0), %g3
    1a00:	67 04 00 00 	call  9c101a00 <__end+0x5c0f4ea8>
    1a04:	01 57 02 70 	unknown
    1a08:	00 00 00 77 	unimp  0x77
    1a0c:	03 04 07 00 	sethi  %hi(0x101c0000), %g1
    1a10:	00 00 d0 04 	unimp  0xd004
    1a14:	00 00 02 11 	unimp  0x211
    1a18:	02 71 00 00 	unknown
    1a1c:	00 89 03 08 	bn  24263c <_trap_table-0x3fdbd9c4>
    1a20:	07 00 00 00 	sethi  %hi(0), %g3
    1a24:	c6 04 00 00 	ld  [ %l0 ], %g3
    1a28:	02 b3 02 d6 	be  ffcc2580 <__end+0xbfcb5a28>
    1a2c:	00 00 00 7e 	unimp  0x7e
    1a30:	04 00 00 02 	unknown
    1a34:	af 02 d7 00 	unknown
    1a38:	00 00 6c 04 	unimp  0x6c04
    1a3c:	00 00 02 21 	unimp  0x221
    1a40:	02 d8 00 00 	unknown
    1a44:	00 3a 05 04 	unimp  0xfffa0504
    1a48:	02 01 57 00 	unknown
    1a4c:	00 00 d9 06 	unimp  0xd906
    1a50:	00 00 02 2a 	unimp  0x22a
    1a54:	00 06 00 00 	unimp  0x60000
    1a58:	01 bb 01 06 	fbn  ffec1e70 <__end+0xbfeb5318>
    1a5c:	00 00 01 0b 	unimp  0x10b
    1a60:	02 06 00 00 	unknown
    1a64:	02 a2 03 06 	be  ff88267c <__end+0xbf875b24>
    1a68:	00 00 02 64 	unimp  0x264
    1a6c:	04 00 07 00 	unknown
    1a70:	00 01 5f 02 	unimp  0x15f02
    1a74:	01 5d 00 00 	unknown
    1a78:	00 b1 08 08 	bn  ffc43a98 <__end+0xbfc36f40>
    1a7c:	02 01 6c 00 	unknown
    1a80:	00 01 04 09 	unimp  0x10409
    1a84:	6c 6c 00 02 	call  b1b01a8c <__end+0x71af4f34>
    1a88:	01 6d 00 00 	unknown
    1a8c:	00 90 09 6c 	bn  40403c <_trap_table-0x3fbfbfc4>
    1a90:	00 02 01 6e 	unimp  0x2016e
    1a94:	00 00 01 04 	unimp  0x104
    1a98:	00 0a 00 00 	unimp  0xa0000
    1a9c:	00 9b 00 00 	bn  6c1a9c <_trap_table-0x3f93e564>
    1aa0:	01 14 0b 00 	sethi  %hi(0x502c0000), %g0
    1aa4:	00 01 14 01 	unimp  0x11401
    1aa8:	00 0c 04 07 	unimp  0xc0407
    1aac:	0d 18 02 01 	sethi  %hi(0x60080400), %g6
    1ab0:	60 00 00 01 	call  80001ab4 <__end+0x3fff4f5c>
    1ab4:	5d 0e 00 00 	call  74381ab4 <__end+0x34374f5c>
    1ab8:	01 3e 02 01 	sethi  %hi(0xf8080400), %g0
    1abc:	66 00 00 00 	call  98001abc <__end+0x57ff4f64>
    1ac0:	d9 02 23 00 	ld  [ %o0 + 0x300 ], %f12
    1ac4:	0e 00 00 02 	unknown
    1ac8:	93 02 01 67 	unknown
    1acc:	00 00 00 77 	unimp  0x77
    1ad0:	02 23 04 0e 	unknown
    1ad4:	00 00 01 18 	unimp  0x118
    1ad8:	02 01 68 00 	unknown
    1adc:	00 00 25 02 	unimp  0x2502
    1ae0:	23 08 0e 00 	sethi  %hi(0x20380000), %l1
    1ae4:	00 02 5b 02 	unimp  0x25b02
    1ae8:	01 6f 00 00 	unknown
    1aec:	00 e5 02 23 	unknown
    1af0:	10 00 07 00 	unknown
    1af4:	00 02 3f 02 	unimp  0x23f02
    1af8:	01 70 00 00 	unknown
    1afc:	01 17 08 08 	sethi  %hi(0x5c202000), %g0
    1b00:	02 01 73 00 	unknown
    1b04:	00 01 97 0f 	unimp  0x1970f
    1b08:	00 00 01 29 	unimp  0x129
    1b0c:	02 01 74 00 	unknown
    1b10:	00 00 a6 0f 	unimp  0xa60f
    1b14:	00 00 02 98 	unimp  0x298
    1b18:	02 01 75 00 	unknown
    1b1c:	00 00 90 0f 	unimp  0x900f
    1b20:	00 00 02 0b 	unimp  0x20b
    1b24:	02 01 7b 00 	unknown
    1b28:	00 01 04 00 	unimp  0x10400
    1b2c:	07 00 00 01 	sethi  %hi(0x400), %g3
    1b30:	e6 02 01 9b 	ld  [ %o0 + %i3 ], %l3
    1b34:	00 00 01 69 	unimp  0x169
    1b38:	10 00 00 01 	unknown
    1b3c:	23 01 97 01 	sethi  %hi(0x65c0400), %l1
    1b40:	00 00 00 25 	unimp  0x25
    1b44:	03 00 00 01 	sethi  %hi(0x400), %g1
    1b48:	be 11 78 00 	or  %g5, -2048, %i7
    1b4c:	01 97 00 00 	fbn  5c1b4c <_trap_table-0x3fa3e4b4>
    1b50:	01 be 00 12 	fbn  fff81b98 <__end+0xbff75040>
    1b54:	04 00 00 01 	unknown
    1b58:	c4 13 00 00 	lduh  [ %o4 ], %g2
    1b5c:	01 5d 14 01 	unknown
    1b60:	00 00 03 5e 	unimp  0x35e
    1b64:	01 04 f7 01 	sethi  %hi(0x13dc0400), %g0
    1b68:	00 00 00 5a 	unimp  0x5a
    1b6c:	40 00 8f f4 	call  25b3c <_trap_table-0x3ffda4c4>
    1b70:	40 00 90 58 	call  25cd0 <_trap_table-0x3ffda330>
    1b74:	00 00 0a 03 	unimp  0xa03
    1b78:	00 00 02 41 	unimp  0x241
    1b7c:	15 00 00 01 	sethi  %hi(0x400), %o2
    1b80:	c6 01 04 f7 	ld  [ %g4 + %l7 ], %g3
    1b84:	00 00 00 a6 	unimp  0xa6
    1b88:	00 00 0a 21 	unimp  0xa21
    1b8c:	16 00 00 01 	unknown
    1b90:	cc 01 04 f7 	ld  [ %g4 + %l7 ], %g6
    1b94:	00 00 00 a6 	unimp  0xa6
    1b98:	06 6a 93 04 	unknown
    1b9c:	6b 93 04 17 	call  ae4c2bf8 <__end+0x6e4b60a0>
    1ba0:	61 00 01 04 	call  84001fb0 <__end+0x43ff5458>
    1ba4:	f9 00 00 01 	ld  [ %g0 + %g1 ], %f28
    1ba8:	5d 02 91 58 	call  740a6108 <__end+0x340995b0>
    1bac:	17 62 00 01 	unknown
    1bb0:	04 fa 00 00 	unknown
    1bb4:	01 5d 02 91 	unknown
    1bb8:	40 17 61 75 	call  5da18c <_trap_table-0x3fa25e74>
    1bbc:	00 01 04 fb 	unimp  0x104fb
    1bc0:	00 00 01 97 	unimp  0x197
    1bc4:	02 91 78 17 	be  45fc20 <_trap_table-0x3fba03e0>
    1bc8:	62 75 00 01 	call  89d41bcc <__end+0x49d35074>
    1bcc:	04 fb 00 00 	unknown
    1bd0:	01 97 02 91 	fbn  5c2614 <_trap_table-0x3fa3d9ec>
    1bd4:	70 00 18 00 	call  c0007bd4 <__end+0x7fffb07c>
    1bd8:	00 01 44 01 	unimp  0x14401
    1bdc:	85 00 00 01 	taddcc  %g0, %g1, %g2
    1be0:	c4 01 01 00 	ld  [ %g4 ], %g2
    1be4:	00 00 02 0c 	unimp  0x20c
    1be8:	00 02 00 00 	unimp  0x20000
    1bec:	0c 77 04 01 	unknown
    1bf0:	00 00 00 eb 	unimp  0xeb
    1bf4:	01 00 00 02 	sethi  %hi(0x800), %g0
    1bf8:	7b 00 00 01 	call  ec001bfc <__end+0xabff50a4>
    1bfc:	6d 40 00 90 	call  b5001e3c <__end+0x74ff52e4>
    1c00:	58 40 00 91 	call  61001e44 <__end+0x20ff52ec>
    1c04:	30 00 00 0a 	unknown
    1c08:	6c 02 04 05 	call  b0082c1c <__end+0x700760c4>
    1c0c:	69 6e 74 00 	call  a5b9ec0c <__end+0x65b920b4>
    1c10:	03 01 06 00 	sethi  %hi(0x4180000), %g1
    1c14:	00 00 e6 03 	unimp  0xe603
    1c18:	04 04 00 00 	unknown
    1c1c:	03 aa 04 00 	fbne  ffa82c1c <__end+0xbfa760c4>
    1c20:	00 01 50 02 	unimp  0x15002
    1c24:	5d 00 00 00 	call  74001c24 <__end+0x33ff50cc>
    1c28:	45 03 08 04 	call  140c3c38 <_trap_table-0x2bf3c3c8>
    1c2c:	00 00 03 f7 	unimp  0x3f7
    1c30:	03 02 05 00 	sethi  %hi(0x8140000), %g1
    1c34:	00 00 bc 04 	unimp  0xbc04
    1c38:	00 00 01 58 	unimp  0x158
    1c3c:	02 63 00 00 	unknown
    1c40:	00 25 03 08 	unimp  0xffe50308
    1c44:	05 00 00 00 	sethi  %hi(0), %g2
    1c48:	f7 03 02 07 	ld  [ %o4 + %g7 ], %f27
    1c4c:	00 00 00 67 	unimp  0x67
    1c50:	04 00 00 01 	unknown
    1c54:	57 02 70 00 	call  5c09dc54 <__end+0x1c0910fc>
    1c58:	00 00 77 03 	unimp  0x7703
    1c5c:	04 07 00 00 	unknown
    1c60:	00 d0 04 00 	unknown
    1c64:	00 02 11 02 	unimp  0x21102
    1c68:	71 00 00 00 	call  c4001c68 <__end+0x83ff5110>
    1c6c:	89 03 08 07 	unknown
    1c70:	00 00 00 c6 	unimp  0xc6
    1c74:	04 00 00 02 	unknown
    1c78:	b3 02 d6 00 	unknown
    1c7c:	00 00 7e 04 	unimp  0x7e04
    1c80:	00 00 02 af 	unimp  0x2af
    1c84:	02 d7 00 00 	unknown
    1c88:	00 6c 04 00 	unknown
    1c8c:	00 02 21 02 	unimp  0x22102
    1c90:	d8 00 00 00 	ld  [ %g0 ], %o4
    1c94:	3a 05 04 02 	unknown
    1c98:	01 57 00 00 	unknown
    1c9c:	00 d9 06 00 	unknown
    1ca0:	00 02 2a 00 	unimp  0x22a00
    1ca4:	06 00 00 01 	unknown
    1ca8:	bb 01 06 00 	unknown
    1cac:	00 01 0b 02 	unimp  0x10b02
    1cb0:	06 00 00 02 	unknown
    1cb4:	a2 03 06 00 	unknown
    1cb8:	00 02 64 04 	unimp  0x26404
    1cbc:	00 07 00 00 	unimp  0x70000
    1cc0:	01 5f 02 01 	unknown
    1cc4:	5d 00 00 00 	call  74001cc4 <__end+0x33ff516c>
    1cc8:	b1 08 08 02 	unknown
    1ccc:	01 6c 00 00 	unknown
    1cd0:	01 04 09 6c 	sethi  %hi(0x1025b000), %g0
    1cd4:	6c 00 02 01 	call  b00024d8 <__end+0x6fff5980>
    1cd8:	6d 00 00 00 	call  b4001cd8 <__end+0x73ff5180>
    1cdc:	90 09 6c 00 	and  %g5, 0xc00, %o0
    1ce0:	02 01 6e 00 	unknown
    1ce4:	00 01 04 00 	unimp  0x10400
    1ce8:	0a 00 00 00 	unknown
    1cec:	9b 00 00 01 	taddcc  %g0, %g1, %o5
    1cf0:	14 0b 00 00 	unknown
    1cf4:	01 14 01 00 	sethi  %hi(0x50040000), %g0
    1cf8:	0c 04 07 0d 	unknown
    1cfc:	18 02 01 60 	unknown
    1d00:	00 00 01 5d 	unimp  0x15d
    1d04:	0e 00 00 01 	unknown
    1d08:	3e 02 01 66 	unknown
    1d0c:	00 00 00 d9 	unimp  0xd9
    1d10:	02 23 00 0e 	unknown
    1d14:	00 00 02 93 	unimp  0x293
    1d18:	02 01 67 00 	unknown
    1d1c:	00 00 77 02 	unimp  0x7702
    1d20:	23 04 0e 00 	sethi  %hi(0x10380000), %l1
    1d24:	00 01 18 02 	unimp  0x11802
    1d28:	01 68 00 00 	unknown
    1d2c:	00 25 02 23 	unimp  0xffe50223
    1d30:	08 0e 00 00 	unknown
    1d34:	02 5b 02 01 	unknown
    1d38:	6f 00 00 00 	call  bc001d38 <__end+0x7bff51e0>
    1d3c:	e5 02 23 10 	ld  [ %o0 + 0x310 ], %f18
    1d40:	00 07 00 00 	unimp  0x70000
    1d44:	02 3f 02 01 	unknown
    1d48:	70 00 00 01 	call  c0001d4c <__end+0x7fff51f4>
    1d4c:	17 0f 00 00 	sethi  %hi(0x3c000000), %o3
    1d50:	03 6c 01 b7 	unknown
    1d54:	01 00 00 00 	nop 
    1d58:	25 03 00 00 	sethi  %hi(0xc000000), %l2
    1d5c:	01 84 10 6e 	fbn  105f14 <_trap_table-0x3fefa0ec>
    1d60:	00 01 b7 00 	unimp  0x1b700
    1d64:	00 00 6c 00 	unimp  0x6c00
    1d68:	11 01 00 00 	sethi  %hi(0x4000000), %o0
    1d6c:	03 78 01 05 	unknown
    1d70:	35 01 00 00 	sethi  %hi(0x4000000), %i2
    1d74:	00 a6 40 00 	bn  ff991d74 <__end+0xbf98521c>
    1d78:	90 58 40 00 	smul  %g1, %g0, %o0
    1d7c:	91 30 00 00 	srl  %g0, %g0, %o0
    1d80:	0a 49 00 00 	unknown
    1d84:	01 fd 12 00 	cbn  fff46584 <__end+0xbff39a2c>
    1d88:	00 01 c6 01 	unimp  0x1c601
    1d8c:	05 35 00 00 	sethi  %hi(0xd4000000), %g2
    1d90:	00 53 00 00 	unknown
    1d94:	0a 67 13 69 	unknown
    1d98:	6e 00 01 05 	call  b80021ac <__end+0x77ff5654>
    1d9c:	37 00 00 01 	sethi  %hi(0x400), %i3
    1da0:	5d 02 91 68 	call  740a6340 <__end+0x340997e8>
    1da4:	14 00 00 01 	unknown
    1da8:	20 15 00 00 	unknown
    1dac:	03 73 01 05 	unknown
    1db0:	41 00 00 00 	call  4001db0 <_trap_table-0x3bffe250>
    1db4:	6c 00 00 0a 	call  b0001ddc <__end+0x6fff5284>
    1db8:	9b 15 00 00 	taddcctv  %l4, %g0, %o5
    1dbc:	03 66 01 05 	unknown
    1dc0:	42 00 00 00 	call  8001dc0 <_trap_table-0x37ffe240>
    1dc4:	25 00 00 0a 	sethi  %hi(0x2800), %l2
    1dc8:	c4 16 00 00 	lduh  [ %i0 ], %g2
    1dcc:	01 69 40 00 	unknown
    1dd0:	90 ac 40 00 	andncc  %l1, %g0, %o0
    1dd4:	90 b4 01 05 	unknown
    1dd8:	52 17 00 00 	call  485c1dd8 <__end+0x85b5280>
    1ddc:	01 7a 00 00 	unknown
    1de0:	00 18 00 00 	unimp  0x180000
    1de4:	01 44 01 85 	unknown
    1de8:	00 00 02 0a 	unimp  0x20a
    1dec:	01 01 19 00 	sethi  %hi(0x4640000), %g0
    1df0:	00 01 5d 00 	unimp  0x15d00
    1df4:	00 00 02 79 	unimp  0x279
    1df8:	00 02 00 00 	unimp  0x20000
    1dfc:	0d bd 04 01 	fbg  fff42e00 <__end+0xbff362a8>
    1e00:	00 00 00 eb 	unimp  0xeb
    1e04:	01 00 00 02 	sethi  %hi(0x800), %g0
    1e08:	7b 00 00 01 	call  ec001e0c <__end+0xabff52b4>
    1e0c:	6d 40 00 91 	call  b5002050 <__end+0x74ff54f8>
    1e10:	30 40 00 92 	unknown
    1e14:	0c 00 00 0b 	unknown
    1e18:	10 02 04 05 	unknown
    1e1c:	69 6e 74 00 	call  a5b9ee1c <__end+0x65b922c4>
    1e20:	03 01 06 00 	sethi  %hi(0x4180000), %g1
    1e24:	00 00 e6 03 	unimp  0xe603
    1e28:	04 04 00 00 	unknown
    1e2c:	03 aa 04 00 	fbne  ffa82e2c <__end+0xbfa762d4>
    1e30:	00 01 50 02 	unimp  0x15002
    1e34:	5d 00 00 00 	call  74001e34 <__end+0x33ff52dc>
    1e38:	45 03 08 04 	call  140c3e48 <_trap_table-0x2bf3c1b8>
    1e3c:	00 00 03 f7 	unimp  0x3f7
    1e40:	03 02 05 00 	sethi  %hi(0x8140000), %g1
    1e44:	00 00 bc 04 	unimp  0xbc04
    1e48:	00 00 01 58 	unimp  0x158
    1e4c:	02 63 00 00 	unknown
    1e50:	00 25 03 08 	unimp  0xffe50308
    1e54:	05 00 00 00 	sethi  %hi(0), %g2
    1e58:	f7 03 02 07 	ld  [ %o4 + %g7 ], %f27
    1e5c:	00 00 00 67 	unimp  0x67
    1e60:	04 00 00 01 	unknown
    1e64:	57 02 70 00 	call  5c09de64 <__end+0x1c09130c>
    1e68:	00 00 77 03 	unimp  0x7703
    1e6c:	04 07 00 00 	unknown
    1e70:	00 d0 04 00 	unknown
    1e74:	00 02 11 02 	unimp  0x21102
    1e78:	71 00 00 00 	call  c4001e78 <__end+0x83ff5320>
    1e7c:	89 03 08 07 	unknown
    1e80:	00 00 00 c6 	unimp  0xc6
    1e84:	04 00 00 02 	unknown
    1e88:	b3 02 d6 00 	unknown
    1e8c:	00 00 7e 04 	unimp  0x7e04
    1e90:	00 00 02 af 	unimp  0x2af
    1e94:	02 d7 00 00 	unknown
    1e98:	00 6c 04 00 	unknown
    1e9c:	00 02 21 02 	unimp  0x22102
    1ea0:	d8 00 00 00 	ld  [ %g0 ], %o4
    1ea4:	3a 05 04 02 	unknown
    1ea8:	01 57 00 00 	unknown
    1eac:	00 d9 06 00 	unknown
    1eb0:	00 02 2a 00 	unimp  0x22a00
    1eb4:	06 00 00 01 	unknown
    1eb8:	bb 01 06 00 	unknown
    1ebc:	00 01 0b 02 	unimp  0x10b02
    1ec0:	06 00 00 02 	unknown
    1ec4:	a2 03 06 00 	unknown
    1ec8:	00 02 64 04 	unimp  0x26404
    1ecc:	00 07 00 00 	unimp  0x70000
    1ed0:	01 5f 02 01 	unknown
    1ed4:	5d 00 00 00 	call  74001ed4 <__end+0x33ff537c>
    1ed8:	b1 08 08 02 	unknown
    1edc:	01 6c 00 00 	unknown
    1ee0:	01 04 09 6c 	sethi  %hi(0x1025b000), %g0
    1ee4:	6c 00 02 01 	call  b00026e8 <__end+0x6fff5b90>
    1ee8:	6d 00 00 00 	call  b4001ee8 <__end+0x73ff5390>
    1eec:	90 09 6c 00 	and  %g5, 0xc00, %o0
    1ef0:	02 01 6e 00 	unknown
    1ef4:	00 01 04 00 	unimp  0x10400
    1ef8:	0a 00 00 00 	unknown
    1efc:	9b 00 00 01 	taddcc  %g0, %g1, %o5
    1f00:	14 0b 00 00 	unknown
    1f04:	01 14 01 00 	sethi  %hi(0x50040000), %g0
    1f08:	0c 04 07 0d 	unknown
    1f0c:	18 02 01 60 	unknown
    1f10:	00 00 01 5d 	unimp  0x15d
    1f14:	0e 00 00 01 	unknown
    1f18:	3e 02 01 66 	unknown
    1f1c:	00 00 00 d9 	unimp  0xd9
    1f20:	02 23 00 0e 	unknown
    1f24:	00 00 02 93 	unimp  0x293
    1f28:	02 01 67 00 	unknown
    1f2c:	00 00 77 02 	unimp  0x7702
    1f30:	23 04 0e 00 	sethi  %hi(0x10380000), %l1
    1f34:	00 01 18 02 	unimp  0x11802
    1f38:	01 68 00 00 	unknown
    1f3c:	00 25 02 23 	unimp  0xffe50223
    1f40:	08 0e 00 00 	unknown
    1f44:	02 5b 02 01 	unknown
    1f48:	6f 00 00 00 	call  bc001f48 <__end+0x7bff53f0>
    1f4c:	e5 02 23 10 	ld  [ %o0 + 0x310 ], %f18
    1f50:	00 07 00 00 	unimp  0x70000
    1f54:	02 3f 02 01 	unknown
    1f58:	70 00 00 01 	call  c0001f5c <__end+0x7fff5404>
    1f5c:	17 08 08 02 	sethi  %hi(0x20200800), %o3
    1f60:	01 73 00 00 	unknown
    1f64:	01 97 0f 00 	fbn  5c5b64 <_trap_table-0x3fa3a49c>
    1f68:	00 01 29 02 	unimp  0x12902
    1f6c:	01 74 00 00 	unknown
    1f70:	00 a6 0f 00 	bn  ff985b70 <__end+0xbf979018>
    1f74:	00 02 98 02 	unimp  0x29802
    1f78:	01 75 00 00 	unknown
    1f7c:	00 90 0f 00 	bn  405b7c <_trap_table-0x3fbfa484>
    1f80:	00 02 0b 02 	unimp  0x20b02
    1f84:	01 7b 00 00 	unknown
    1f88:	01 04 00 07 	sethi  %hi(0x10001c00), %g0
    1f8c:	00 00 01 e6 	unimp  0x1e6
    1f90:	02 01 9b 00 	unknown
    1f94:	00 01 69 10 	unimp  0x16910
    1f98:	00 00 01 df 	unimp  0x1df
    1f9c:	01 a8 01 00 	fbn  ffa0239c <__end+0xbf9f5844>
    1fa0:	00 00 25 03 	unimp  0x2503
    1fa4:	00 00 01 be 	unimp  0x1be
    1fa8:	11 78 00 01 	unknown
    1fac:	a8 00 00 01 	add  %g0, %g1, %l4
    1fb0:	be 00 12 04 	unknown
    1fb4:	00 00 01 c4 	unimp  0x1c4
    1fb8:	13 00 00 01 	sethi  %hi(0x400), %o1
    1fbc:	5d 10 00 00 	call  74401fbc <__end+0x343f5464>
    1fc0:	01 23 01 97 	sethi  %hi(0x8c065c00), %g0
    1fc4:	01 00 00 00 	nop 
    1fc8:	25 03 00 00 	sethi  %hi(0xc000000), %l2
    1fcc:	01 e4 11 78 	cbn  ff9065ac <__end+0xbf8f9a54>
    1fd0:	00 01 97 00 	unimp  0x19700
    1fd4:	00 01 be 00 	unimp  0x1be00
    1fd8:	10 00 00 01 	unknown
    1fdc:	38 01 9f 01 	unknown
    1fe0:	00 00 00 25 	unimp  0x25
    1fe4:	03 00 00 01 	sethi  %hi(0x400), %g1
    1fe8:	ff 11 78 00 	unknown
    1fec:	01 9f 00 00 	fbn  7c1fec <_trap_table-0x3f83e014>
    1ff0:	01 be 00 14 	fbn  fff82040 <__end+0xbff754e8>
    1ff4:	01 00 00 03 	sethi  %hi(0xc00), %g0
    1ff8:	84 01 05 83 	unknown
    1ffc:	01 00 00 00 	nop 
    2000:	53 40 00 91 	call  4d002244 <__end+0xcff56ec>
    2004:	30 40 00 92 	unknown
    2008:	0c 00 00 0a 	unknown
    200c:	ed 00 00 02 	ld  [ %g0 + %g2 ], %f22
    2010:	6f 15 00 00 	call  bc542010 <__end+0x7c5354b8>
    2014:	01 c6 01 05 	cbn  182428 <_trap_table-0x3fe7dbd8>
    2018:	83 00 00 00 	taddcc  %g0, %g0, %g1
    201c:	a6 00 00 0b 	add  %g0, %o3, %l3
    2020:	0b 16 61 00 	sethi  %hi(0x59840000), %g5
    2024:	01 05 85 00 	sethi  %hi(0x16140000), %g0
    2028:	00 01 5d 02 	unimp  0x15d02
    202c:	91 60 17 74 	unknown
    2030:	6d 70 00 01 	call  b5c02034 <__end+0x75bf54dc>
    2034:	05 86 00 00 	fblg  182034 <_trap_table-0x3fe7dfcc>
    2038:	00 53 00 00 	unknown
    203c:	0b 63 16 61 	unknown
    2040:	75 00 01 05 	call  d4002454 <__end+0x93ff58fc>
    2044:	87 00 00 01 	taddcc  %g0, %g1, %g3
    2048:	97 02 91 78 	unknown
    204c:	18 00 00 01 	unknown
    2050:	a3 40 00 91 	unknown
    2054:	44 40 00 91 	call  11002298 <_trap_table-0x2effdd68>
    2058:	48 01 05 8c 	call  20043688 <_trap_table-0x1ffbc978>
    205c:	19 00 00 01 	sethi  %hi(0x400), %o4
    2060:	b4 00 00 1a 	add  %g0, %i2, %i2
    2064:	00 00 01 44 	unimp  0x144
    2068:	01 85 00 00 	fbn  142068 <_trap_table-0x3febdf98>
    206c:	01 c4 01 01 	cbn  102470 <_trap_table-0x3fefdb90>
    2070:	00 00 00 01 	unimp  0x1
    2074:	5c 00 02 00 	call  70002874 <__end+0x2fff5d1c>
    2078:	00 0f 12 04 	unimp  0xf1204
    207c:	01 00 00 00 	nop 
    2080:	eb 01 00 00 	ld  [ %g4 ], %f21
    2084:	02 7b 00 00 	unknown
    2088:	01 6d 40 00 	unknown
    208c:	92 0c 40 00 	and  %l1, %g0, %o1
    2090:	92 0c 00 00 	and  %l0, %g0, %o1
    2094:	0b a4 02 04 	fbug  ff9028a4 <__end+0xbf8f5d4c>
    2098:	05 69 6e 74 	unknown
    209c:	00 03 01 06 	unimp  0x30106
    20a0:	00 00 00 e6 	unimp  0xe6
    20a4:	03 04 04 00 	sethi  %hi(0x10100000), %g1
    20a8:	00 03 aa 03 	unimp  0x3aa03
    20ac:	08 04 00 00 	unknown
    20b0:	03 f7 03 02 	cb123  ffdc2cb8 <__end+0xbfdb6160>
    20b4:	05 00 00 00 	sethi  %hi(0), %g2
    20b8:	bc 03 08 05 	unknown
    20bc:	00 00 00 f7 	unimp  0xf7
    20c0:	03 02 07 00 	sethi  %hi(0x81c0000), %g1
    20c4:	00 00 67 04 	unimp  0x6704
    20c8:	00 00 01 57 	unimp  0x157
    20cc:	01 70 00 00 	unknown
    20d0:	00 61 03 04 	unknown
    20d4:	07 00 00 00 	sethi  %hi(0), %g3
    20d8:	d0 04 00 00 	ld  [ %l0 ], %o0
    20dc:	02 11 01 71 	unknown
    20e0:	00 00 00 73 	unimp  0x73
    20e4:	03 08 07 00 	sethi  %hi(0x201c0000), %g1
    20e8:	00 00 c6 04 	unimp  0xc604
    20ec:	00 00 02 b3 	unimp  0x2b3
    20f0:	01 d6 00 00 	cbn  5820f0 <_trap_table-0x3fa7df10>
    20f4:	00 68 04 00 	unknown
    20f8:	00 02 af 01 	unimp  0x2af01
    20fc:	d7 00 00 00 	ld  [ %g0 ], %f11
    2100:	56 05 04 01 	call  58143104 <__end+0x181365ac>
    2104:	01 57 00 00 	unknown
    2108:	00 b8 06 00 	bn  ffe03908 <__end+0xbfdf6db0>
    210c:	00 02 2a 00 	unimp  0x22a00
    2110:	06 00 00 01 	unknown
    2114:	bb 01 06 00 	unknown
    2118:	00 01 0b 02 	unimp  0x10b02
    211c:	06 00 00 02 	unknown
    2120:	a2 03 06 00 	unknown
    2124:	00 02 64 04 	unimp  0x26404
    2128:	00 07 00 00 	unimp  0x70000
    212c:	01 5f 01 01 	unknown
    2130:	5d 00 00 00 	call  74002130 <__end+0x33ff55d8>
    2134:	90 08 08 01 	unknown
    2138:	01 6c 00 00 	unknown
    213c:	00 e3 09 6c 	unknown
    2140:	6c 00 01 01 	call  b0002544 <__end+0x6fff59ec>
    2144:	6d 00 00 00 	call  b4002144 <__end+0x73ff55ec>
    2148:	7a 09 6c 00 	call  e825d148 <__end+0xa82505f0>
    214c:	01 01 6e 00 	sethi  %hi(0x5b80000), %g0
    2150:	00 00 e3 00 	unimp  0xe300
    2154:	0a 00 00 00 	unknown
    2158:	85 00 00 00 	taddcc  %g0, %g0, %g2
    215c:	f3 0b 00 00 	unknown
    2160:	00 f3 01 00 	unknown
    2164:	0c 04 07 0d 	unknown
    2168:	18 01 01 60 	unknown
    216c:	00 00 01 3c 	unimp  0x13c
    2170:	0e 00 00 01 	unknown
    2174:	3e 01 01 66 	unknown
    2178:	00 00 00 b8 	unimp  0xb8
    217c:	02 23 00 0e 	unknown
    2180:	00 00 02 93 	unimp  0x293
    2184:	01 01 67 00 	sethi  %hi(0x59c0000), %g0
    2188:	00 00 61 02 	unimp  0x6102
    218c:	23 04 0e 00 	sethi  %hi(0x10380000), %l1
    2190:	00 01 18 01 	unimp  0x11801
    2194:	01 68 00 00 	unknown
    2198:	00 25 02 23 	unimp  0xffe50223
    219c:	08 0e 00 00 	unknown
    21a0:	02 5b 01 01 	unknown
    21a4:	6f 00 00 00 	call  bc0021a4 <__end+0x7bff564c>
    21a8:	c4 02 23 10 	ld  [ %o0 + 0x310 ], %g2
    21ac:	00 07 00 00 	unimp  0x70000
    21b0:	02 3f 01 01 	unknown
    21b4:	70 00 00 00 	call  c00021b4 <__end+0x7fff565c>
    21b8:	f6 0f 00 00 	ldub  [ %i4 ], %i3
    21bc:	01 44 02 7d 	unknown
    21c0:	00 00 01 5a 	unimp  0x15a
    21c4:	01 05 03 40 	sethi  %hi(0x140d0000), %g0
    21c8:	00 b9 b8 10 	bn  ffe70208 <__end+0xbfe636b0>
    21cc:	00 00 01 3c 	unimp  0x13c
    21d0:	00 00 00 02 	unimp  0x2
    21d4:	07 00 02 00 	sethi  %hi(0x80000), %g3
    21d8:	00 0f d5 04 	unimp  0xfd504
    21dc:	01 00 00 00 	nop 
    21e0:	eb 01 00 00 	ld  [ %g4 ], %f21
    21e4:	02 7b 00 00 	unknown
    21e8:	01 6d 40 00 	unknown
    21ec:	92 0c 40 00 	and  %l1, %g0, %o1
    21f0:	93 48 00 00 	rd  %psr, %o1
    21f4:	0c 13 02 04 	unknown
    21f8:	05 69 6e 74 	unknown
    21fc:	00 03 01 06 	unimp  0x30106
    2200:	00 00 00 e6 	unimp  0xe6
    2204:	03 04 04 00 	sethi  %hi(0x10100000), %g1
    2208:	00 03 aa 04 	unimp  0x3aa04
    220c:	00 00 01 50 	unimp  0x150
    2210:	02 5d 00 00 	unknown
    2214:	00 45 03 08 	unknown
    2218:	04 00 00 03 	unknown
    221c:	f7 03 02 05 	ld  [ %o4 + %g5 ], %f27
    2220:	00 00 00 bc 	unimp  0xbc
    2224:	03 08 05 00 	sethi  %hi(0x20140000), %g1
    2228:	00 00 f7 03 	unimp  0xf703
    222c:	02 07 00 00 	unknown
    2230:	00 67 04 00 	unknown
    2234:	00 01 57 02 	unimp  0x15702
    2238:	70 00 00 00 	call  c0002238 <__end+0x7fff56e0>
    223c:	6c 03 04 07 	call  b00c3258 <__end+0x700b6700>
    2240:	00 00 00 d0 	unimp  0xd0
    2244:	04 00 00 02 	unknown
    2248:	11 02 71 00 	sethi  %hi(0x9c40000), %o0
    224c:	00 00 7e 03 	unimp  0x7e03
    2250:	08 07 00 00 	unknown
    2254:	00 c6 04 00 	unknown
    2258:	00 02 b3 02 	unimp  0x2b302
    225c:	d6 00 00 00 	ld  [ %g0 ], %o3
    2260:	73 04 00 00 	call  cc102260 <__end+0x8c0f5708>
    2264:	02 af 02 d7 	be  ffbc2dc0 <__end+0xbfbb6268>
    2268:	00 00 00 61 	unimp  0x61
    226c:	04 00 00 02 	unknown
    2270:	21 02 d8 00 	sethi  %hi(0xb600000), %l0
    2274:	00 00 3a 05 	unimp  0x3a05
    2278:	04 02 01 57 	unknown
    227c:	00 00 00 ce 	unimp  0xce
    2280:	06 00 00 02 	unknown
    2284:	2a 00 06 00 	unknown
    2288:	00 01 bb 01 	unimp  0x1bb01
    228c:	06 00 00 01 	unknown
    2290:	0b 02 06 00 	sethi  %hi(0x8180000), %g5
    2294:	00 02 a2 03 	unimp  0x2a203
    2298:	06 00 00 02 	unknown
    229c:	64 04 00 07 	call  901022b8 <__end+0x500f5760>
    22a0:	00 00 01 5f 	unimp  0x15f
    22a4:	02 01 5d 00 	unknown
    22a8:	00 00 a6 08 	unimp  0xa608
    22ac:	08 02 01 6c 	unknown
    22b0:	00 00 00 f9 	unimp  0xf9
    22b4:	09 6c 6c 00 	unknown
    22b8:	02 01 6d 00 	unknown
    22bc:	00 00 85 09 	unimp  0x8509
    22c0:	6c 00 02 01 	call  b0002ac4 <__end+0x6fff5f6c>
    22c4:	6e 00 00 00 	call  b80022c4 <__end+0x77ff576c>
    22c8:	f9 00 0a 00 	ld  [ %g0 ], %f28
    22cc:	00 00 90 00 	unimp  0x9000
    22d0:	00 01 09 0b 	unimp  0x1090b
    22d4:	00 00 01 09 	unimp  0x109
    22d8:	01 00 0c 04 	sethi  %hi(0x301000), %g0
    22dc:	07 0d 18 02 	sethi  %hi(0x34600800), %g3
    22e0:	01 60 00 00 	unknown
    22e4:	01 52 0e 00 	unknown
    22e8:	00 01 3e 02 	unimp  0x13e02
    22ec:	01 66 00 00 	unknown
    22f0:	00 ce 02 23 	unknown
    22f4:	00 0e 00 00 	unimp  0xe0000
    22f8:	02 93 02 01 	be  4c2afc <_trap_table-0x3fb3d504>
    22fc:	67 00 00 00 	call  9c0022fc <__end+0x5bff57a4>
    2300:	6c 02 23 04 	call  b008af10 <__end+0x7007e3b8>
    2304:	0e 00 00 01 	unknown
    2308:	18 02 01 68 	unknown
    230c:	00 00 00 25 	unimp  0x25
    2310:	02 23 08 0e 	unknown
    2314:	00 00 02 5b 	unimp  0x25b
    2318:	02 01 6f 00 	unknown
    231c:	00 00 da 02 	unimp  0xda02
    2320:	23 10 00 07 	sethi  %hi(0x40001c00), %l1
    2324:	00 00 02 3f 	unimp  0x23f
    2328:	02 01 70 00 	unknown
    232c:	00 01 0c 0f 	unimp  0x10c0f
    2330:	00 00 03 6c 	unimp  0x36c
    2334:	01 b7 01 00 	fbn  ffdc2734 <__end+0xbfdb5bdc>
    2338:	00 00 25 03 	unimp  0x2503
    233c:	00 00 01 79 	unimp  0x179
    2340:	10 6e 00 01 	unknown
    2344:	b7 00 00 00 	taddcc  %g0, %g0, %i3
    2348:	61 00 11 01 	call  8400674c <__end+0x43ff9bf4>
    234c:	00 00 03 94 	unimp  0x394
    2350:	01 05 5f 01 	sethi  %hi(0x157c0400), %g0
    2354:	00 00 00 9b 	unimp  0x9b
    2358:	40 00 92 0c 	call  26b88 <_trap_table-0x3ffd9478>
    235c:	40 00 93 48 	call  2707c <_trap_table-0x3ffd8f84>
    2360:	00 00 0b 8c 	unimp  0xb8c
    2364:	00 00 01 f8 	unimp  0x1f8
    2368:	12 00 00 01 	unknown
    236c:	c6 01 05 5f 	ld  [ %g4 + %i7 ], %g3
    2370:	00 00 00 61 	unimp  0x61
    2374:	00 00 0b aa 	unimp  0xbaa
    2378:	13 69 6e 00 	unknown
    237c:	01 05 61 00 	sethi  %hi(0x15840000), %g0
    2380:	00 01 52 02 	unimp  0x15202
    2384:	91 68 14 00 	unknown
    2388:	00 01 38 15 	unimp  0x13815
    238c:	00 00 03 66 	unimp  0x366
    2390:	01 05 6a 00 	sethi  %hi(0x15a80000), %g0
    2394:	00 00 25 00 	unimp  0x2500
    2398:	00 0b c8 16 	unimp  0xbc816
    239c:	00 00 01 58 	unimp  0x158
    23a0:	00 00 01 e0 	unimp  0x1e0
    23a4:	17 00 00 03 	sethi  %hi(0xc00), %o3
    23a8:	8e 01 05 72 	unknown
    23ac:	00 00 00 85 	unimp  0x85
    23b0:	00 18 00 00 	unimp  0x180000
    23b4:	01 5e 40 00 	unknown
    23b8:	92 1c 00 00 	xor  %l0, %g0, %o1
    23bc:	01 70 01 05 	unknown
    23c0:	6f 19 00 00 	call  bc6423c0 <__end+0x7c635868>
    23c4:	01 6f 00 00 	unknown
    23c8:	00 1a 00 00 	unimp  0x1a0000
    23cc:	01 44 01 85 	unknown
    23d0:	00 00 02 05 	unimp  0x205
    23d4:	01 01 1b 00 	sethi  %hi(0x46c0000), %g0
    23d8:	00 01 52 00 	unimp  0x15200
    23dc:	00 00 01 7b 	unimp  0x17b
    23e0:	00 02 00 00 	unimp  0x20000
    23e4:	11 31 04 01 	sethi  %hi(0xc4100400), %o0
    23e8:	00 00 00 eb 	unimp  0xeb
    23ec:	01 00 00 03 	sethi  %hi(0xc00), %g0
    23f0:	b0 00 00 01 	add  %g0, %g1, %i0
    23f4:	6d 40 00 93 	call  b5002640 <__end+0x74ff5ae8>
    23f8:	48 40 00 94 	call  21002648 <_trap_table-0x1effd9b8>
    23fc:	14 00 00 0c 	unknown
    2400:	c0 02 04 05 	ld  [ %o0 + %g5 ], %g0
    2404:	69 6e 74 00 	call  a5b9f404 <__end+0x65b928ac>
    2408:	03 04 07 00 	sethi  %hi(0x101c0000), %g1
    240c:	00 00 d0 03 	unimp  0xd003
    2410:	04 05 00 00 	unknown
    2414:	00 fc 03 01 	unknown
    2418:	06 00 00 00 	unknown
    241c:	e6 04 04 07 	ld  [ %l0 + %g7 ], %l3
    2420:	03 08 05 00 	sethi  %hi(0x20140000), %g1
    2424:	00 00 f7 03 	unimp  0xf703
    2428:	01 08 00 00 	sethi  %hi(0x20000000), %g0
    242c:	00 dd 03 04 	unknown
    2430:	07 00 00 00 	sethi  %hi(0), %g3
    2434:	cb 03 02 05 	ld  [ %o4 + %g5 ], %f5
    2438:	00 00 00 bc 	unimp  0xbc
    243c:	03 02 07 00 	sethi  %hi(0x81c0000), %g1
    2440:	00 00 67 03 	unimp  0x6703
    2444:	08 07 00 00 	unknown
    2448:	00 c6 03 01 	unknown
    244c:	06 00 00 00 	unknown
    2450:	df 05 00 00 	ld  [ %l4 ], %f15
    2454:	01 58 02 8d 	unknown
    2458:	00 00 00 25 	unimp  0x25
    245c:	05 00 00 02 	sethi  %hi(0x800), %g2
    2460:	12 02 91 00 	unknown
    2464:	00 00 44 03 	unimp  0x4403
    2468:	04 04 00 00 	unknown
    246c:	03 aa 03 08 	fbne  ffa8308c <__end+0xbfa76534>
    2470:	03 00 00 03 	sethi  %hi(0xc00), %g1
    2474:	a2 03 08 04 	unknown
    2478:	00 00 03 f7 	unimp  0x3f7
    247c:	03 10 03 00 	sethi  %hi(0x400c0000), %g1
    2480:	00 03 ef 06 	unimp  0x3ef06
    2484:	00 00 03 fe 	unimp  0x3fe
    2488:	08 02 01 a0 	unknown
    248c:	00 00 00 d3 	unimp  0xd3
    2490:	07 00 00 02 	sethi  %hi(0x800), %g3
    2494:	bc 02 01 a0 	unknown
    2498:	00 00 00 75 	unimp  0x75
    249c:	02 23 00 08 	unknown
    24a0:	6c 6f 77 00 	call  b1be00a0 <__end+0x71bd3548>
    24a4:	02 01 a0 00 	unknown
    24a8:	00 00 75 02 	unimp  0x7502
    24ac:	23 04 00 09 	sethi  %hi(0x10002400), %l1
    24b0:	08 02 01 aa 	unknown
    24b4:	00 00 00 f2 	unimp  0xf2
    24b8:	0a 73 00 02 	unknown
    24bc:	01 ab 00 00 	fbn  ffac24bc <__end+0xbfab5964>
    24c0:	00 a7 0a 6c 	bn  ff9c4e70 <__end+0xbf9b8318>
    24c4:	6c 00 02 01 	call  b0002cc8 <__end+0x6fff6170>
    24c8:	ac 00 00 00 	add  %g0, %g0, %l6
    24cc:	80 00 0b 00 	unknown
    24d0:	00 03 e7 02 	unimp  0x3e702
    24d4:	01 ad 00 00 	fbn  ffb424d4 <__end+0xbfb3597c>
    24d8:	00 d3 0c 01 	unknown
    24dc:	00 00 03 de 	unimp  0x3de
    24e0:	01 02 28 01 	sethi  %hi(0x8a00400), %g0
    24e4:	00 00 00 80 	unimp  0x80
    24e8:	40 00 93 48 	call  27208 <_trap_table-0x3ffd8df8>
    24ec:	40 00 94 14 	call  2753c <_trap_table-0x3ffd8ac4>
    24f0:	00 00 0b fc 	unimp  0xbfc
    24f4:	00 00 01 79 	unimp  0x179
    24f8:	0d 75 00 01 	unknown
    24fc:	02 28 00 00 	unknown
    2500:	00 80 00 00 	bn  2500 <_trap_table-0x3fffdb00>
    2504:	0c 1a 0e 76 	unknown
    2508:	00 01 02 28 	unimp  0x10228
    250c:	00 00 00 80 	unimp  0x80
    2510:	06 6a 93 04 	unknown
    2514:	6b 93 04 0f 	call  ae4c3550 <__end+0x6e4b69f8>
    2518:	75 75 00 01 	call  d5d4251c <__end+0x95d359c4>
    251c:	02 2a 00 00 	unknown
    2520:	01 79 0f 76 	unknown
    2524:	76 00 01 02 	call  d800292c <__end+0x97ff5dd4>
    2528:	2b 00 00 01 	sethi  %hi(0x400), %l5
    252c:	79 10 77 00 	call  e442012c <__end+0xa44135d4>
    2530:	01 02 2c 00 	sethi  %hi(0x8b00000), %g0
    2534:	00 00 f2 06 	unimp  0xf206
    2538:	60 93 04 69 	call  824c36dc <__end+0x424b6b84>
    253c:	93 04 11 40 	unknown
    2540:	00 93 4c 40 	bn  4d5640 <_trap_table-0x3fb2a9c0>
    2544:	00 93 e8 0f 	bn  4fc580 <_trap_table-0x3fb03a80>
    2548:	5f 5f 77 00 	call  7d7e0148 <__end+0x3d7d35f0>
    254c:	01 02 2c 00 	sethi  %hi(0x8b00000), %g0
    2550:	00 00 f2 00 	unimp  0xf200
    2554:	00 12 00 00 	unimp  0x120000
    2558:	00 f2 00 00 	unknown
    255c:	00 01 5a 00 	unimp  0x15a00
    2560:	02 00 00 12 	unknown
    2564:	28 04 01 00 	unknown
    2568:	00 00 eb 01 	unimp  0xeb01
    256c:	00 00 03 b0 	unimp  0x3b0
    2570:	00 00 01 6d 	unimp  0x16d
    2574:	40 00 94 14 	call  275c4 <_trap_table-0x3ffd8a3c>
    2578:	40 00 94 50 	call  276b8 <_trap_table-0x3ffd8948>
    257c:	00 00 0d 31 	unimp  0xd31
    2580:	02 04 05 69 	unknown
    2584:	6e 74 00 03 	call  b9d02590 <__end+0x79cf5a38>
    2588:	04 07 00 00 	unknown
    258c:	00 d0 03 04 	unknown
    2590:	05 00 00 00 	sethi  %hi(0), %g2
    2594:	fc 03 01 06 	ld  [ %o4 + %g6 ], %fp
    2598:	00 00 00 e6 	unimp  0xe6
    259c:	04 04 07 03 	unknown
    25a0:	08 05 00 00 	unknown
    25a4:	00 f7 03 01 	unknown
    25a8:	08 00 00 00 	unknown
    25ac:	dd 03 04 07 	ld  [ %o4 + %g7 ], %f14
    25b0:	00 00 00 cb 	unimp  0xcb
    25b4:	03 02 05 00 	sethi  %hi(0x8140000), %g1
    25b8:	00 00 bc 03 	unimp  0xbc03
    25bc:	02 07 00 00 	unknown
    25c0:	00 67 03 08 	unknown
    25c4:	07 00 00 00 	sethi  %hi(0), %g3
    25c8:	c6 03 01 06 	ld  [ %o4 + %g6 ], %g3
    25cc:	00 00 00 df 	unimp  0xdf
    25d0:	05 00 00 01 	sethi  %hi(0x400), %g2
    25d4:	58 02 8d 00 	call  600a59d4 <__end+0x20098e7c>
    25d8:	00 00 25 05 	unimp  0x2505
    25dc:	00 00 02 12 	unimp  0x212
    25e0:	02 91 00 00 	be  4425e0 <_trap_table-0x3fbbda20>
    25e4:	00 44 03 04 	unknown
    25e8:	04 00 00 03 	unknown
    25ec:	aa 03 08 03 	unknown
    25f0:	00 00 03 a2 	unimp  0x3a2
    25f4:	03 08 04 00 	sethi  %hi(0x20100000), %g1
    25f8:	00 03 f7 03 	unimp  0x3f703
    25fc:	10 03 00 00 	unknown
    2600:	03 ef 05 00 	cb123  ffbc3a00 <__end+0xbfbb6ea8>
    2604:	00 04 11 02 	unimp  0x41102
    2608:	ac 00 00 00 	add  %g0, %g0, %l6
    260c:	25 06 00 00 	sethi  %hi(0x18000000), %l2
    2610:	03 fe 08 02 	cb123  fff84618 <__end+0xbff77ac0>
    2614:	01 a0 00 00 	fbn  ff802614 <__end+0xbf7f5abc>
    2618:	00 de 07 00 	unknown
    261c:	00 02 bc 02 	unimp  0x2bc02
    2620:	01 a0 00 00 	fbn  ff802620 <__end+0xbf7f5ac8>
    2624:	00 75 02 23 	unknown
    2628:	00 08 6c 6f 	unimp  0x86c6f
    262c:	77 00 02 01 	call  dc002e30 <__end+0x9bff62d8>
    2630:	a0 00 00 00 	add  %g0, %g0, %l0
    2634:	75 02 23 04 	call  d408b244 <__end+0x9407e6ec>
    2638:	00 09 08 02 	unimp  0x90802
    263c:	01 aa 00 00 	fbn  ffa8263c <__end+0xbfa75ae4>
    2640:	00 fd 0a 73 	unknown
    2644:	00 02 01 ab 	unimp  0x201ab
    2648:	00 00 00 b2 	unimp  0xb2
    264c:	0a 6c 6c 00 	unknown
    2650:	02 01 ac 00 	unknown
    2654:	00 00 80 00 	unimp  0x8000
    2658:	0b 00 00 03 	sethi  %hi(0xc00), %g5
    265c:	e7 02 01 ad 	ld  [ %o0 + %o5 ], %f19
    2660:	00 00 00 de 	unimp  0xde
    2664:	0c 01 00 00 	unknown
    2668:	04 07 01 04 	unknown
    266c:	8d 01 00 00 	taddcc  %g4, %g0, %g6
    2670:	00 a7 40 00 	bn  ff9d2670 <__end+0xbf9c5b18>
    2674:	94 14 40 00 	mov  %l1, %o2
    2678:	94 50 01 5e 	unknown
    267c:	00 00 01 58 	unimp  0x158
    2680:	0d 61 00 01 	unknown
    2684:	04 8d 00 00 	ble  342684 <_trap_table-0x3fcbd97c>
    2688:	00 80 00 00 	bn  2688 <_trap_table-0x3fffd978>
    268c:	0c 32 0d 62 	unknown
    2690:	00 01 04 8d 	unimp  0x1048d
    2694:	00 00 00 80 	unimp  0x80
    2698:	00 00 0c 4a 	unimp  0xc4a
    269c:	0e 61 75 00 	unknown
    26a0:	01 04 8f 00 	sethi  %hi(0x123c0000), %g0
    26a4:	00 01 58 0e 	unimp  0x1580e
    26a8:	62 75 00 01 	call  89d426ac <__end+0x49d35b54>
    26ac:	04 90 00 00 	ble  4026ac <_trap_table-0x3fbfd954>
    26b0:	01 58 00 0f 	unknown
    26b4:	00 00 00 fd 	unimp  0xfd
    26b8:	00 00 00 01 	unimp  0x1
    26bc:	26 00 02 00 	unknown
    26c0:	00 12 f8 04 	unimp  0x12f804
    26c4:	01 00 00 00 	nop 
    26c8:	eb 01 00 00 	ld  [ %g4 ], %f21
    26cc:	03 b0 00 00 	fbne  ffc026cc <__end+0xbfbf5b74>
    26d0:	01 6d 40 00 	unknown
    26d4:	94 50 40 00 	umul  %g1, %g0, %o2
    26d8:	94 c8 00 00 	unknown
    26dc:	0d a2 02 04 	fbg  ff882eec <__end+0xbf876394>
    26e0:	05 69 6e 74 	unknown
    26e4:	00 03 04 07 	unimp  0x30407
    26e8:	00 00 00 d0 	unimp  0xd0
    26ec:	03 04 05 00 	sethi  %hi(0x10140000), %g1
    26f0:	00 00 fc 03 	unimp  0xfc03
    26f4:	01 06 00 00 	sethi  %hi(0x18000000), %g0
    26f8:	00 e6 04 04 	unknown
    26fc:	07 03 08 05 	sethi  %hi(0xc201400), %g3
    2700:	00 00 00 f7 	unimp  0xf7
    2704:	03 01 08 00 	sethi  %hi(0x4200000), %g1
    2708:	00 00 dd 03 	unimp  0xdd03
    270c:	04 07 00 00 	unknown
    2710:	00 cb 03 02 	unknown
    2714:	05 00 00 00 	sethi  %hi(0), %g2
    2718:	bc 03 02 07 	unknown
    271c:	00 00 00 67 	unimp  0x67
    2720:	03 08 07 00 	sethi  %hi(0x201c0000), %g1
    2724:	00 00 c6 03 	unimp  0xc603
    2728:	01 06 00 00 	sethi  %hi(0x18000000), %g0
    272c:	00 df 05 00 	unknown
    2730:	00 04 39 02 	unimp  0x43902
    2734:	88 00 00 00 	add  %g0, %g0, %g4
    2738:	4b 05 00 00 	call  2c142738 <_trap_table-0x13ebd8c8>
    273c:	01 58 02 8d 	unknown
    2740:	00 00 00 25 	unimp  0x25
    2744:	05 00 00 01 	sethi  %hi(0x400), %g2
    2748:	57 02 8e 00 	call  5c0a5f48 <__end+0x1c0993f0>
    274c:	00 00 2c 03 	unimp  0x2c03
    2750:	04 04 00 00 	unknown
    2754:	03 aa 03 08 	fbne  ffa83374 <__end+0xbfa7681c>
    2758:	03 00 00 03 	sethi  %hi(0xc00), %g1
    275c:	a2 03 08 04 	unknown
    2760:	00 00 03 f7 	unimp  0x3f7
    2764:	03 10 03 00 	sethi  %hi(0x400c0000), %g1
    2768:	00 03 ef 06 	unimp  0x3ef06
    276c:	01 00 00 04 	sethi  %hi(0x1000), %g0
    2770:	21 01 02 c5 	sethi  %hi(0x40b1400), %l0
    2774:	01 00 00 00 	nop 
    2778:	25 40 00 94 	unknown
    277c:	50 40 00 94 	call  410029cc <__end+0xff5e74>
    2780:	c8 01 5e 00 	ld  [ %g5 ], %g4
    2784:	00 01 07 07 	unimp  0x10707
    2788:	78 00 01 02 	call  e0002b90 <__end+0x9fff6038>
    278c:	c5 00 00 00 	ld  [ %g0 ], %f2
    2790:	8b 00 00 0c 	taddcc  %g0, %o4, %g5
    2794:	62 08 72 65 	call  8821f128 <__end+0x482125d0>
    2798:	74 00 01 02 	call  d0002ba0 <__end+0x8fff6048>
    279c:	c7 00 00 00 	ld  [ %g0 ], %f3
    27a0:	80 09 00 00 	and  %g4, %g0, %g0
    27a4:	01 88 0a 00 	fbn  204fa4 <_trap_table-0x3fdfb05c>
    27a8:	00 04 2a 01 	unimp  0x42a01
    27ac:	02 c9 00 00 	unknown
    27b0:	00 8b 08 5f 	bn  2c492c <_trap_table-0x3fd3b6d4>
    27b4:	5f 61 00 01 	call  7d8427b8 <__end+0x3d835c60>
    27b8:	02 c9 00 00 	unknown
    27bc:	00 8b 00 00 	bn  2c27bc <_trap_table-0x3fd3d844>
    27c0:	0b 00 00 00 	sethi  %hi(0), %g5
    27c4:	75 00 00 01 	call  d40027c8 <__end+0x93ff5c70>
    27c8:	17 0c 00 00 	sethi  %hi(0x30000000), %o3
    27cc:	00 41 ff 00 	unknown
    27d0:	0d 00 00 04 	sethi  %hi(0x1000), %g6
    27d4:	2f 03 3f 00 	sethi  %hi(0xcfc0000), %l7
    27d8:	00 01 24 01 	unimp  0x12401
    27dc:	01 0e 00 00 	sethi  %hi(0x38000000), %g0
    27e0:	01 07 00 00 	sethi  %hi(0x1c000000), %g0
    27e4:	00 02 a8 00 	unimp  0x2a800
    27e8:	02 00 00 13 	unknown
    27ec:	ab 04 01 00 	unknown
    27f0:	00 00 eb 01 	unimp  0xeb01
    27f4:	00 00 02 7b 	unimp  0x27b
    27f8:	00 00 01 6d 	unimp  0x16d
    27fc:	40 00 94 c8 	call  27b1c <_trap_table-0x3ffd84e4>
    2800:	40 00 97 70 	call  285c0 <_trap_table-0x3ffd7a40>
    2804:	00 00 0e 1f 	unimp  0xe1f
    2808:	02 04 05 69 	unknown
    280c:	6e 74 00 03 	call  b9d02818 <__end+0x79cf5cc0>
    2810:	01 06 00 00 	sethi  %hi(0x18000000), %g0
    2814:	00 e6 03 04 	unknown
    2818:	04 00 00 03 	unknown
    281c:	aa 04 00 00 	add  %l0, %g0, %l5
    2820:	01 50 02 5d 	unknown
    2824:	00 00 00 45 	unimp  0x45
    2828:	03 08 04 00 	sethi  %hi(0x20100000), %g1
    282c:	00 03 f7 03 	unimp  0x3f703
    2830:	02 05 00 00 	unknown
    2834:	00 bc 03 08 	bn  fff03454 <__end+0xbfef68fc>
    2838:	05 00 00 00 	sethi  %hi(0), %g2
    283c:	f7 03 02 07 	ld  [ %o4 + %g7 ], %f27
    2840:	00 00 00 67 	unimp  0x67
    2844:	04 00 00 01 	unknown
    2848:	57 02 70 00 	call  5c09e848 <__end+0x1c091cf0>
    284c:	00 00 6c 03 	unimp  0x6c03
    2850:	04 07 00 00 	unknown
    2854:	00 d0 04 00 	unknown
    2858:	00 02 11 02 	unimp  0x21102
    285c:	71 00 00 00 	call  c400285c <__end+0x83ff5d04>
    2860:	7e 03 08 07 	call  f80c487c <__end+0xb80b7d24>
    2864:	00 00 00 c6 	unimp  0xc6
    2868:	04 00 00 02 	unknown
    286c:	b3 02 d6 00 	unknown
    2870:	00 00 73 04 	unimp  0x7304
    2874:	00 00 02 af 	unimp  0x2af
    2878:	02 d7 00 00 	unknown
    287c:	00 61 04 00 	unknown
    2880:	00 02 21 02 	unimp  0x22102
    2884:	d8 00 00 00 	ld  [ %g0 ], %o4
    2888:	3a 05 04 02 	unknown
    288c:	01 57 00 00 	unknown
    2890:	00 ce 06 00 	unknown
    2894:	00 02 2a 00 	unimp  0x22a00
    2898:	06 00 00 01 	unknown
    289c:	bb 01 06 00 	unknown
    28a0:	00 01 0b 02 	unimp  0x10b02
    28a4:	06 00 00 02 	unknown
    28a8:	a2 03 06 00 	unknown
    28ac:	00 02 64 04 	unimp  0x26404
    28b0:	00 07 00 00 	unimp  0x70000
    28b4:	01 5f 02 01 	unknown
    28b8:	5d 00 00 00 	call  740028b8 <__end+0x33ff5d60>
    28bc:	a6 08 08 02 	unknown
    28c0:	01 6c 00 00 	unknown
    28c4:	00 f9 09 6c 	unknown
    28c8:	6c 00 02 01 	call  b00030cc <__end+0x6fff6574>
    28cc:	6d 00 00 00 	call  b40028cc <__end+0x73ff5d74>
    28d0:	85 09 6c 00 	tsubcc  %g5, 0xc00, %g2
    28d4:	02 01 6e 00 	unknown
    28d8:	00 00 f9 00 	unimp  0xf900
    28dc:	0a 00 00 00 	unknown
    28e0:	90 00 00 01 	add  %g0, %g1, %o0
    28e4:	09 0b 00 00 	sethi  %hi(0x2c000000), %g4
    28e8:	01 09 01 00 	sethi  %hi(0x24040000), %g0
    28ec:	0c 04 07 0d 	unknown
    28f0:	18 02 01 60 	unknown
    28f4:	00 00 01 52 	unimp  0x152
    28f8:	0e 00 00 01 	unknown
    28fc:	3e 02 01 66 	unknown
    2900:	00 00 00 ce 	unimp  0xce
    2904:	02 23 00 0e 	unknown
    2908:	00 00 02 93 	unimp  0x293
    290c:	02 01 67 00 	unknown
    2910:	00 00 6c 02 	unimp  0x6c02
    2914:	23 04 0e 00 	sethi  %hi(0x10380000), %l1
    2918:	00 01 18 02 	unimp  0x11802
    291c:	01 68 00 00 	unknown
    2920:	00 25 02 23 	unimp  0xffe50223
    2924:	08 0e 00 00 	unknown
    2928:	02 5b 02 01 	unknown
    292c:	6f 00 00 00 	call  bc00292c <__end+0x7bff5dd4>
    2930:	da 02 23 10 	ld  [ %o0 + 0x310 ], %o5
    2934:	00 07 00 00 	unimp  0x70000
    2938:	02 3f 02 01 	unknown
    293c:	70 00 00 01 	call  c0002940 <__end+0x7fff5de8>
    2940:	0c 08 08 02 	unknown
    2944:	01 73 00 00 	unknown
    2948:	01 8c 0f 00 	fbn  306548 <_trap_table-0x3fcf9ab8>
    294c:	00 01 29 02 	unimp  0x12902
    2950:	01 74 00 00 	unknown
    2954:	00 9b 0f 00 	bn  6c6554 <_trap_table-0x3f939aac>
    2958:	00 02 98 02 	unimp  0x29802
    295c:	01 75 00 00 	unknown
    2960:	00 85 0f 00 	bn  146560 <_trap_table-0x3feb9aa0>
    2964:	00 02 0b 02 	unimp  0x20b02
    2968:	01 7b 00 00 	unknown
    296c:	00 f9 00 07 	unknown
    2970:	00 00 01 e6 	unimp  0x1e6
    2974:	02 01 9b 00 	unknown
    2978:	00 01 5e 10 	unimp  0x15e10
    297c:	00 00 01 23 	unimp  0x123
    2980:	01 97 01 00 	fbn  5c2d80 <_trap_table-0x3fa3d280>
    2984:	00 00 25 03 	unimp  0x2503
    2988:	00 00 01 b3 	unimp  0x1b3
    298c:	11 78 00 01 	unknown
    2990:	97 00 00 01 	taddcc  %g0, %g1, %o3
    2994:	b3 00 12 04 	unknown
    2998:	00 00 01 b9 	unimp  0x1b9
    299c:	13 00 00 01 	sethi  %hi(0x400), %o1
    29a0:	52 10 00 00 	call  484029a0 <__end+0x83f5e48>
    29a4:	01 38 01 9f 	sethi  %hi(0xe0067c00), %g0
    29a8:	01 00 00 00 	nop 
    29ac:	25 03 00 00 	sethi  %hi(0xc000000), %l2
    29b0:	01 d9 11 78 	cbn  646f90 <_trap_table-0x3f9b9070>
    29b4:	00 01 9f 00 	unimp  0x19f00
    29b8:	00 01 b3 00 	unimp  0x1b300
    29bc:	10 00 00 01 	unknown
    29c0:	df 01 a8 01 	ld  [ %g6 + 0x801 ], %f15
    29c4:	00 00 00 25 	unimp  0x25
    29c8:	03 00 00 01 	sethi  %hi(0x400), %g1
    29cc:	f4 11 78 00 	lduh  [ %g5 + -2048 ], %i2
    29d0:	01 a8 00 00 	fbn  ffa029d0 <__end+0xbf9f5e78>
    29d4:	01 b3 00 14 	fbn  ffcc2a24 <__end+0xbfcb5ecc>
    29d8:	01 00 00 04 	sethi  %hi(0x1000), %g0
    29dc:	41 01 c8 01 	call  40749e0 <_trap_table-0x3bf8b620>
    29e0:	00 00 00 9b 	unimp  0x9b
    29e4:	40 00 94 c8 	call  27d04 <_trap_table-0x3ffd82fc>
    29e8:	40 00 97 70 	call  287a8 <_trap_table-0x3ffd7858>
    29ec:	00 00 0c 80 	unimp  0xc80
    29f0:	00 00 02 9e 	unimp  0x29e
    29f4:	15 73 72 63 	unknown
    29f8:	00 01 c8 00 	unimp  0x1c800
    29fc:	00 01 b3 00 	unimp  0x1b300
    2a00:	00 0c 9e 16 	unimp  0xc9e16
    2a04:	64 73 74 00 	call  91cdfa04 <__end+0x51cd2eac>
    2a08:	01 ca 00 00 	cbn  282a08 <_trap_table-0x3fd7d5f8>
    2a0c:	01 8c 17 00 	fbn  30860c <_trap_table-0x3fcf79f4>
    2a10:	00 02 5b 01 	unimp  0x25b01
    2a14:	cb 00 00 00 	ld  [ %g0 ], %f5
    2a18:	85 00 00 0c 	taddcc  %g0, %o4, %g2
    2a1c:	c7 18 00 00 	ldd  [ %g0 ], %f34
    2a20:	02 93 01 cc 	be  4c3150 <_trap_table-0x3fb3ceb0>
    2a24:	00 00 00 25 	unimp  0x25
    2a28:	19 65 78 70 	unknown
    2a2c:	00 01 cd 00 	unimp  0x1cd00
    2a30:	00 00 25 00 	unimp  0x2500
    2a34:	00 0d 2f 1a 	unimp  0xd2f1a
    2a38:	00 00 01 98 	unimp  0x198
    2a3c:	40 00 94 cc 	call  27d6c <_trap_table-0x3ffd8294>
    2a40:	40 00 94 d0 	call  27d80 <_trap_table-0x3ffd8280>
    2a44:	01 d7 00 00 	cbn  5c2a44 <_trap_table-0x3fa3d5bc>
    2a48:	02 6d 1b 00 	unknown
    2a4c:	00 01 a9 00 	unimp  0x1a900
    2a50:	1c 40 00 96 	unknown
    2a54:	48 40 00 97 	call  21002cb0 <_trap_table-0x1effd350>
    2a58:	70 1d 00 00 	call  c0742a58 <__end+0x80735f00>
    2a5c:	03 66 01 01 	unknown
    2a60:	00 00 00 00 	unimp  0
    2a64:	25 00 00 0d 	sethi  %hi(0x3400), %l2
    2a68:	4d 1c 40 00 	call  34712a68 <_trap_table-0xb8ed598>
    2a6c:	96 64 40 00 	subx  %l1, %g0, %o3
    2a70:	96 c8 1e 00 	unknown
    2a74:	00 04 4a 01 	unimp  0x44a01
    2a78:	01 0b 00 00 	sethi  %hi(0x2c000000), %g0
    2a7c:	00 25 00 00 	unimp  0xffe50000
    2a80:	00 1f 00 00 	unimp  0x1f0000
    2a84:	01 44 01 85 	unknown
    2a88:	00 00 01 b9 	unimp  0x1b9
    2a8c:	01 01 00 00 	sethi  %hi(0x4000000), %g0
    2a90:	00 02 16 00 	unimp  0x21600
    2a94:	02 00 00 15 	unknown
    2a98:	41 04 01 00 	call  4102e98 <_trap_table-0x3befd168>
    2a9c:	00 00 eb 01 	unimp  0xeb01
    2aa0:	00 00 02 7b 	unimp  0x27b
    2aa4:	00 00 01 6d 	unimp  0x16d
    2aa8:	40 00 97 70 	call  28868 <_trap_table-0x3ffd7798>
    2aac:	40 00 98 ac 	call  28d5c <_trap_table-0x3ffd72a4>
    2ab0:	00 00 0e ed 	unimp  0xeed
    2ab4:	02 04 05 69 	unknown
    2ab8:	6e 74 00 03 	call  b9d02ac4 <__end+0x79cf5f6c>
    2abc:	01 06 00 00 	sethi  %hi(0x18000000), %g0
    2ac0:	00 e6 03 04 	unknown
    2ac4:	04 00 00 03 	unknown
    2ac8:	aa 04 00 00 	add  %l0, %g0, %l5
    2acc:	01 50 02 5d 	unknown
    2ad0:	00 00 00 45 	unimp  0x45
    2ad4:	03 08 04 00 	sethi  %hi(0x20100000), %g1
    2ad8:	00 03 f7 03 	unimp  0x3f703
    2adc:	02 05 00 00 	unknown
    2ae0:	00 bc 03 08 	bn  fff03700 <__end+0xbfef6ba8>
    2ae4:	05 00 00 00 	sethi  %hi(0), %g2
    2ae8:	f7 03 02 07 	ld  [ %o4 + %g7 ], %f27
    2aec:	00 00 00 67 	unimp  0x67
    2af0:	04 00 00 01 	unknown
    2af4:	57 02 70 00 	call  5c09eaf4 <__end+0x1c091f9c>
    2af8:	00 00 6c 03 	unimp  0x6c03
    2afc:	04 07 00 00 	unknown
    2b00:	00 d0 04 00 	unknown
    2b04:	00 02 11 02 	unimp  0x21102
    2b08:	71 00 00 00 	call  c4002b08 <__end+0x83ff5fb0>
    2b0c:	7e 03 08 07 	call  f80c4b28 <__end+0xb80b7fd0>
    2b10:	00 00 00 c6 	unimp  0xc6
    2b14:	04 00 00 02 	unknown
    2b18:	b3 02 d6 00 	unknown
    2b1c:	00 00 73 04 	unimp  0x7304
    2b20:	00 00 02 af 	unimp  0x2af
    2b24:	02 d7 00 00 	unknown
    2b28:	00 61 04 00 	unknown
    2b2c:	00 02 21 02 	unimp  0x22102
    2b30:	d8 00 00 00 	ld  [ %g0 ], %o4
    2b34:	3a 05 04 02 	unknown
    2b38:	01 57 00 00 	unknown
    2b3c:	00 ce 06 00 	unknown
    2b40:	00 02 2a 00 	unimp  0x22a00
    2b44:	06 00 00 01 	unknown
    2b48:	bb 01 06 00 	unknown
    2b4c:	00 01 0b 02 	unimp  0x10b02
    2b50:	06 00 00 02 	unknown
    2b54:	a2 03 06 00 	unknown
    2b58:	00 02 64 04 	unimp  0x26404
    2b5c:	00 07 00 00 	unimp  0x70000
    2b60:	01 5f 02 01 	unknown
    2b64:	5d 00 00 00 	call  74002b64 <__end+0x33ff600c>
    2b68:	a6 08 08 02 	unknown
    2b6c:	01 6c 00 00 	unknown
    2b70:	00 f9 09 6c 	unknown
    2b74:	6c 00 02 01 	call  b0003378 <__end+0x6fff6820>
    2b78:	6d 00 00 00 	call  b4002b78 <__end+0x73ff6020>
    2b7c:	85 09 6c 00 	tsubcc  %g5, 0xc00, %g2
    2b80:	02 01 6e 00 	unknown
    2b84:	00 00 f9 00 	unimp  0xf900
    2b88:	0a 00 00 00 	unknown
    2b8c:	90 00 00 01 	add  %g0, %g1, %o0
    2b90:	09 0b 00 00 	sethi  %hi(0x2c000000), %g4
    2b94:	01 09 01 00 	sethi  %hi(0x24040000), %g0
    2b98:	0c 04 07 0d 	unknown
    2b9c:	18 02 01 60 	unknown
    2ba0:	00 00 01 52 	unimp  0x152
    2ba4:	0e 00 00 01 	unknown
    2ba8:	3e 02 01 66 	unknown
    2bac:	00 00 00 ce 	unimp  0xce
    2bb0:	02 23 00 0e 	unknown
    2bb4:	00 00 02 93 	unimp  0x293
    2bb8:	02 01 67 00 	unknown
    2bbc:	00 00 6c 02 	unimp  0x6c02
    2bc0:	23 04 0e 00 	sethi  %hi(0x10380000), %l1
    2bc4:	00 01 18 02 	unimp  0x11802
    2bc8:	01 68 00 00 	unknown
    2bcc:	00 25 02 23 	unimp  0xffe50223
    2bd0:	08 0e 00 00 	unknown
    2bd4:	02 5b 02 01 	unknown
    2bd8:	6f 00 00 00 	call  bc002bd8 <__end+0x7bff6080>
    2bdc:	da 02 23 10 	ld  [ %o0 + 0x310 ], %o5
    2be0:	00 07 00 00 	unimp  0x70000
    2be4:	02 3f 02 01 	unknown
    2be8:	70 00 00 01 	call  c0002bec <__end+0x7fff6094>
    2bec:	0c 08 08 02 	unknown
    2bf0:	01 73 00 00 	unknown
    2bf4:	01 8c 0f 00 	fbn  3067f4 <_trap_table-0x3fcf980c>
    2bf8:	00 01 29 02 	unimp  0x12902
    2bfc:	01 74 00 00 	unknown
    2c00:	00 9b 0f 00 	bn  6c6800 <_trap_table-0x3f939800>
    2c04:	00 02 98 02 	unimp  0x29802
    2c08:	01 75 00 00 	unknown
    2c0c:	00 85 0f 00 	bn  14680c <_trap_table-0x3feb97f4>
    2c10:	00 02 0b 02 	unimp  0x20b02
    2c14:	01 7b 00 00 	unknown
    2c18:	00 f9 00 07 	unknown
    2c1c:	00 00 01 e6 	unimp  0x1e6
    2c20:	02 01 9b 00 	unknown
    2c24:	00 01 5e 10 	unimp  0x15e10
    2c28:	01 00 00 04 	sethi  %hi(0x1000), %g0
    2c2c:	51 01 01 bb 	call  44043318 <__end+0x40367c0>
    2c30:	01 40 00 97 	unknown
    2c34:	70 40 00 98 	call  c1002e94 <__end+0x80ff633c>
    2c38:	ac 00 00 0d 	add  %g0, %o5, %l6
    2c3c:	76 00 00 01 	call  d8002c40 <__end+0x97ff60e8>
    2c40:	fb 11 73 72 	unknown
    2c44:	63 00 01 01 	call  8c003048 <__end+0x4bff64f0>
    2c48:	bb 00 00 01 	taddcc  %g0, %g1, %i5
    2c4c:	fb 01 68 11 	ld  [ %g5 + 0x811 ], %f29
    2c50:	64 73 74 00 	call  91cdfc50 <__end+0x51cd30f8>
    2c54:	01 01 bb 00 	sethi  %hi(0x6ec0000), %g0
    2c58:	00 02 01 01 	unimp  0x20101
    2c5c:	69 12 00 00 	call  a4482c5c <__end+0x64476104>
    2c60:	02 5b 01 01 	unknown
    2c64:	c0 00 00 00 	ld  [ %g0 ], %g0
    2c68:	85 00 00 0d 	taddcc  %g0, %o5, %g2
    2c6c:	94 13 65 78 	or  %o5, 0x578, %o2
    2c70:	70 00 01 01 	call  c0003074 <__end+0x7fff651c>
    2c74:	c1 00 00 00 	ld  [ %g0 ], %f0
    2c78:	25 00 00 0d 	sethi  %hi(0x3400), %l2
    2c7c:	fc 14 00 00 	lduh  [ %l0 ], %fp
    2c80:	02 93 01 01 	be  4c3084 <_trap_table-0x3fb3cf7c>
    2c84:	c2 00 00 00 	ld  [ %g0 ], %g1
    2c88:	25 00 15 04 	sethi  %hi(0x541000), %l2
    2c8c:	00 00 01 8c 	unimp  0x18c
    2c90:	15 04 00 00 	sethi  %hi(0x10000000), %o2
    2c94:	01 52 16 00 	unknown
    2c98:	00 01 44 01 	unimp  0x14401
    2c9c:	85 00 00 02 	taddcc  %g0, %g2, %g2
    2ca0:	14 01 01 17 	unknown
    2ca4:	00 00 01 52 	unimp  0x152
    2ca8:	00 00 00 02 	unimp  0x2
    2cac:	1d 00 02 00 	sethi  %hi(0x80000), %sp
    2cb0:	00 16 6b 04 	unimp  0x166b04
    2cb4:	01 00 00 00 	nop 
    2cb8:	eb 01 00 00 	ld  [ %g4 ], %f21
    2cbc:	02 7b 00 00 	unknown
    2cc0:	01 6d 40 00 	unknown
    2cc4:	98 ac 40 00 	andncc  %l1, %g0, %o4
    2cc8:	99 e4 00 00 	save  %l0, %g0, %o4
    2ccc:	0f 98 02 04 	fbu  6034dc <_trap_table-0x3f9fcb24>
    2cd0:	05 69 6e 74 	unknown
    2cd4:	00 03 01 06 	unimp  0x30106
    2cd8:	00 00 00 e6 	unimp  0xe6
    2cdc:	03 04 04 00 	sethi  %hi(0x10100000), %g1
    2ce0:	00 03 aa 03 	unimp  0x3aa03
    2ce4:	08 04 00 00 	unknown
    2ce8:	03 f7 03 02 	cb123  ffdc38f0 <__end+0xbfdb6d98>
    2cec:	05 00 00 00 	sethi  %hi(0), %g2
    2cf0:	bc 03 08 05 	unknown
    2cf4:	00 00 00 f7 	unimp  0xf7
    2cf8:	03 02 07 00 	sethi  %hi(0x81c0000), %g1
    2cfc:	00 00 67 04 	unimp  0x6704
    2d00:	00 00 01 57 	unimp  0x157
    2d04:	02 70 00 00 	unknown
    2d08:	00 61 03 04 	unknown
    2d0c:	07 00 00 00 	sethi  %hi(0), %g3
    2d10:	d0 04 00 00 	ld  [ %l0 ], %o0
    2d14:	02 11 02 71 	unknown
    2d18:	00 00 00 73 	unimp  0x73
    2d1c:	03 08 07 00 	sethi  %hi(0x201c0000), %g1
    2d20:	00 00 c6 04 	unimp  0xc604
    2d24:	00 00 02 b3 	unimp  0x2b3
    2d28:	02 d6 00 00 	unknown
    2d2c:	00 68 04 00 	unknown
    2d30:	00 02 af 02 	unimp  0x2af02
    2d34:	d7 00 00 00 	ld  [ %g0 ], %f11
    2d38:	56 05 04 02 	call  58143d40 <__end+0x181371e8>
    2d3c:	01 57 00 00 	unknown
    2d40:	00 b8 06 00 	bn  ffe04540 <__end+0xbfdf79e8>
    2d44:	00 02 2a 00 	unimp  0x22a00
    2d48:	06 00 00 01 	unknown
    2d4c:	bb 01 06 00 	unknown
    2d50:	00 01 0b 02 	unimp  0x10b02
    2d54:	06 00 00 02 	unknown
    2d58:	a2 03 06 00 	unknown
    2d5c:	00 02 64 04 	unimp  0x26404
    2d60:	00 07 00 00 	unimp  0x70000
    2d64:	01 5f 02 01 	unknown
    2d68:	5d 00 00 00 	call  74002d68 <__end+0x33ff6210>
    2d6c:	90 08 08 02 	unknown
    2d70:	01 6c 00 00 	unknown
    2d74:	00 e3 09 6c 	unknown
    2d78:	6c 00 02 01 	call  b000357c <__end+0x6fff6a24>
    2d7c:	6d 00 00 00 	call  b4002d7c <__end+0x73ff6224>
    2d80:	7a 09 6c 00 	call  e825dd80 <__end+0xa8251228>
    2d84:	02 01 6e 00 	unknown
    2d88:	00 00 e3 00 	unimp  0xe300
    2d8c:	0a 00 00 00 	unknown
    2d90:	85 00 00 00 	taddcc  %g0, %g0, %g2
    2d94:	f3 0b 00 00 	unknown
    2d98:	00 f3 01 00 	unknown
    2d9c:	0c 04 07 0d 	unknown
    2da0:	18 02 01 60 	unknown
    2da4:	00 00 01 3c 	unimp  0x13c
    2da8:	0e 00 00 01 	unknown
    2dac:	3e 02 01 66 	unknown
    2db0:	00 00 00 b8 	unimp  0xb8
    2db4:	02 23 00 0e 	unknown
    2db8:	00 00 02 93 	unimp  0x293
    2dbc:	02 01 67 00 	unknown
    2dc0:	00 00 61 02 	unimp  0x6102
    2dc4:	23 04 0e 00 	sethi  %hi(0x10380000), %l1
    2dc8:	00 01 18 02 	unimp  0x11802
    2dcc:	01 68 00 00 	unknown
    2dd0:	00 25 02 23 	unimp  0xffe50223
    2dd4:	08 0e 00 00 	unknown
    2dd8:	02 5b 02 01 	unknown
    2ddc:	6f 00 00 00 	call  bc002ddc <__end+0x7bff6284>
    2de0:	c4 02 23 10 	ld  [ %o0 + 0x310 ], %g2
    2de4:	00 07 00 00 	unimp  0x70000
    2de8:	02 3f 02 01 	unknown
    2dec:	70 00 00 00 	call  c0002dec <__end+0x7fff6294>
    2df0:	f6 0f 00 00 	ldub  [ %i4 ], %i3
    2df4:	01 23 01 97 	sethi  %hi(0x8c065c00), %g0
    2df8:	01 00 00 00 	nop 
    2dfc:	25 03 00 00 	sethi  %hi(0xc000000), %l2
    2e00:	01 63 10 78 	unknown
    2e04:	00 01 97 00 	unimp  0x19700
    2e08:	00 01 63 00 	unimp  0x16300
    2e0c:	11 04 00 00 	sethi  %hi(0x10000000), %o0
    2e10:	01 69 12 00 	unknown
    2e14:	00 01 3c 0f 	unimp  0x13c0f
    2e18:	00 00 01 38 	unimp  0x138
    2e1c:	01 9f 01 00 	fbn  7c321c <_trap_table-0x3f83cde4>
    2e20:	00 00 25 03 	unimp  0x2503
    2e24:	00 00 01 89 	unimp  0x189
    2e28:	10 78 00 01 	unknown
    2e2c:	9f 00 00 01 	taddcc  %g0, %g1, %o7
    2e30:	63 00 0f 00 	call  8c006a30 <__end+0x4bff9ed8>
    2e34:	00 01 df 01 	unimp  0x1df01
    2e38:	a8 01 00 00 	add  %g4, %g0, %l4
    2e3c:	00 25 03 00 	unimp  0xffe50300
    2e40:	00 01 a4 10 	unimp  0x1a410
    2e44:	78 00 01 a8 	call  e00034e4 <__end+0x9fff698c>
    2e48:	00 00 01 63 	unimp  0x163
    2e4c:	00 13 01 00 	unimp  0x130100
    2e50:	00 04 5c 01 	unimp  0x45c01
    2e54:	04 3f 01 00 	unknown
    2e58:	00 00 25 40 	unimp  0x2540
    2e5c:	00 98 ac 40 	bn  62df5c <_trap_table-0x3f9d20a4>
    2e60:	00 99 e4 00 	bn  67be60 <_trap_table-0x3f9841a0>
    2e64:	00 0e 30 00 	unimp  0xe3000
    2e68:	00 02 0d 14 	unimp  0x20d14
    2e6c:	61 00 01 04 	call  8400327c <__end+0x43ff6724>
    2e70:	3f 00 00 02 	sethi  %hi(0x800), %i7
    2e74:	0d 00 00 0e 	sethi  %hi(0x3800), %g6
    2e78:	4e 15 62 00 	call  3855b678 <_trap_table-0x7aa4988>
    2e7c:	01 04 3f 00 	sethi  %hi(0x10fc0000), %g0
    2e80:	00 02 0d 01 	unimp  0x20d01
    2e84:	69 16 00 00 	call  a4582e84 <__end+0x6457632c>
    2e88:	01 48 40 00 	unknown
    2e8c:	98 b0 40 00 	orncc  %g1, %g0, %o4
    2e90:	98 b4 01 04 	unknown
    2e94:	49 00 00 01 	call  24002e98 <_trap_table-0x1bffd168>
    2e98:	f6 17 00 00 	lduh  [ %i4 ], %i3
    2e9c:	01 59 00 18 	unknown
    2ea0:	00 00 01 48 	unimp  0x148
    2ea4:	40 00 98 c0 	call  291a4 <_trap_table-0x3ffd6e5c>
    2ea8:	40 00 98 c4 	call  291b8 <_trap_table-0x3ffd6e48>
    2eac:	01 04 49 17 	sethi  %hi(0x11245c00), %g0
    2eb0:	00 00 01 59 	unimp  0x159
    2eb4:	00 00 11 04 	unimp  0x1104
    2eb8:	00 00 01 3c 	unimp  0x13c
    2ebc:	19 00 00 01 	sethi  %hi(0x400), %o4
    2ec0:	44 01 85 00 	call  100642c0 <_trap_table-0x2ff9bd40>
    2ec4:	00 01 69 01 	unimp  0x16901
    2ec8:	01 00 00 00 	nop 
    2ecc:	01 95 00 02 	fbn  542ed4 <_trap_table-0x3fabd12c>
    2ed0:	00 00 17 b5 	unimp  0x17b5
    2ed4:	04 01 00 00 	unknown
    2ed8:	00 eb 01 00 	unknown
    2edc:	00 03 b0 00 	unimp  0x3b000
    2ee0:	00 01 6d 40 	unimp  0x16d40
    2ee4:	00 99 e4 40 	bn  67bfe4 <_trap_table-0x3f98401c>
    2ee8:	00 9a 24 00 	bn  68bee8 <_trap_table-0x3f974118>
    2eec:	00 10 51 02 	unimp  0x105102
    2ef0:	04 05 69 6e 	unknown
    2ef4:	74 00 03 04 	call  d0003b04 <__end+0x8fff6fac>
    2ef8:	07 00 00 00 	sethi  %hi(0), %g3
    2efc:	d0 03 04 05 	ld  [ %o4 + %g5 ], %o0
    2f00:	00 00 00 fc 	unimp  0xfc
    2f04:	03 01 06 00 	sethi  %hi(0x4180000), %g1
    2f08:	00 00 e6 04 	unimp  0xe604
    2f0c:	04 07 03 08 	unknown
    2f10:	05 00 00 00 	sethi  %hi(0), %g2
    2f14:	f7 03 01 08 	ld  [ %o4 + %o0 ], %f27
    2f18:	00 00 00 dd 	unimp  0xdd
    2f1c:	03 04 07 00 	sethi  %hi(0x101c0000), %g1
    2f20:	00 00 cb 03 	unimp  0xcb03
    2f24:	02 05 00 00 	unknown
    2f28:	00 bc 03 02 	bn  fff03b30 <__end+0xbfef6fd8>
    2f2c:	07 00 00 00 	sethi  %hi(0), %g3
    2f30:	67 03 08 07 	call  9c0c4f4c <__end+0x5c0b83f4>
    2f34:	00 00 00 c6 	unimp  0xc6
    2f38:	03 01 06 00 	sethi  %hi(0x4180000), %g1
    2f3c:	00 00 df 05 	unimp  0xdf05
    2f40:	00 00 01 58 	unimp  0x158
    2f44:	02 8d 00 00 	be  342f44 <_trap_table-0x3fcbd0bc>
    2f48:	00 25 05 00 	unimp  0xffe50500
    2f4c:	00 01 57 02 	unimp  0x15702
    2f50:	8e 00 00 00 	add  %g0, %g0, %g7
    2f54:	2c 05 00 00 	unknown
    2f58:	02 12 02 91 	unknown
    2f5c:	00 00 00 44 	unimp  0x44
    2f60:	03 04 04 00 	sethi  %hi(0x10100000), %g1
    2f64:	00 03 aa 03 	unimp  0x3aa03
    2f68:	08 03 00 00 	unknown
    2f6c:	03 a2 03 08 	fbne  ff883b8c <__end+0xbf877034>
    2f70:	04 00 00 03 	unknown
    2f74:	f7 03 10 03 	ld  [ %o4 + %g3 ], %f27
    2f78:	00 00 03 ef 	unimp  0x3ef
    2f7c:	05 00 00 04 	sethi  %hi(0x1000), %g2
    2f80:	7e 02 ad 00 	call  f80ae380 <__end+0xb80a1828>
    2f84:	00 00 25 06 	unimp  0x2506
    2f88:	00 00 03 fe 	unimp  0x3fe
    2f8c:	08 02 01 a0 	unknown
    2f90:	00 00 00 e9 	unimp  0xe9
    2f94:	07 00 00 02 	sethi  %hi(0x800), %g3
    2f98:	bc 02 01 a0 	unknown
    2f9c:	00 00 00 75 	unimp  0x75
    2fa0:	02 23 00 08 	unknown
    2fa4:	6c 6f 77 00 	call  b1be0ba4 <__end+0x71bd404c>
    2fa8:	02 01 a0 00 	unknown
    2fac:	00 00 75 02 	unimp  0x7502
    2fb0:	23 04 00 09 	sethi  %hi(0x10002400), %l1
    2fb4:	08 02 01 aa 	unknown
    2fb8:	00 00 01 08 	unimp  0x108
    2fbc:	0a 73 00 02 	unknown
    2fc0:	01 ab 00 00 	fbn  ffac2fc0 <__end+0xbfab6468>
    2fc4:	00 bd 0a 6c 	bn  fff45974 <__end+0xbff38e1c>
    2fc8:	6c 00 02 01 	call  b00037cc <__end+0x6fff6c74>
    2fcc:	ac 00 00 00 	add  %g0, %g0, %l6
    2fd0:	8b 00 0b 00 	unknown
    2fd4:	00 03 e7 02 	unimp  0x3e702
    2fd8:	01 ad 00 00 	fbn  ffb42fd8 <__end+0xbfb36480>
    2fdc:	00 e9 0c 01 	unknown
    2fe0:	00 00 04 74 	unimp  0x474
    2fe4:	01 01 98 01 	sethi  %hi(0x6600400), %g0
    2fe8:	00 00 00 8b 	unimp  0x8b
    2fec:	40 00 99 e4 	call  2977c <_trap_table-0x3ffd6884>
    2ff0:	40 00 9a 24 	call  29880 <_trap_table-0x3ffd6780>
    2ff4:	01 5e 00 00 	unknown
    2ff8:	01 89 0d 75 	fbn  2465cc <_trap_table-0x3fdb9a34>
    2ffc:	00 01 01 98 	unimp  0x10198
    3000:	00 00 00 8b 	unimp  0x8b
    3004:	00 00 0e 8d 	unimp  0xe8d
    3008:	0e 62 00 01 	unknown
    300c:	01 98 00 00 	fbn  60300c <_trap_table-0x3f9fcff4>
    3010:	00 b2 01 5a 	bn  ffc83578 <__end+0xbfc76a20>
    3014:	0f 75 75 00 	unknown
    3018:	01 01 9d 00 	sethi  %hi(0x6740000), %g0
    301c:	00 01 89 10 	unimp  0x18910
    3020:	62 6d 00 01 	call  89b43024 <__end+0x49b364cc>
    3024:	01 9e 00 00 	fbn  783024 <_trap_table-0x3f87cfdc>
    3028:	01 8e 00 00 	fbn  383028 <_trap_table-0x3fc7cfd8>
    302c:	0e c5 10 77 	unknown
    3030:	00 01 01 9f 	unimp  0x1019f
    3034:	00 00 01 08 	unimp  0x108
    3038:	00 00 0e e3 	unimp  0xee3
    303c:	11 40 00 9a 	unknown
    3040:	00 40 00 9a 	unknown
    3044:	10 12 00 00 	unknown
    3048:	04 6c 01 01 	unknown
    304c:	a8 00 00 01 	add  %g0, %g1, %l4
    3050:	93 00 00 13 	taddcc  %g0, %l3, %o1
    3054:	00 00 01 08 	unimp  0x108
    3058:	13 00 00 00 	sethi  %hi(0), %o1
    305c:	b2 13 00 00 	mov  %o4, %i1
    3060:	00 80 00 00 	bn  3060 <_trap_table-0x3fffcfa0>
    3064:	00 01 95 00 	unimp  0x19500
    3068:	02 00 00 18 	unknown
    306c:	b9 04 01 00 	unknown
    3070:	00 00 eb 01 	unimp  0xeb01
    3074:	00 00 03 b0 	unimp  0x3b0
    3078:	00 00 01 6d 	unimp  0x16d
    307c:	40 00 9a 24 	call  2990c <_trap_table-0x3ffd66f4>
    3080:	40 00 9a 64 	call  29a10 <_trap_table-0x3ffd65f0>
    3084:	00 00 10 c9 	unimp  0x10c9
    3088:	02 04 05 69 	unknown
    308c:	6e 74 00 03 	call  b9d03098 <__end+0x79cf6540>
    3090:	04 07 00 00 	unknown
    3094:	00 d0 03 04 	unknown
    3098:	05 00 00 00 	sethi  %hi(0), %g2
    309c:	fc 03 01 06 	ld  [ %o4 + %g6 ], %fp
    30a0:	00 00 00 e6 	unimp  0xe6
    30a4:	04 04 07 03 	unknown
    30a8:	08 05 00 00 	unknown
    30ac:	00 f7 03 01 	unknown
    30b0:	08 00 00 00 	unknown
    30b4:	dd 03 04 07 	ld  [ %o4 + %g7 ], %f14
    30b8:	00 00 00 cb 	unimp  0xcb
    30bc:	03 02 05 00 	sethi  %hi(0x8140000), %g1
    30c0:	00 00 bc 03 	unimp  0xbc03
    30c4:	02 07 00 00 	unknown
    30c8:	00 67 03 08 	unknown
    30cc:	07 00 00 00 	sethi  %hi(0), %g3
    30d0:	c6 03 01 06 	ld  [ %o4 + %g6 ], %g3
    30d4:	00 00 00 df 	unimp  0xdf
    30d8:	05 00 00 01 	sethi  %hi(0x400), %g2
    30dc:	58 02 8d 00 	call  600a64dc <__end+0x20099984>
    30e0:	00 00 25 05 	unimp  0x2505
    30e4:	00 00 01 57 	unimp  0x157
    30e8:	02 8e 00 00 	be  3830e8 <_trap_table-0x3fc7cf18>
    30ec:	00 2c 05 00 	unimp  0xffec0500
    30f0:	00 02 12 02 	unimp  0x21202
    30f4:	91 00 00 00 	taddcc  %g0, %g0, %o0
    30f8:	44 03 04 04 	call  100c4108 <_trap_table-0x2ff3bef8>
    30fc:	00 00 03 aa 	unimp  0x3aa
    3100:	03 08 03 00 	sethi  %hi(0x200c0000), %g1
    3104:	00 03 a2 03 	unimp  0x3a203
    3108:	08 04 00 00 	unknown
    310c:	03 f7 03 10 	cb123  ffdc3d4c <__end+0xbfdb71f4>
    3110:	03 00 00 03 	sethi  %hi(0xc00), %g1
    3114:	ef 05 00 00 	ld  [ %l4 ], %f23
    3118:	04 7e 02 ad 	unknown
    311c:	00 00 00 25 	unimp  0x25
    3120:	06 00 00 03 	unknown
    3124:	fe 08 02 01 	unknown
    3128:	a0 00 00 00 	add  %g0, %g0, %l0
    312c:	e9 07 00 00 	ld  [ %i4 ], %f20
    3130:	02 bc 02 01 	be  fff03934 <__end+0xbfef6ddc>
    3134:	a0 00 00 00 	add  %g0, %g0, %l0
    3138:	75 02 23 00 	call  d408bd38 <__end+0x9407f1e0>
    313c:	08 6c 6f 77 	unknown
    3140:	00 02 01 a0 	unimp  0x201a0
    3144:	00 00 00 75 	unimp  0x75
    3148:	02 23 04 00 	unknown
    314c:	09 08 02 01 	sethi  %hi(0x20080400), %g4
    3150:	aa 00 00 01 	add  %g0, %g1, %l5
    3154:	08 0a 73 00 	unknown
    3158:	02 01 ab 00 	unknown
    315c:	00 00 bd 0a 	unimp  0xbd0a
    3160:	6c 6c 00 02 	call  b1b03168 <__end+0x71af6610>
    3164:	01 ac 00 00 	fbn  ffb03164 <__end+0xbfaf660c>
    3168:	00 8b 00 0b 	bn  2c3194 <_trap_table-0x3fd3ce6c>
    316c:	00 00 03 e7 	unimp  0x3e7
    3170:	02 01 ad 00 	unknown
    3174:	00 00 e9 0c 	unimp  0xe90c
    3178:	01 00 00 04 	sethi  %hi(0x1000), %g0
    317c:	8f 01 01 b4 	unknown
    3180:	01 00 00 00 	nop 
    3184:	8b 40 00 9a 	unknown
    3188:	24 40 00 9a 	unknown
    318c:	64 01 5e 00 	call  9005a98c <__end+0x5004de34>
    3190:	00 01 89 0d 	unimp  0x1890d
    3194:	75 00 01 01 	call  d4003598 <__end+0x93ff6a40>
    3198:	b4 00 00 00 	add  %g0, %g0, %i2
    319c:	8b 00 00 0f 	taddcc  %g0, %o7, %g5
    31a0:	0b 0e 62 00 	sethi  %hi(0x39880000), %g5
    31a4:	01 01 b4 00 	sethi  %hi(0x6d00000), %g0
    31a8:	00 00 b2 01 	unimp  0xb201
    31ac:	5a 0f 75 75 	call  683e0780 <__end+0x283d3c28>
    31b0:	00 01 01 b9 	unimp  0x101b9
    31b4:	00 00 01 89 	unimp  0x189
    31b8:	10 62 6d 00 	unknown
    31bc:	01 01 ba 00 	sethi  %hi(0x6e80000), %g0
    31c0:	00 01 8e 00 	unimp  0x18e00
    31c4:	00 0f 43 10 	unimp  0xf4310
    31c8:	77 00 01 01 	call  dc0035cc <__end+0x9bff6a74>
    31cc:	bb 00 00 01 	taddcc  %g0, %g1, %i5
    31d0:	08 00 00 0f 	unknown
    31d4:	61 11 40 00 	call  844531d4 <__end+0x4444667c>
    31d8:	9a 40 40 00 	addx  %g1, %g0, %o5
    31dc:	9a 50 12 00 	unknown
    31e0:	00 04 6c 01 	unimp  0x46c01
    31e4:	01 c4 00 00 	cbn  1031e4 <_trap_table-0x3fefce1c>
    31e8:	01 93 00 00 	fbn  4c31e8 <_trap_table-0x3fb3ce18>
    31ec:	13 00 00 01 	sethi  %hi(0x400), %o1
    31f0:	08 13 00 00 	unknown
    31f4:	00 b2 13 00 	bn  ffc87df4 <__end+0xbfc7b29c>
    31f8:	00 00 80 00 	unimp  0x8000
    31fc:	00 00 00 c1 	unimp  0xc1
    3200:	00 02 00 00 	unimp  0x20000
    3204:	19 bd 04 01 	fbuge  fff44208 <__end+0xbff376b0>
    3208:	00 00 00 eb 	unimp  0xeb
    320c:	01 00 00 03 	sethi  %hi(0xc00), %g0
    3210:	b0 00 00 01 	add  %g0, %g1, %i0
    3214:	6d 40 00 9a 	call  b500347c <__end+0x74ff6924>
    3218:	64 40 00 9a 	call  91003480 <__end+0x50ff6928>
    321c:	64 00 00 11 	call  90003260 <__end+0x4fff6708>
    3220:	41 02 04 05 	call  4084234 <_trap_table-0x3bf7bdcc>
    3224:	69 6e 74 00 	call  a5ba0224 <__end+0x65b936cc>
    3228:	03 04 07 00 	sethi  %hi(0x101c0000), %g1
    322c:	00 00 d0 03 	unimp  0xd003
    3230:	04 05 00 00 	unknown
    3234:	00 fc 03 01 	unknown
    3238:	06 00 00 00 	unknown
    323c:	e6 04 04 07 	ld  [ %l0 + %g7 ], %l3
    3240:	03 08 05 00 	sethi  %hi(0x20140000), %g1
    3244:	00 00 f7 03 	unimp  0xf703
    3248:	01 08 00 00 	sethi  %hi(0x20000000), %g0
    324c:	00 dd 03 04 	unknown
    3250:	07 00 00 00 	sethi  %hi(0), %g3
    3254:	cb 03 02 05 	ld  [ %o4 + %g5 ], %f5
    3258:	00 00 00 bc 	unimp  0xbc
    325c:	03 02 07 00 	sethi  %hi(0x81c0000), %g1
    3260:	00 00 67 03 	unimp  0x6703
    3264:	08 07 00 00 	unknown
    3268:	00 c6 03 01 	unknown
    326c:	06 00 00 00 	unknown
    3270:	df 05 00 00 	ld  [ %l4 ], %f15
    3274:	04 39 01 88 	unknown
    3278:	00 00 00 4b 	unimp  0x4b
    327c:	03 04 04 00 	sethi  %hi(0x10100000), %g1
    3280:	00 03 aa 03 	unimp  0x3aa03
    3284:	08 03 00 00 	unknown
    3288:	03 a2 03 08 	fbne  ff883ea8 <__end+0xbf877350>
    328c:	04 00 00 03 	unknown
    3290:	f7 03 10 03 	ld  [ %o4 + %g3 ], %f27
    3294:	00 00 03 ef 	unimp  0x3ef
    3298:	06 00 00 00 	unknown
    329c:	75 00 00 00 	call  d400329c <__end+0x93ff6744>
    32a0:	ac 07 00 00 	add  %i4, %g0, %l6
    32a4:	00 41 ff 00 	unknown
    32a8:	08 00 00 04 	unknown
    32ac:	2f 02 02 b5 	sethi  %hi(0x80ad400), %l7
    32b0:	00 00 00 bf 	unimp  0xbf
    32b4:	01 05 03 40 	sethi  %hi(0x140d0000), %g0
    32b8:	00 b9 d0 09 	bn  ffe772dc <__end+0xbfe6a784>
    32bc:	00 00 00 9c 	unimp  0x9c
    32c0:	00 00 00 00 	unimp  0
    32c4:	64 00 02 00 	call  90003ac4 <__end+0x4fff6f6c>
    32c8:	00 1a 27 04 	unimp  0x1a2704
    32cc:	01 00 00 11 	sethi  %hi(0x4400), %g0
    32d0:	9c 00 00 01 	add  %g0, %g1, %sp
    32d4:	a0 63 72 74 	subx  %o5, -3468, %l0
    32d8:	6e 2e 73 00 	call  b8b9fed8 <__end+0x78b93380>
    32dc:	2f 68 6f 6d 	unknown
    32e0:	65 2f 62 75 	call  94bdbcb4 <__end+0x54bcf15c>
    32e4:	69 6c 64 2f 	call  a5b1c3a0 <__end+0x65b0f848>
    32e8:	62 63 63 2f 	call  898dbfa4 <__end+0x498cf44c>
    32ec:	42 43 43 5f 	call  90d4068 <_trap_table-0x36f2bf98>
    32f0:	52 45 50 2f 	call  491573ac <__end+0x914a854>
    32f4:	67 63 63 2d 	call  9d8dbfa8 <__end+0x5d8cf450>
    32f8:	34 2e 34 2e 	unknown
    32fc:	32 2d 31 2e 	unknown
    3300:	30 2e 35 30 	unknown
    3304:	67 63 63 2d 	call  9d8dbfb8 <__end+0x5d8cf460>
    3308:	34 2e 34 2e 	unknown
    330c:	32 2d 62 75 	unknown
    3310:	69 6c 64 2f 	call  a5b1c3cc <__end+0x65b0f874>
    3314:	67 63 63 00 	call  9d8dbf14 <__end+0x5d8cf3bc>
    3318:	47 4e 55 20 	call  1d398798 <_trap_table-0x22c67868>
    331c:	41 53 20 32 	call  54cb3e4 <_trap_table-0x3ab34c1c>
    3320:	2e 31 39 2e 	unknown
    3324:	35 31 00 80 	sethi  %hi(0xc4020000), %i2
    3328:	Address 0x00003328 is out of bounds.


Disassembly of section .debug_abbrev:

00000000 <.debug_abbrev>:
       0:	01 11 00 10 	sethi  %hi(0x44004000), %g0
       4:	06 11 01 12 	unknown
       8:	01 03 08 1b 	sethi  %hi(0xc206c00), %g0
       c:	08 25 08 13 	unknown
      10:	05 00 00 00 	sethi  %hi(0), %g2
      14:	01 11 00 10 	sethi  %hi(0x44004000), %g0
      18:	06 11 01 12 	unknown
      1c:	01 03 08 1b 	sethi  %hi(0xc206c00), %g0
      20:	08 25 08 13 	unknown
      24:	05 00 00 00 	sethi  %hi(0), %g2
      28:	01 11 00 10 	sethi  %hi(0x44004000), %g0
      2c:	06 55 06 03 	unknown
      30:	08 1b 08 25 	unknown
      34:	08 13 05 00 	unknown
      38:	00 00 01 11 	unimp  0x111
      3c:	01 25 0e 13 	sethi  %hi(0x94384c00), %g0
      40:	0b 03 0e 1b 	sethi  %hi(0xc386c00), %g5
      44:	0e 11 01 12 	unknown
      48:	01 10 06 00 	sethi  %hi(0x40180000), %g0
      4c:	00 02 24 00 	unimp  0x22400
      50:	0b 0b 3e 0b 	sethi  %hi(0x2cf82c00), %g5
      54:	03 0e 00 00 	sethi  %hi(0x38000000), %g1
      58:	03 24 00 0b 	sethi  %hi(0x90002c00), %g1
      5c:	0b 3e 0b 00 	sethi  %hi(0xf82c0000), %g5
      60:	00 04 24 00 	unimp  0x42400
      64:	0b 0b 3e 0b 	sethi  %hi(0x2cf82c00), %g5
      68:	03 08 00 00 	sethi  %hi(0x20000000), %g1
      6c:	05 2e 00 3f 	sethi  %hi(0xb800fc00), %g2
      70:	0c 03 0e 3a 	unknown
      74:	0b 3b 0b 27 	sethi  %hi(0xec2c9c00), %g5
      78:	0c 11 01 12 	unknown
      7c:	01 40 0a 00 	unknown
      80:	00 00 01 11 	unimp  0x111
      84:	00 10 06 11 	unimp  0x100611
      88:	01 12 01 03 	sethi  %hi(0x48040c00), %g0
      8c:	08 1b 08 25 	unknown
      90:	08 13 05 00 	unknown
      94:	00 00 01 11 	unimp  0x111
      98:	00 10 06 11 	unimp  0x100611
      9c:	01 12 01 03 	sethi  %hi(0x48040c00), %g0
      a0:	08 1b 08 25 	unknown
      a4:	08 13 05 00 	unknown
      a8:	00 00 01 11 	unimp  0x111
      ac:	00 10 06 11 	unimp  0x100611
      b0:	01 12 01 03 	sethi  %hi(0x48040c00), %g0
      b4:	08 1b 08 25 	unknown
      b8:	08 13 05 00 	unknown
      bc:	00 00 01 11 	unimp  0x111
      c0:	01 25 0e 13 	sethi  %hi(0x94384c00), %g0
      c4:	0b 03 0e 1b 	sethi  %hi(0xc386c00), %g5
      c8:	0e 11 01 12 	unknown
      cc:	01 10 06 00 	sethi  %hi(0x40180000), %g0
      d0:	00 02 24 00 	unimp  0x22400
      d4:	0b 0b 3e 0b 	sethi  %hi(0x2cf82c00), %g5
      d8:	03 08 00 00 	sethi  %hi(0x20000000), %g1
      dc:	03 24 00 0b 	sethi  %hi(0x90002c00), %g1
      e0:	0b 3e 0b 03 	sethi  %hi(0xf82c0c00), %g5
      e4:	0e 00 00 04 	unknown
      e8:	16 00 03 0e 	unknown
      ec:	3a 0b 3b 0b 	unknown
      f0:	49 13 00 00 	call  244c00f0 <_trap_table-0x1bb3ff10>
      f4:	05 04 01 0b 	sethi  %hi(0x10042c00), %g2
      f8:	0b 3a 0b 3b 	sethi  %hi(0xe82cec00), %g5
      fc:	05 01 13 00 	sethi  %hi(0x44c0000), %g2
     100:	00 06 28 00 	unimp  0x62800
     104:	03 0e 1c 0d 	sethi  %hi(0x38703400), %g1
     108:	00 00 07 16 	unimp  0x716
     10c:	00 03 0e 3a 	unimp  0x30e3a
     110:	0b 3b 05 49 	sethi  %hi(0xec152400), %g5
     114:	13 00 00 08 	sethi  %hi(0x2000), %o1
     118:	17 01 0b 0b 	sethi  %hi(0x42c2c00), %o3
     11c:	3a 0b 3b 05 	unknown
     120:	01 13 00 00 	sethi  %hi(0x4c000000), %g0
     124:	09 0d 00 03 	sethi  %hi(0x34000c00), %g4
     128:	08 3a 0b 3b 	unknown
     12c:	05 49 13 00 	unknown
     130:	00 0a 01 01 	unimp  0xa0101
     134:	49 13 01 13 	call  244c0580 <_trap_table-0x1bb3fa80>
     138:	00 00 0b 21 	unimp  0xb21
     13c:	00 49 13 2f 	unknown
     140:	0b 00 00 0c 	sethi  %hi(0x3000), %g5
     144:	24 00 0b 0b 	unknown
     148:	3e 0b 00 00 	unknown
     14c:	0d 13 01 0b 	sethi  %hi(0x4c042c00), %g6
     150:	0b 3a 0b 3b 	sethi  %hi(0xe82cec00), %g5
     154:	05 01 13 00 	sethi  %hi(0x44c0000), %g2
     158:	00 0e 0d 00 	unimp  0xe0d00
     15c:	03 0e 3a 0b 	sethi  %hi(0x38e82c00), %g1
     160:	3b 05 49 13 	sethi  %hi(0x15244c00), %i5
     164:	38 0a 00 00 	unknown
     168:	0f 0d 00 03 	sethi  %hi(0x34000c00), %g7
     16c:	0e 3a 0b 3b 	unknown
     170:	05 49 13 00 	unknown
     174:	00 10 2e 01 	unimp  0x102e01
     178:	03 0e 3a 0b 	sethi  %hi(0x38e82c00), %g1
     17c:	3b 0b 27 0c 	sethi  %hi(0x2c9c3000), %i5
     180:	49 13 20 0b 	call  244c81ac <_trap_table-0x1bb37e54>
     184:	01 13 00 00 	sethi  %hi(0x4c000000), %g0
     188:	11 05 00 03 	sethi  %hi(0x14000c00), %o0
     18c:	08 3a 0b 3b 	unknown
     190:	0b 49 13 00 	unknown
     194:	00 12 0f 00 	unimp  0x120f00
     198:	0b 0b 49 13 	sethi  %hi(0x2d244c00), %g5
     19c:	00 00 13 26 	unimp  0x1326
     1a0:	00 49 13 00 	unknown
     1a4:	00 14 2e 00 	unimp  0x142e00
     1a8:	03 0e 3a 0b 	sethi  %hi(0x38e82c00), %g1
     1ac:	3b 0b 27 0c 	sethi  %hi(0x2c9c3000), %i5
     1b0:	49 13 20 0b 	call  244c81dc <_trap_table-0x1bb37e24>
     1b4:	00 00 15 2e 	unimp  0x152e
     1b8:	01 03 0e 3a 	sethi  %hi(0xc38e800), %g0
     1bc:	0b 3b 05 27 	sethi  %hi(0xec149c00), %g5
     1c0:	0c 49 13 11 	unknown
     1c4:	01 12 01 40 	sethi  %hi(0x48050000), %g0
     1c8:	06 01 13 00 	unknown
     1cc:	00 16 05 00 	unimp  0x160500
     1d0:	03 08 3a 0b 	sethi  %hi(0x20e82c00), %g1
     1d4:	3b 05 49 13 	sethi  %hi(0x15244c00), %i5
     1d8:	02 06 00 00 	unknown
     1dc:	17 05 00 03 	sethi  %hi(0x14000c00), %o3
     1e0:	08 3a 0b 3b 	unknown
     1e4:	05 49 13 02 	unknown
     1e8:	0a 00 00 18 	unknown
     1ec:	34 00 03 0e 	unknown
     1f0:	3a 0b 3b 05 	unknown
     1f4:	49 13 02 06 	call  244c0a0c <_trap_table-0x1bb3f5f4>
     1f8:	00 00 19 1d 	unimp  0x191d
     1fc:	01 31 13 11 	sethi  %hi(0xc44c4400), %g0
     200:	01 12 01 58 	sethi  %hi(0x48056000), %g0
     204:	0b 59 05 01 	unknown
     208:	13 00 00 1a 	sethi  %hi(0x6800), %o1
     20c:	05 00 31 13 	sethi  %hi(0xc44c00), %g2
     210:	00 00 1b 0b 	unimp  0x1b0b
     214:	01 55 06 00 	unknown
     218:	00 1c 34 00 	unimp  0x1c3400
     21c:	03 0e 3a 0b 	sethi  %hi(0x38e82c00), %g1
     220:	3b 05 49 13 	sethi  %hi(0x15244c00), %i5
     224:	00 00 1d 2e 	unimp  0x1d2e
     228:	01 3f 0c 03 	sethi  %hi(0xfc300c00), %g0
     22c:	0e 3a 0b 3b 	unknown
     230:	05 27 0c 49 	sethi  %hi(0x9c312400), %g2
     234:	13 11 01 12 	sethi  %hi(0x44044800), %o1
     238:	01 40 06 01 	unknown
     23c:	13 00 00 1e 	sethi  %hi(0x7800), %o1
     240:	05 00 03 0e 	sethi  %hi(0xc3800), %g2
     244:	3a 0b 3b 05 	unknown
     248:	49 13 02 06 	call  244c0a60 <_trap_table-0x1bb3f5a0>
     24c:	00 00 1f 05 	unimp  0x1f05
     250:	00 03 0e 3a 	unimp  0x30e3a
     254:	0b 3b 05 49 	sethi  %hi(0xec152400), %g5
     258:	13 02 0a 00 	sethi  %hi(0x8280000), %o1
     25c:	00 20 34 00 	unimp  0xffe03400
     260:	03 08 3a 0b 	sethi  %hi(0x20e82c00), %g1
     264:	3b 05 49 13 	sethi  %hi(0x15244c00), %i5
     268:	02 0a 00 00 	unknown
     26c:	21 34 00 03 	sethi  %hi(0xd0000c00), %l0
     270:	08 3a 0b 3b 	unknown
     274:	05 49 13 00 	unknown
     278:	00 22 34 00 	unimp  0xffe23400
     27c:	03 0e 3a 0b 	sethi  %hi(0x38e82c00), %g1
     280:	3b 0b 49 13 	sethi  %hi(0x2d244c00), %i5
     284:	3f 0c 3c 0c 	sethi  %hi(0x30f03000), %i7
     288:	00 00 00 01 	unimp  0x1
     28c:	11 01 25 0e 	sethi  %hi(0x4943800), %o0
     290:	13 0b 03 0e 	sethi  %hi(0x2c0c3800), %o1
     294:	1b 0e 11 01 	sethi  %hi(0x38440400), %o5
     298:	12 01 10 06 	unknown
     29c:	00 00 02 24 	unimp  0x224
     2a0:	00 0b 0b 3e 	unimp  0xb0b3e
     2a4:	0b 03 08 00 	sethi  %hi(0xc200000), %g5
     2a8:	00 03 24 00 	unimp  0x32400
     2ac:	0b 0b 3e 0b 	sethi  %hi(0x2cf82c00), %g5
     2b0:	03 0e 00 00 	sethi  %hi(0x38000000), %g1
     2b4:	04 16 00 03 	unknown
     2b8:	0e 3a 0b 3b 	unknown
     2bc:	0b 49 13 00 	unknown
     2c0:	00 05 04 01 	unimp  0x50401
     2c4:	0b 0b 3a 0b 	sethi  %hi(0x2ce82c00), %g5
     2c8:	3b 05 01 13 	sethi  %hi(0x14044c00), %i5
     2cc:	00 00 06 28 	unimp  0x628
     2d0:	00 03 0e 1c 	unimp  0x30e1c
     2d4:	0d 00 00 07 	sethi  %hi(0x1c00), %g6
     2d8:	16 00 03 0e 	unknown
     2dc:	3a 0b 3b 05 	unknown
     2e0:	49 13 00 00 	call  244c02e0 <_trap_table-0x1bb3fd20>
     2e4:	08 17 01 0b 	unknown
     2e8:	0b 3a 0b 3b 	sethi  %hi(0xe82cec00), %g5
     2ec:	05 01 13 00 	sethi  %hi(0x44c0000), %g2
     2f0:	00 09 0d 00 	unimp  0x90d00
     2f4:	03 08 3a 0b 	sethi  %hi(0x20e82c00), %g1
     2f8:	3b 05 49 13 	sethi  %hi(0x15244c00), %i5
     2fc:	00 00 0a 01 	unimp  0xa01
     300:	01 49 13 01 	unknown
     304:	13 00 00 0b 	sethi  %hi(0x2c00), %o1
     308:	21 00 49 13 	sethi  %hi(0x1244c00), %l0
     30c:	2f 0b 00 00 	sethi  %hi(0x2c000000), %l7
     310:	0c 24 00 0b 	unknown
     314:	0b 3e 0b 00 	sethi  %hi(0xf82c0000), %g5
     318:	00 0d 13 01 	unimp  0xd1301
     31c:	0b 0b 3a 0b 	sethi  %hi(0x2ce82c00), %g5
     320:	3b 05 01 13 	sethi  %hi(0x14044c00), %i5
     324:	00 00 0e 0d 	unimp  0xe0d
     328:	00 03 0e 3a 	unimp  0x30e3a
     32c:	0b 3b 05 49 	sethi  %hi(0xec152400), %g5
     330:	13 38 0a 00 	sethi  %hi(0xe0280000), %o1
     334:	00 0f 0d 00 	unimp  0xf0d00
     338:	03 0e 3a 0b 	sethi  %hi(0x38e82c00), %g1
     33c:	3b 05 49 13 	sethi  %hi(0x15244c00), %i5
     340:	00 00 10 2e 	unimp  0x102e
     344:	01 03 0e 3a 	sethi  %hi(0xc38e800), %g0
     348:	0b 3b 0b 27 	sethi  %hi(0xec2c9c00), %g5
     34c:	0c 49 13 20 	unknown
     350:	0b 01 13 00 	sethi  %hi(0x44c0000), %g5
     354:	00 11 05 00 	unimp  0x110500
     358:	03 08 3a 0b 	sethi  %hi(0x20e82c00), %g1
     35c:	3b 0b 49 13 	sethi  %hi(0x2d244c00), %i5
     360:	00 00 12 0f 	unimp  0x120f
     364:	00 0b 0b 49 	unimp  0xb0b49
     368:	13 00 00 13 	sethi  %hi(0x4c00), %o1
     36c:	26 00 49 13 	unknown
     370:	00 00 14 2e 	unimp  0x142e
     374:	00 03 0e 3a 	unimp  0x30e3a
     378:	0b 3b 0b 27 	sethi  %hi(0xec2c9c00), %g5
     37c:	0c 49 13 20 	unknown
     380:	0b 00 00 15 	sethi  %hi(0x5400), %g5
     384:	2e 01 03 0e 	unknown
     388:	3a 0b 3b 05 	unknown
     38c:	27 0c 49 13 	sethi  %hi(0x31244c00), %l3
     390:	20 0b 01 13 	unknown
     394:	00 00 16 05 	unimp  0x1605
     398:	00 03 08 3a 	unimp  0x3083a
     39c:	0b 3b 05 49 	sethi  %hi(0xec152400), %g5
     3a0:	13 00 00 17 	sethi  %hi(0x5c00), %o1
     3a4:	34 00 03 08 	unknown
     3a8:	3a 0b 3b 05 	unknown
     3ac:	49 13 00 00 	call  244c03ac <_trap_table-0x1bb3fc54>
     3b0:	18 34 00 03 	unknown
     3b4:	0e 3a 0b 3b 	unknown
     3b8:	05 49 13 00 	unknown
     3bc:	00 19 0b 01 	unimp  0x190b01
     3c0:	00 00 1a 2e 	unimp  0x1a2e
     3c4:	01 3f 0c 03 	sethi  %hi(0xfc300c00), %g0
     3c8:	0e 3a 0b 3b 	unknown
     3cc:	05 27 0c 49 	sethi  %hi(0x9c312400), %g2
     3d0:	13 11 01 12 	sethi  %hi(0x44044800), %o1
     3d4:	01 40 06 01 	unknown
     3d8:	13 00 00 1b 	sethi  %hi(0x6c00), %o1
     3dc:	05 00 03 0e 	sethi  %hi(0xc3800), %g2
     3e0:	3a 0b 3b 05 	unknown
     3e4:	49 13 02 06 	call  244c0bfc <_trap_table-0x1bb3f404>
     3e8:	00 00 1c 05 	unimp  0x1c05
     3ec:	00 03 0e 3a 	unimp  0x30e3a
     3f0:	0b 3b 05 49 	sethi  %hi(0xec152400), %g5
     3f4:	13 02 0a 00 	sethi  %hi(0x8280000), %o1
     3f8:	00 1d 34 00 	unimp  0x1d3400
     3fc:	03 08 3a 0b 	sethi  %hi(0x20e82c00), %g1
     400:	3b 05 49 13 	sethi  %hi(0x15244c00), %i5
     404:	02 0a 00 00 	unknown
     408:	1e 34 00 03 	unknown
     40c:	08 3a 0b 3b 	unknown
     410:	05 49 13 02 	unknown
     414:	06 00 00 1f 	unknown
     418:	1d 01 31 13 	sethi  %hi(0x4c44c00), %sp
     41c:	52 01 55 06 	call  48055834 <__end+0x8048cdc>
     420:	58 0b 59 05 	call  602d6834 <__end+0x202c9cdc>
     424:	00 00 20 05 	unimp  0x2005
     428:	00 31 13 00 	unimp  0xfff11300
     42c:	00 21 0b 01 	unimp  0xffe10b01
     430:	55 06 00 00 	call  54180430 <__end+0x141738d8>
     434:	22 34 00 31 	unknown
     438:	13 02 06 00 	sethi  %hi(0x8180000), %o1
     43c:	00 23 0b 01 	unimp  0xffe30b01
     440:	55 06 01 13 	call  5418088c <__end+0x14173d34>
     444:	00 00 24 34 	unimp  0x2434
     448:	00 31 13 00 	unimp  0xfff11300
     44c:	00 25 1d 01 	unimp  0xffe51d01
     450:	31 13 11 01 	sethi  %hi(0x4c440400), %i0
     454:	12 01 58 0b 	unknown
     458:	59 05 00 00 	call  64140458 <__end+0x24133900>
     45c:	26 34 00 03 	unknown
     460:	0e 3a 0b 3b 	unknown
     464:	0b 49 13 3f 	unknown
     468:	0c 3c 0c 00 	unknown
     46c:	00 00 01 11 	unimp  0x111
     470:	01 25 0e 13 	sethi  %hi(0x94384c00), %g0
     474:	0b 03 0e 1b 	sethi  %hi(0xc386c00), %g5
     478:	0e 11 01 12 	unknown
     47c:	01 10 06 00 	sethi  %hi(0x40180000), %g0
     480:	00 02 24 00 	unimp  0x22400
     484:	0b 0b 3e 0b 	sethi  %hi(0x2cf82c00), %g5
     488:	03 08 00 00 	sethi  %hi(0x20000000), %g1
     48c:	03 24 00 0b 	sethi  %hi(0x90002c00), %g1
     490:	0b 3e 0b 03 	sethi  %hi(0xf82c0c00), %g5
     494:	0e 00 00 04 	unknown
     498:	16 00 03 0e 	unknown
     49c:	3a 0b 3b 0b 	unknown
     4a0:	49 13 00 00 	call  244c04a0 <_trap_table-0x1bb3fb60>
     4a4:	05 04 01 0b 	sethi  %hi(0x10042c00), %g2
     4a8:	0b 3a 0b 3b 	sethi  %hi(0xe82cec00), %g5
     4ac:	05 01 13 00 	sethi  %hi(0x44c0000), %g2
     4b0:	00 06 28 00 	unimp  0x62800
     4b4:	03 0e 1c 0d 	sethi  %hi(0x38703400), %g1
     4b8:	00 00 07 16 	unimp  0x716
     4bc:	00 03 0e 3a 	unimp  0x30e3a
     4c0:	0b 3b 05 49 	sethi  %hi(0xec152400), %g5
     4c4:	13 00 00 08 	sethi  %hi(0x2000), %o1
     4c8:	17 01 0b 0b 	sethi  %hi(0x42c2c00), %o3
     4cc:	3a 0b 3b 05 	unknown
     4d0:	01 13 00 00 	sethi  %hi(0x4c000000), %g0
     4d4:	09 0d 00 03 	sethi  %hi(0x34000c00), %g4
     4d8:	08 3a 0b 3b 	unknown
     4dc:	05 49 13 00 	unknown
     4e0:	00 0a 01 01 	unimp  0xa0101
     4e4:	49 13 01 13 	call  244c0930 <_trap_table-0x1bb3f6d0>
     4e8:	00 00 0b 21 	unimp  0xb21
     4ec:	00 49 13 2f 	unknown
     4f0:	0b 00 00 0c 	sethi  %hi(0x3000), %g5
     4f4:	24 00 0b 0b 	unknown
     4f8:	3e 0b 00 00 	unknown
     4fc:	0d 13 01 0b 	sethi  %hi(0x4c042c00), %g6
     500:	0b 3a 0b 3b 	sethi  %hi(0xe82cec00), %g5
     504:	05 01 13 00 	sethi  %hi(0x44c0000), %g2
     508:	00 0e 0d 00 	unimp  0xe0d00
     50c:	03 0e 3a 0b 	sethi  %hi(0x38e82c00), %g1
     510:	3b 05 49 13 	sethi  %hi(0x15244c00), %i5
     514:	38 0a 00 00 	unknown
     518:	0f 0d 00 03 	sethi  %hi(0x34000c00), %g7
     51c:	0e 3a 0b 3b 	unknown
     520:	05 49 13 00 	unknown
     524:	00 10 2e 01 	unimp  0x102e01
     528:	03 0e 3a 0b 	sethi  %hi(0x38e82c00), %g1
     52c:	3b 0b 27 0c 	sethi  %hi(0x2c9c3000), %i5
     530:	49 13 20 0b 	call  244c855c <_trap_table-0x1bb37aa4>
     534:	01 13 00 00 	sethi  %hi(0x4c000000), %g0
     538:	11 05 00 03 	sethi  %hi(0x14000c00), %o0
     53c:	08 3a 0b 3b 	unknown
     540:	0b 49 13 00 	unknown
     544:	00 12 0f 00 	unimp  0x120f00
     548:	0b 0b 49 13 	sethi  %hi(0x2d244c00), %g5
     54c:	00 00 13 26 	unimp  0x1326
     550:	00 49 13 00 	unknown
     554:	00 14 2e 00 	unimp  0x142e00
     558:	03 0e 3a 0b 	sethi  %hi(0x38e82c00), %g1
     55c:	3b 0b 27 0c 	sethi  %hi(0x2c9c3000), %i5
     560:	49 13 20 0b 	call  244c858c <_trap_table-0x1bb37a74>
     564:	00 00 15 2e 	unimp  0x152e
     568:	01 03 0e 3a 	sethi  %hi(0xc38e800), %g0
     56c:	0b 3b 05 27 	sethi  %hi(0xec149c00), %g5
     570:	0c 49 13 20 	unknown
     574:	0b 01 13 00 	sethi  %hi(0x44c0000), %g5
     578:	00 16 05 00 	unimp  0x160500
     57c:	03 08 3a 0b 	sethi  %hi(0x20e82c00), %g1
     580:	3b 05 49 13 	sethi  %hi(0x15244c00), %i5
     584:	00 00 17 34 	unimp  0x1734
     588:	00 03 08 3a 	unimp  0x3083a
     58c:	0b 3b 05 49 	sethi  %hi(0xec152400), %g5
     590:	13 00 00 18 	sethi  %hi(0x6000), %o1
     594:	34 00 03 0e 	unknown
     598:	3a 0b 3b 05 	unknown
     59c:	49 13 00 00 	call  244c059c <_trap_table-0x1bb3fa64>
     5a0:	19 2e 01 3f 	sethi  %hi(0xb804fc00), %o4
     5a4:	0c 03 0e 3a 	unknown
     5a8:	0b 3b 05 27 	sethi  %hi(0xec149c00), %g5
     5ac:	0c 49 13 11 	unknown
     5b0:	01 12 01 40 	sethi  %hi(0x48050000), %g0
     5b4:	06 01 13 00 	unknown
     5b8:	00 1a 05 00 	unimp  0x1a0500
     5bc:	03 0e 3a 0b 	sethi  %hi(0x38e82c00), %g1
     5c0:	3b 05 49 13 	sethi  %hi(0x15244c00), %i5
     5c4:	02 06 00 00 	unknown
     5c8:	1b 05 00 03 	sethi  %hi(0x14000c00), %o5
     5cc:	0e 3a 0b 3b 	unknown
     5d0:	05 49 13 02 	unknown
     5d4:	0a 00 00 1c 	unknown
     5d8:	34 00 03 08 	unknown
     5dc:	3a 0b 3b 05 	unknown
     5e0:	49 13 02 0a 	call  244c0e08 <_trap_table-0x1bb3f1f8>
     5e4:	00 00 1d 34 	unimp  0x1d34
     5e8:	00 03 08 3a 	unimp  0x3083a
     5ec:	0b 3b 05 49 	sethi  %hi(0xec152400), %g5
     5f0:	13 02 06 00 	sethi  %hi(0x8180000), %o1
     5f4:	00 1e 1d 01 	unimp  0x1e1d01
     5f8:	31 13 52 01 	sethi  %hi(0x4d480400), %i0
     5fc:	55 06 58 0b 	call  54196628 <__end+0x14189ad0>
     600:	59 05 00 00 	call  64140600 <__end+0x24133aa8>
     604:	1f 05 00 31 	sethi  %hi(0x1400c400), %o7
     608:	13 00 00 20 	sethi  %hi(0x8000), %o1
     60c:	0b 01 55 06 	sethi  %hi(0x5541800), %g5
     610:	00 00 21 34 	unimp  0x2134
     614:	00 31 13 02 	unimp  0xfff11302
     618:	06 00 00 22 	unknown
     61c:	1d 01 31 13 	sethi  %hi(0x4c44c00), %sp
     620:	11 01 12 01 	sethi  %hi(0x4480400), %o0
     624:	58 0b 59 05 	call  602d6a38 <__end+0x202c9ee0>
     628:	00 00 23 34 	unimp  0x2334
     62c:	00 03 0e 3a 	unimp  0x30e3a
     630:	0b 3b 0b 49 	sethi  %hi(0xec2d2400), %g5
     634:	13 3f 0c 3c 	sethi  %hi(0xfc30f000), %o1
     638:	0c 00 00 00 	unknown
     63c:	01 11 01 25 	sethi  %hi(0x44049400), %g0
     640:	0e 13 0b 03 	unknown
     644:	0e 1b 0e 11 	unknown
     648:	01 12 01 10 	sethi  %hi(0x48044000), %g0
     64c:	06 00 00 02 	unknown
     650:	24 00 0b 0b 	unknown
     654:	3e 0b 03 08 	unknown
     658:	00 00 03 24 	unimp  0x324
     65c:	00 0b 0b 3e 	unimp  0xb0b3e
     660:	0b 03 0e 00 	sethi  %hi(0xc380000), %g5
     664:	00 04 16 00 	unimp  0x41600
     668:	03 0e 3a 0b 	sethi  %hi(0x38e82c00), %g1
     66c:	3b 0b 49 13 	sethi  %hi(0x2d244c00), %i5
     670:	00 00 05 04 	unimp  0x504
     674:	01 0b 0b 3a 	sethi  %hi(0x2c2ce800), %g0
     678:	0b 3b 05 01 	sethi  %hi(0xec140400), %g5
     67c:	13 00 00 06 	sethi  %hi(0x1800), %o1
     680:	28 00 03 0e 	unknown
     684:	1c 0d 00 00 	unknown
     688:	07 16 00 03 	sethi  %hi(0x58000c00), %g3
     68c:	0e 3a 0b 3b 	unknown
     690:	05 49 13 00 	unknown
     694:	00 08 17 01 	unimp  0x81701
     698:	0b 0b 3a 0b 	sethi  %hi(0x2ce82c00), %g5
     69c:	3b 05 01 13 	sethi  %hi(0x14044c00), %i5
     6a0:	00 00 09 0d 	unimp  0x90d
     6a4:	00 03 08 3a 	unimp  0x3083a
     6a8:	0b 3b 05 49 	sethi  %hi(0xec152400), %g5
     6ac:	13 00 00 0a 	sethi  %hi(0x2800), %o1
     6b0:	01 01 49 13 	sethi  %hi(0x5244c00), %g0
     6b4:	01 13 00 00 	sethi  %hi(0x4c000000), %g0
     6b8:	0b 21 00 49 	sethi  %hi(0x84012400), %g5
     6bc:	13 2f 0b 00 	sethi  %hi(0xbc2c0000), %o1
     6c0:	00 0c 24 00 	unimp  0xc2400
     6c4:	0b 0b 3e 0b 	sethi  %hi(0x2cf82c00), %g5
     6c8:	00 00 0d 13 	unimp  0xd13
     6cc:	01 0b 0b 3a 	sethi  %hi(0x2c2ce800), %g0
     6d0:	0b 3b 05 01 	sethi  %hi(0xec140400), %g5
     6d4:	13 00 00 0e 	sethi  %hi(0x3800), %o1
     6d8:	0d 00 03 0e 	sethi  %hi(0xc3800), %g6
     6dc:	3a 0b 3b 05 	unknown
     6e0:	49 13 38 0a 	call  244ce708 <_trap_table-0x1bb318f8>
     6e4:	00 00 0f 0d 	unimp  0xf0d
     6e8:	00 03 0e 3a 	unimp  0x30e3a
     6ec:	0b 3b 05 49 	sethi  %hi(0xec152400), %g5
     6f0:	13 00 00 10 	sethi  %hi(0x4000), %o1
     6f4:	2e 01 03 0e 	unknown
     6f8:	3a 0b 3b 0b 	unknown
     6fc:	27 0c 49 13 	sethi  %hi(0x31244c00), %l3
     700:	20 0b 01 13 	unknown
     704:	00 00 11 05 	unimp  0x1105
     708:	00 03 08 3a 	unimp  0x3083a
     70c:	0b 3b 0b 49 	sethi  %hi(0xec2d2400), %g5
     710:	13 00 00 12 	sethi  %hi(0x4800), %o1
     714:	0f 00 0b 0b 	sethi  %hi(0x2c2c00), %g7
     718:	49 13 00 00 	call  244c0718 <_trap_table-0x1bb3f8e8>
     71c:	13 26 00 49 	sethi  %hi(0x98012400), %o1
     720:	13 00 00 14 	sethi  %hi(0x5000), %o1
     724:	2e 01 3f 0c 	unknown
     728:	03 0e 3a 0b 	sethi  %hi(0x38e82c00), %g1
     72c:	3b 05 27 0c 	sethi  %hi(0x149c3000), %i5
     730:	49 13 11 01 	call  244c4b34 <_trap_table-0x1bb3b4cc>
     734:	12 01 40 06 	unknown
     738:	01 13 00 00 	sethi  %hi(0x4c000000), %g0
     73c:	15 05 00 03 	sethi  %hi(0x14000c00), %o2
     740:	0e 3a 0b 3b 	unknown
     744:	05 49 13 02 	unknown
     748:	06 00 00 16 	unknown
     74c:	05 00 03 0e 	sethi  %hi(0xc3800), %g2
     750:	3a 0b 3b 05 	unknown
     754:	49 13 02 0a 	call  244c0f7c <_trap_table-0x1bb3f084>
     758:	00 00 17 34 	unimp  0x1734
     75c:	00 03 08 3a 	unimp  0x3083a
     760:	0b 3b 05 49 	sethi  %hi(0xec152400), %g5
     764:	13 02 0a 00 	sethi  %hi(0x8280000), %o1
     768:	00 18 34 00 	unimp  0x183400
     76c:	03 0e 3a 0b 	sethi  %hi(0x38e82c00), %g1
     770:	3b 0b 49 13 	sethi  %hi(0x2d244c00), %i5
     774:	3f 0c 3c 0c 	sethi  %hi(0x30f03000), %i7
     778:	00 00 00 01 	unimp  0x1
     77c:	11 01 25 0e 	sethi  %hi(0x4943800), %o0
     780:	13 0b 03 0e 	sethi  %hi(0x2c0c3800), %o1
     784:	1b 0e 11 01 	sethi  %hi(0x38440400), %o5
     788:	12 01 10 06 	unknown
     78c:	00 00 02 24 	unimp  0x224
     790:	00 0b 0b 3e 	unimp  0xb0b3e
     794:	0b 03 08 00 	sethi  %hi(0xc200000), %g5
     798:	00 03 24 00 	unimp  0x32400
     79c:	0b 0b 3e 0b 	sethi  %hi(0x2cf82c00), %g5
     7a0:	03 0e 00 00 	sethi  %hi(0x38000000), %g1
     7a4:	04 16 00 03 	unknown
     7a8:	0e 3a 0b 3b 	unknown
     7ac:	0b 49 13 00 	unknown
     7b0:	00 05 04 01 	unimp  0x50401
     7b4:	0b 0b 3a 0b 	sethi  %hi(0x2ce82c00), %g5
     7b8:	3b 05 01 13 	sethi  %hi(0x14044c00), %i5
     7bc:	00 00 06 28 	unimp  0x628
     7c0:	00 03 0e 1c 	unimp  0x30e1c
     7c4:	0d 00 00 07 	sethi  %hi(0x1c00), %g6
     7c8:	16 00 03 0e 	unknown
     7cc:	3a 0b 3b 05 	unknown
     7d0:	49 13 00 00 	call  244c07d0 <_trap_table-0x1bb3f830>
     7d4:	08 17 01 0b 	unknown
     7d8:	0b 3a 0b 3b 	sethi  %hi(0xe82cec00), %g5
     7dc:	05 01 13 00 	sethi  %hi(0x44c0000), %g2
     7e0:	00 09 0d 00 	unimp  0x90d00
     7e4:	03 08 3a 0b 	sethi  %hi(0x20e82c00), %g1
     7e8:	3b 05 49 13 	sethi  %hi(0x15244c00), %i5
     7ec:	00 00 0a 01 	unimp  0xa01
     7f0:	01 49 13 01 	unknown
     7f4:	13 00 00 0b 	sethi  %hi(0x2c00), %o1
     7f8:	21 00 49 13 	sethi  %hi(0x1244c00), %l0
     7fc:	2f 0b 00 00 	sethi  %hi(0x2c000000), %l7
     800:	0c 24 00 0b 	unknown
     804:	0b 3e 0b 00 	sethi  %hi(0xf82c0000), %g5
     808:	00 0d 13 01 	unimp  0xd1301
     80c:	0b 0b 3a 0b 	sethi  %hi(0x2ce82c00), %g5
     810:	3b 05 01 13 	sethi  %hi(0x14044c00), %i5
     814:	00 00 0e 0d 	unimp  0xe0d
     818:	00 03 0e 3a 	unimp  0x30e3a
     81c:	0b 3b 05 49 	sethi  %hi(0xec152400), %g5
     820:	13 38 0a 00 	sethi  %hi(0xe0280000), %o1
     824:	00 0f 0d 00 	unimp  0xf0d00
     828:	03 0e 3a 0b 	sethi  %hi(0x38e82c00), %g1
     82c:	3b 05 49 13 	sethi  %hi(0x15244c00), %i5
     830:	00 00 10 2e 	unimp  0x102e
     834:	01 03 0e 3a 	sethi  %hi(0xc38e800), %g0
     838:	0b 3b 0b 27 	sethi  %hi(0xec2c9c00), %g5
     83c:	0c 49 13 20 	unknown
     840:	0b 01 13 00 	sethi  %hi(0x44c0000), %g5
     844:	00 11 05 00 	unimp  0x110500
     848:	03 08 3a 0b 	sethi  %hi(0x20e82c00), %g1
     84c:	3b 0b 49 13 	sethi  %hi(0x2d244c00), %i5
     850:	00 00 12 0f 	unimp  0x120f
     854:	00 0b 0b 49 	unimp  0xb0b49
     858:	13 00 00 13 	sethi  %hi(0x4c00), %o1
     85c:	26 00 49 13 	unknown
     860:	00 00 14 2e 	unimp  0x142e
     864:	01 3f 0c 03 	sethi  %hi(0xfc300c00), %g0
     868:	0e 3a 0b 3b 	unknown
     86c:	05 27 0c 49 	sethi  %hi(0x9c312400), %g2
     870:	13 11 01 12 	sethi  %hi(0x44044800), %o1
     874:	01 40 06 01 	unknown
     878:	13 00 00 15 	sethi  %hi(0x5400), %o1
     87c:	05 00 03 0e 	sethi  %hi(0xc3800), %g2
     880:	3a 0b 3b 05 	unknown
     884:	49 13 02 06 	call  244c109c <_trap_table-0x1bb3ef64>
     888:	00 00 16 05 	unimp  0x1605
     88c:	00 03 0e 3a 	unimp  0x30e3a
     890:	0b 3b 05 49 	sethi  %hi(0xec152400), %g5
     894:	13 02 0a 00 	sethi  %hi(0x8280000), %o1
     898:	00 17 34 00 	unimp  0x173400
     89c:	03 08 3a 0b 	sethi  %hi(0x20e82c00), %g1
     8a0:	3b 05 49 13 	sethi  %hi(0x15244c00), %i5
     8a4:	02 0a 00 00 	unknown
     8a8:	18 34 00 03 	unknown
     8ac:	0e 3a 0b 3b 	unknown
     8b0:	0b 49 13 3f 	unknown
     8b4:	0c 3c 0c 00 	unknown
     8b8:	00 00 01 11 	unimp  0x111
     8bc:	01 25 0e 13 	sethi  %hi(0x94384c00), %g0
     8c0:	0b 03 0e 1b 	sethi  %hi(0xc386c00), %g5
     8c4:	0e 11 01 12 	unknown
     8c8:	01 10 06 00 	sethi  %hi(0x40180000), %g0
     8cc:	00 02 24 00 	unimp  0x22400
     8d0:	0b 0b 3e 0b 	sethi  %hi(0x2cf82c00), %g5
     8d4:	03 08 00 00 	sethi  %hi(0x20000000), %g1
     8d8:	03 24 00 0b 	sethi  %hi(0x90002c00), %g1
     8dc:	0b 3e 0b 03 	sethi  %hi(0xf82c0c00), %g5
     8e0:	0e 00 00 04 	unknown
     8e4:	16 00 03 0e 	unknown
     8e8:	3a 0b 3b 0b 	unknown
     8ec:	49 13 00 00 	call  244c08ec <_trap_table-0x1bb3f714>
     8f0:	05 04 01 0b 	sethi  %hi(0x10042c00), %g2
     8f4:	0b 3a 0b 3b 	sethi  %hi(0xe82cec00), %g5
     8f8:	05 01 13 00 	sethi  %hi(0x44c0000), %g2
     8fc:	00 06 28 00 	unimp  0x62800
     900:	03 0e 1c 0d 	sethi  %hi(0x38703400), %g1
     904:	00 00 07 16 	unimp  0x716
     908:	00 03 0e 3a 	unimp  0x30e3a
     90c:	0b 3b 05 49 	sethi  %hi(0xec152400), %g5
     910:	13 00 00 08 	sethi  %hi(0x2000), %o1
     914:	17 01 0b 0b 	sethi  %hi(0x42c2c00), %o3
     918:	3a 0b 3b 05 	unknown
     91c:	01 13 00 00 	sethi  %hi(0x4c000000), %g0
     920:	09 0d 00 03 	sethi  %hi(0x34000c00), %g4
     924:	08 3a 0b 3b 	unknown
     928:	05 49 13 00 	unknown
     92c:	00 0a 01 01 	unimp  0xa0101
     930:	49 13 01 13 	call  244c0d7c <_trap_table-0x1bb3f284>
     934:	00 00 0b 21 	unimp  0xb21
     938:	00 49 13 2f 	unknown
     93c:	0b 00 00 0c 	sethi  %hi(0x3000), %g5
     940:	24 00 0b 0b 	unknown
     944:	3e 0b 00 00 	unknown
     948:	0d 13 01 0b 	sethi  %hi(0x4c042c00), %g6
     94c:	0b 3a 0b 3b 	sethi  %hi(0xe82cec00), %g5
     950:	05 01 13 00 	sethi  %hi(0x44c0000), %g2
     954:	00 0e 0d 00 	unimp  0xe0d00
     958:	03 0e 3a 0b 	sethi  %hi(0x38e82c00), %g1
     95c:	3b 05 49 13 	sethi  %hi(0x15244c00), %i5
     960:	38 0a 00 00 	unknown
     964:	0f 0d 00 03 	sethi  %hi(0x34000c00), %g7
     968:	0e 3a 0b 3b 	unknown
     96c:	05 49 13 00 	unknown
     970:	00 10 2e 01 	unimp  0x102e01
     974:	03 0e 3a 0b 	sethi  %hi(0x38e82c00), %g1
     978:	3b 0b 27 0c 	sethi  %hi(0x2c9c3000), %i5
     97c:	49 13 20 0b 	call  244c89a8 <_trap_table-0x1bb37658>
     980:	01 13 00 00 	sethi  %hi(0x4c000000), %g0
     984:	11 05 00 03 	sethi  %hi(0x14000c00), %o0
     988:	08 3a 0b 3b 	unknown
     98c:	0b 49 13 00 	unknown
     990:	00 12 0f 00 	unimp  0x120f00
     994:	0b 0b 49 13 	sethi  %hi(0x2d244c00), %g5
     998:	00 00 13 26 	unimp  0x1326
     99c:	00 49 13 00 	unknown
     9a0:	00 14 2e 01 	unimp  0x142e01
     9a4:	3f 0c 03 0e 	sethi  %hi(0x300c3800), %i7
     9a8:	3a 0b 3b 05 	unknown
     9ac:	27 0c 49 13 	sethi  %hi(0x31244c00), %l3
     9b0:	11 01 12 01 	sethi  %hi(0x4480400), %o0
     9b4:	40 06 01 13 	call  180e00 <_trap_table-0x3fe7f200>
     9b8:	00 00 15 05 	unimp  0x1505
     9bc:	00 03 0e 3a 	unimp  0x30e3a
     9c0:	0b 3b 05 49 	sethi  %hi(0xec152400), %g5
     9c4:	13 02 06 00 	sethi  %hi(0x8180000), %o1
     9c8:	00 16 05 00 	unimp  0x160500
     9cc:	03 0e 3a 0b 	sethi  %hi(0x38e82c00), %g1
     9d0:	3b 05 49 13 	sethi  %hi(0x15244c00), %i5
     9d4:	02 0a 00 00 	unknown
     9d8:	17 34 00 03 	sethi  %hi(0xd0000c00), %o3
     9dc:	08 3a 0b 3b 	unknown
     9e0:	05 49 13 02 	unknown
     9e4:	0a 00 00 18 	unknown
     9e8:	34 00 03 0e 	unknown
     9ec:	3a 0b 3b 0b 	unknown
     9f0:	49 13 3f 0c 	call  244d0620 <_trap_table-0x1bb2f9e0>
     9f4:	3c 0c 00 00 	unknown
     9f8:	00 01 11 01 	unimp  0x11101
     9fc:	25 0e 13 0b 	sethi  %hi(0x384c2c00), %l2
     a00:	03 0e 1b 0e 	sethi  %hi(0x386c3800), %g1
     a04:	11 01 12 01 	sethi  %hi(0x4480400), %o0
     a08:	10 06 00 00 	unknown
     a0c:	02 24 00 0b 	unknown
     a10:	0b 3e 0b 03 	sethi  %hi(0xf82c0c00), %g5
     a14:	08 00 00 03 	unknown
     a18:	24 00 0b 0b 	unknown
     a1c:	3e 0b 03 0e 	unknown
     a20:	00 00 04 16 	unimp  0x416
     a24:	00 03 0e 3a 	unimp  0x30e3a
     a28:	0b 3b 0b 49 	sethi  %hi(0xec2d2400), %g5
     a2c:	13 00 00 05 	sethi  %hi(0x1400), %o1
     a30:	04 01 0b 0b 	unknown
     a34:	3a 0b 3b 05 	unknown
     a38:	01 13 00 00 	sethi  %hi(0x4c000000), %g0
     a3c:	06 28 00 03 	unknown
     a40:	0e 1c 0d 00 	unknown
     a44:	00 07 16 00 	unimp  0x71600
     a48:	03 0e 3a 0b 	sethi  %hi(0x38e82c00), %g1
     a4c:	3b 05 49 13 	sethi  %hi(0x15244c00), %i5
     a50:	00 00 08 17 	unimp  0x817
     a54:	01 0b 0b 3a 	sethi  %hi(0x2c2ce800), %g0
     a58:	0b 3b 05 01 	sethi  %hi(0xec140400), %g5
     a5c:	13 00 00 09 	sethi  %hi(0x2400), %o1
     a60:	0d 00 03 08 	sethi  %hi(0xc2000), %g6
     a64:	3a 0b 3b 05 	unknown
     a68:	49 13 00 00 	call  244c0a68 <_trap_table-0x1bb3f598>
     a6c:	0a 01 01 49 	unknown
     a70:	13 01 13 00 	sethi  %hi(0x44c0000), %o1
     a74:	00 0b 21 00 	unimp  0xb2100
     a78:	49 13 2f 0b 	call  244cc6a4 <_trap_table-0x1bb3395c>
     a7c:	00 00 0c 24 	unimp  0xc24
     a80:	00 0b 0b 3e 	unimp  0xb0b3e
     a84:	0b 00 00 0d 	sethi  %hi(0x3400), %g5
     a88:	13 01 0b 0b 	sethi  %hi(0x42c2c00), %o1
     a8c:	3a 0b 3b 05 	unknown
     a90:	01 13 00 00 	sethi  %hi(0x4c000000), %g0
     a94:	0e 0d 00 03 	unknown
     a98:	0e 3a 0b 3b 	unknown
     a9c:	05 49 13 38 	unknown
     aa0:	0a 00 00 0f 	unknown
     aa4:	0d 00 03 0e 	sethi  %hi(0xc3800), %g6
     aa8:	3a 0b 3b 05 	unknown
     aac:	49 13 00 00 	call  244c0aac <_trap_table-0x1bb3f554>
     ab0:	10 2e 01 03 	unknown
     ab4:	0e 3a 0b 3b 	unknown
     ab8:	0b 27 0c 49 	sethi  %hi(0x9c312400), %g5
     abc:	13 20 0b 01 	sethi  %hi(0x802c0400), %o1
     ac0:	13 00 00 11 	sethi  %hi(0x4400), %o1
     ac4:	05 00 03 08 	sethi  %hi(0xc2000), %g2
     ac8:	3a 0b 3b 0b 	unknown
     acc:	49 13 00 00 	call  244c0acc <_trap_table-0x1bb3f534>
     ad0:	12 0f 00 0b 	unknown
     ad4:	0b 49 13 00 	unknown
     ad8:	00 13 26 00 	unimp  0x132600
     adc:	49 13 00 00 	call  244c0adc <_trap_table-0x1bb3f524>
     ae0:	14 2e 01 3f 	unknown
     ae4:	0c 03 0e 3a 	unknown
     ae8:	0b 3b 05 27 	sethi  %hi(0xec149c00), %g5
     aec:	0c 49 13 11 	unknown
     af0:	01 12 01 40 	sethi  %hi(0x48050000), %g0
     af4:	06 01 13 00 	unknown
     af8:	00 15 05 00 	unimp  0x150500
     afc:	03 0e 3a 0b 	sethi  %hi(0x38e82c00), %g1
     b00:	3b 05 49 13 	sethi  %hi(0x15244c00), %i5
     b04:	02 06 00 00 	unknown
     b08:	16 05 00 03 	unknown
     b0c:	0e 3a 0b 3b 	unknown
     b10:	05 49 13 02 	unknown
     b14:	0a 00 00 17 	unknown
     b18:	34 00 03 08 	unknown
     b1c:	3a 0b 3b 05 	unknown
     b20:	49 13 02 0a 	call  244c1348 <_trap_table-0x1bb3ecb8>
     b24:	00 00 18 34 	unimp  0x1834
     b28:	00 03 0e 3a 	unimp  0x30e3a
     b2c:	0b 3b 0b 49 	sethi  %hi(0xec2d2400), %g5
     b30:	13 3f 0c 3c 	sethi  %hi(0xfc30f000), %o1
     b34:	0c 00 00 00 	unknown
     b38:	01 11 01 25 	sethi  %hi(0x44049400), %g0
     b3c:	0e 13 0b 03 	unknown
     b40:	0e 1b 0e 11 	unknown
     b44:	01 12 01 10 	sethi  %hi(0x48044000), %g0
     b48:	06 00 00 02 	unknown
     b4c:	24 00 0b 0b 	unknown
     b50:	3e 0b 03 08 	unknown
     b54:	00 00 03 24 	unimp  0x324
     b58:	00 0b 0b 3e 	unimp  0xb0b3e
     b5c:	0b 03 0e 00 	sethi  %hi(0xc380000), %g5
     b60:	00 04 16 00 	unimp  0x41600
     b64:	03 0e 3a 0b 	sethi  %hi(0x38e82c00), %g1
     b68:	3b 0b 49 13 	sethi  %hi(0x2d244c00), %i5
     b6c:	00 00 05 04 	unimp  0x504
     b70:	01 0b 0b 3a 	sethi  %hi(0x2c2ce800), %g0
     b74:	0b 3b 05 01 	sethi  %hi(0xec140400), %g5
     b78:	13 00 00 06 	sethi  %hi(0x1800), %o1
     b7c:	28 00 03 0e 	unknown
     b80:	1c 0d 00 00 	unknown
     b84:	07 16 00 03 	sethi  %hi(0x58000c00), %g3
     b88:	0e 3a 0b 3b 	unknown
     b8c:	05 49 13 00 	unknown
     b90:	00 08 17 01 	unimp  0x81701
     b94:	0b 0b 3a 0b 	sethi  %hi(0x2ce82c00), %g5
     b98:	3b 05 01 13 	sethi  %hi(0x14044c00), %i5
     b9c:	00 00 09 0d 	unimp  0x90d
     ba0:	00 03 08 3a 	unimp  0x3083a
     ba4:	0b 3b 05 49 	sethi  %hi(0xec152400), %g5
     ba8:	13 00 00 0a 	sethi  %hi(0x2800), %o1
     bac:	01 01 49 13 	sethi  %hi(0x5244c00), %g0
     bb0:	01 13 00 00 	sethi  %hi(0x4c000000), %g0
     bb4:	0b 21 00 49 	sethi  %hi(0x84012400), %g5
     bb8:	13 2f 0b 00 	sethi  %hi(0xbc2c0000), %o1
     bbc:	00 0c 24 00 	unimp  0xc2400
     bc0:	0b 0b 3e 0b 	sethi  %hi(0x2cf82c00), %g5
     bc4:	00 00 0d 13 	unimp  0xd13
     bc8:	01 0b 0b 3a 	sethi  %hi(0x2c2ce800), %g0
     bcc:	0b 3b 05 01 	sethi  %hi(0xec140400), %g5
     bd0:	13 00 00 0e 	sethi  %hi(0x3800), %o1
     bd4:	0d 00 03 0e 	sethi  %hi(0xc3800), %g6
     bd8:	3a 0b 3b 05 	unknown
     bdc:	49 13 38 0a 	call  244cec04 <_trap_table-0x1bb313fc>
     be0:	00 00 0f 0d 	unimp  0xf0d
     be4:	00 03 0e 3a 	unimp  0x30e3a
     be8:	0b 3b 05 49 	sethi  %hi(0xec152400), %g5
     bec:	13 00 00 10 	sethi  %hi(0x4000), %o1
     bf0:	2e 01 03 0e 	unknown
     bf4:	3a 0b 3b 0b 	unknown
     bf8:	27 0c 49 13 	sethi  %hi(0x31244c00), %l3
     bfc:	20 0b 01 13 	unknown
     c00:	00 00 11 05 	unimp  0x1105
     c04:	00 03 08 3a 	unimp  0x3083a
     c08:	0b 3b 0b 49 	sethi  %hi(0xec2d2400), %g5
     c0c:	13 00 00 12 	sethi  %hi(0x4800), %o1
     c10:	0f 00 0b 0b 	sethi  %hi(0x2c2c00), %g7
     c14:	49 13 00 00 	call  244c0c14 <_trap_table-0x1bb3f3ec>
     c18:	13 26 00 49 	sethi  %hi(0x98012400), %o1
     c1c:	13 00 00 14 	sethi  %hi(0x5000), %o1
     c20:	2e 01 3f 0c 	unknown
     c24:	03 0e 3a 0b 	sethi  %hi(0x38e82c00), %g1
     c28:	3b 05 27 0c 	sethi  %hi(0x149c3000), %i5
     c2c:	49 13 11 01 	call  244c5030 <_trap_table-0x1bb3afd0>
     c30:	12 01 40 06 	unknown
     c34:	01 13 00 00 	sethi  %hi(0x4c000000), %g0
     c38:	15 05 00 03 	sethi  %hi(0x14000c00), %o2
     c3c:	0e 3a 0b 3b 	unknown
     c40:	05 49 13 02 	unknown
     c44:	06 00 00 16 	unknown
     c48:	05 00 03 0e 	sethi  %hi(0xc3800), %g2
     c4c:	3a 0b 3b 05 	unknown
     c50:	49 13 02 0a 	call  244c1478 <_trap_table-0x1bb3eb88>
     c54:	00 00 17 34 	unimp  0x1734
     c58:	00 03 08 3a 	unimp  0x3083a
     c5c:	0b 3b 05 49 	sethi  %hi(0xec152400), %g5
     c60:	13 02 0a 00 	sethi  %hi(0x8280000), %o1
     c64:	00 18 34 00 	unimp  0x183400
     c68:	03 0e 3a 0b 	sethi  %hi(0x38e82c00), %g1
     c6c:	3b 0b 49 13 	sethi  %hi(0x2d244c00), %i5
     c70:	3f 0c 3c 0c 	sethi  %hi(0x30f03000), %i7
     c74:	00 00 00 01 	unimp  0x1
     c78:	11 01 25 0e 	sethi  %hi(0x4943800), %o0
     c7c:	13 0b 03 0e 	sethi  %hi(0x2c0c3800), %o1
     c80:	1b 0e 11 01 	sethi  %hi(0x38440400), %o5
     c84:	12 01 10 06 	unknown
     c88:	00 00 02 24 	unimp  0x224
     c8c:	00 0b 0b 3e 	unimp  0xb0b3e
     c90:	0b 03 08 00 	sethi  %hi(0xc200000), %g5
     c94:	00 03 24 00 	unimp  0x32400
     c98:	0b 0b 3e 0b 	sethi  %hi(0x2cf82c00), %g5
     c9c:	03 0e 00 00 	sethi  %hi(0x38000000), %g1
     ca0:	04 16 00 03 	unknown
     ca4:	0e 3a 0b 3b 	unknown
     ca8:	0b 49 13 00 	unknown
     cac:	00 05 04 01 	unimp  0x50401
     cb0:	0b 0b 3a 0b 	sethi  %hi(0x2ce82c00), %g5
     cb4:	3b 05 01 13 	sethi  %hi(0x14044c00), %i5
     cb8:	00 00 06 28 	unimp  0x628
     cbc:	00 03 0e 1c 	unimp  0x30e1c
     cc0:	0d 00 00 07 	sethi  %hi(0x1c00), %g6
     cc4:	16 00 03 0e 	unknown
     cc8:	3a 0b 3b 05 	unknown
     ccc:	49 13 00 00 	call  244c0ccc <_trap_table-0x1bb3f334>
     cd0:	08 17 01 0b 	unknown
     cd4:	0b 3a 0b 3b 	sethi  %hi(0xe82cec00), %g5
     cd8:	05 01 13 00 	sethi  %hi(0x44c0000), %g2
     cdc:	00 09 0d 00 	unimp  0x90d00
     ce0:	03 08 3a 0b 	sethi  %hi(0x20e82c00), %g1
     ce4:	3b 05 49 13 	sethi  %hi(0x15244c00), %i5
     ce8:	00 00 0a 01 	unimp  0xa01
     cec:	01 49 13 01 	unknown
     cf0:	13 00 00 0b 	sethi  %hi(0x2c00), %o1
     cf4:	21 00 49 13 	sethi  %hi(0x1244c00), %l0
     cf8:	2f 0b 00 00 	sethi  %hi(0x2c000000), %l7
     cfc:	0c 24 00 0b 	unknown
     d00:	0b 3e 0b 00 	sethi  %hi(0xf82c0000), %g5
     d04:	00 0d 13 01 	unimp  0xd1301
     d08:	0b 0b 3a 0b 	sethi  %hi(0x2ce82c00), %g5
     d0c:	3b 05 01 13 	sethi  %hi(0x14044c00), %i5
     d10:	00 00 0e 0d 	unimp  0xe0d
     d14:	00 03 0e 3a 	unimp  0x30e3a
     d18:	0b 3b 05 49 	sethi  %hi(0xec152400), %g5
     d1c:	13 38 0a 00 	sethi  %hi(0xe0280000), %o1
     d20:	00 0f 2e 01 	unimp  0xf2e01
     d24:	03 0e 3a 0b 	sethi  %hi(0x38e82c00), %g1
     d28:	3b 0b 27 0c 	sethi  %hi(0x2c9c3000), %i5
     d2c:	49 13 20 0b 	call  244c8d58 <_trap_table-0x1bb372a8>
     d30:	01 13 00 00 	sethi  %hi(0x4c000000), %g0
     d34:	10 05 00 03 	unknown
     d38:	08 3a 0b 3b 	unknown
     d3c:	0b 49 13 00 	unknown
     d40:	00 11 2e 01 	unimp  0x112e01
     d44:	3f 0c 03 0e 	sethi  %hi(0x300c3800), %i7
     d48:	3a 0b 3b 05 	unknown
     d4c:	27 0c 49 13 	sethi  %hi(0x31244c00), %l3
     d50:	11 01 12 01 	sethi  %hi(0x4480400), %o0
     d54:	40 06 01 13 	call  1811a0 <_trap_table-0x3fe7ee60>
     d58:	00 00 12 05 	unimp  0x1205
     d5c:	00 03 0e 3a 	unimp  0x30e3a
     d60:	0b 3b 05 49 	sethi  %hi(0xec152400), %g5
     d64:	13 02 06 00 	sethi  %hi(0x8180000), %o1
     d68:	00 13 34 00 	unimp  0x133400
     d6c:	03 08 3a 0b 	sethi  %hi(0x20e82c00), %g1
     d70:	3b 05 49 13 	sethi  %hi(0x15244c00), %i5
     d74:	02 0a 00 00 	unknown
     d78:	14 0b 01 55 	unknown
     d7c:	06 00 00 15 	unknown
     d80:	34 00 03 0e 	unknown
     d84:	3a 0b 3b 05 	unknown
     d88:	49 13 02 06 	call  244c15a0 <_trap_table-0x1bb3ea60>
     d8c:	00 00 16 1d 	unimp  0x161d
     d90:	01 31 13 11 	sethi  %hi(0xc44c4400), %g0
     d94:	01 12 01 58 	sethi  %hi(0x48056000), %g0
     d98:	0b 59 05 00 	unknown
     d9c:	00 17 05 00 	unimp  0x170500
     da0:	31 13 00 00 	sethi  %hi(0x4c000000), %i0
     da4:	18 34 00 03 	unknown
     da8:	0e 3a 0b 3b 	unknown
     dac:	0b 49 13 3f 	unknown
     db0:	0c 3c 0c 00 	unknown
     db4:	00 19 26 00 	unimp  0x192600
     db8:	49 13 00 00 	call  244c0db8 <_trap_table-0x1bb3f248>
     dbc:	00 01 11 01 	unimp  0x11101
     dc0:	25 0e 13 0b 	sethi  %hi(0x384c2c00), %l2
     dc4:	03 0e 1b 0e 	sethi  %hi(0x386c3800), %g1
     dc8:	11 01 12 01 	sethi  %hi(0x4480400), %o0
     dcc:	10 06 00 00 	unknown
     dd0:	02 24 00 0b 	unknown
     dd4:	0b 3e 0b 03 	sethi  %hi(0xf82c0c00), %g5
     dd8:	08 00 00 03 	unknown
     ddc:	24 00 0b 0b 	unknown
     de0:	3e 0b 03 0e 	unknown
     de4:	00 00 04 16 	unimp  0x416
     de8:	00 03 0e 3a 	unimp  0x30e3a
     dec:	0b 3b 0b 49 	sethi  %hi(0xec2d2400), %g5
     df0:	13 00 00 05 	sethi  %hi(0x1400), %o1
     df4:	04 01 0b 0b 	unknown
     df8:	3a 0b 3b 05 	unknown
     dfc:	01 13 00 00 	sethi  %hi(0x4c000000), %g0
     e00:	06 28 00 03 	unknown
     e04:	0e 1c 0d 00 	unknown
     e08:	00 07 16 00 	unimp  0x71600
     e0c:	03 0e 3a 0b 	sethi  %hi(0x38e82c00), %g1
     e10:	3b 05 49 13 	sethi  %hi(0x15244c00), %i5
     e14:	00 00 08 17 	unimp  0x817
     e18:	01 0b 0b 3a 	sethi  %hi(0x2c2ce800), %g0
     e1c:	0b 3b 05 01 	sethi  %hi(0xec140400), %g5
     e20:	13 00 00 09 	sethi  %hi(0x2400), %o1
     e24:	0d 00 03 08 	sethi  %hi(0xc2000), %g6
     e28:	3a 0b 3b 05 	unknown
     e2c:	49 13 00 00 	call  244c0e2c <_trap_table-0x1bb3f1d4>
     e30:	0a 01 01 49 	unknown
     e34:	13 01 13 00 	sethi  %hi(0x44c0000), %o1
     e38:	00 0b 21 00 	unimp  0xb2100
     e3c:	49 13 2f 0b 	call  244cca68 <_trap_table-0x1bb33598>
     e40:	00 00 0c 24 	unimp  0xc24
     e44:	00 0b 0b 3e 	unimp  0xb0b3e
     e48:	0b 00 00 0d 	sethi  %hi(0x3400), %g5
     e4c:	13 01 0b 0b 	sethi  %hi(0x42c2c00), %o1
     e50:	3a 0b 3b 05 	unknown
     e54:	01 13 00 00 	sethi  %hi(0x4c000000), %g0
     e58:	0e 0d 00 03 	unknown
     e5c:	0e 3a 0b 3b 	unknown
     e60:	05 49 13 38 	unknown
     e64:	0a 00 00 0f 	unknown
     e68:	0d 00 03 0e 	sethi  %hi(0xc3800), %g6
     e6c:	3a 0b 3b 05 	unknown
     e70:	49 13 00 00 	call  244c0e70 <_trap_table-0x1bb3f190>
     e74:	10 2e 01 03 	unknown
     e78:	0e 3a 0b 3b 	unknown
     e7c:	0b 27 0c 49 	sethi  %hi(0x9c312400), %g5
     e80:	13 20 0b 01 	sethi  %hi(0x802c0400), %o1
     e84:	13 00 00 11 	sethi  %hi(0x4400), %o1
     e88:	05 00 03 08 	sethi  %hi(0xc2000), %g2
     e8c:	3a 0b 3b 0b 	unknown
     e90:	49 13 00 00 	call  244c0e90 <_trap_table-0x1bb3f170>
     e94:	12 0f 00 0b 	unknown
     e98:	0b 49 13 00 	unknown
     e9c:	00 13 26 00 	unimp  0x132600
     ea0:	49 13 00 00 	call  244c0ea0 <_trap_table-0x1bb3f160>
     ea4:	14 2e 01 3f 	unknown
     ea8:	0c 03 0e 3a 	unknown
     eac:	0b 3b 05 27 	sethi  %hi(0xec149c00), %g5
     eb0:	0c 49 13 11 	unknown
     eb4:	01 12 01 40 	sethi  %hi(0x48050000), %g0
     eb8:	06 01 13 00 	unknown
     ebc:	00 15 05 00 	unimp  0x150500
     ec0:	03 0e 3a 0b 	sethi  %hi(0x38e82c00), %g1
     ec4:	3b 05 49 13 	sethi  %hi(0x15244c00), %i5
     ec8:	02 06 00 00 	unknown
     ecc:	16 34 00 03 	unknown
     ed0:	08 3a 0b 3b 	unknown
     ed4:	05 49 13 02 	unknown
     ed8:	0a 00 00 17 	unknown
     edc:	34 00 03 08 	unknown
     ee0:	3a 0b 3b 05 	unknown
     ee4:	49 13 02 06 	call  244c16fc <_trap_table-0x1bb3e904>
     ee8:	00 00 18 1d 	unimp  0x181d
     eec:	01 31 13 11 	sethi  %hi(0xc44c4400), %g0
     ef0:	01 12 01 58 	sethi  %hi(0x48056000), %g0
     ef4:	0b 59 05 00 	unknown
     ef8:	00 19 05 00 	unimp  0x190500
     efc:	31 13 00 00 	sethi  %hi(0x4c000000), %i0
     f00:	1a 34 00 03 	unknown
     f04:	0e 3a 0b 3b 	unknown
     f08:	0b 49 13 3f 	unknown
     f0c:	0c 3c 0c 00 	unknown
     f10:	00 00 01 11 	unimp  0x111
     f14:	01 25 0e 13 	sethi  %hi(0x94384c00), %g0
     f18:	0b 03 0e 1b 	sethi  %hi(0xc386c00), %g5
     f1c:	0e 11 01 12 	unknown
     f20:	01 10 06 00 	sethi  %hi(0x40180000), %g0
     f24:	00 02 24 00 	unimp  0x22400
     f28:	0b 0b 3e 0b 	sethi  %hi(0x2cf82c00), %g5
     f2c:	03 08 00 00 	sethi  %hi(0x20000000), %g1
     f30:	03 24 00 0b 	sethi  %hi(0x90002c00), %g1
     f34:	0b 3e 0b 03 	sethi  %hi(0xf82c0c00), %g5
     f38:	0e 00 00 04 	unknown
     f3c:	16 00 03 0e 	unknown
     f40:	3a 0b 3b 0b 	unknown
     f44:	49 13 00 00 	call  244c0f44 <_trap_table-0x1bb3f0bc>
     f48:	05 04 01 0b 	sethi  %hi(0x10042c00), %g2
     f4c:	0b 3a 0b 3b 	sethi  %hi(0xe82cec00), %g5
     f50:	05 01 13 00 	sethi  %hi(0x44c0000), %g2
     f54:	00 06 28 00 	unimp  0x62800
     f58:	03 0e 1c 0d 	sethi  %hi(0x38703400), %g1
     f5c:	00 00 07 16 	unimp  0x716
     f60:	00 03 0e 3a 	unimp  0x30e3a
     f64:	0b 3b 05 49 	sethi  %hi(0xec152400), %g5
     f68:	13 00 00 08 	sethi  %hi(0x2000), %o1
     f6c:	17 01 0b 0b 	sethi  %hi(0x42c2c00), %o3
     f70:	3a 0b 3b 05 	unknown
     f74:	01 13 00 00 	sethi  %hi(0x4c000000), %g0
     f78:	09 0d 00 03 	sethi  %hi(0x34000c00), %g4
     f7c:	08 3a 0b 3b 	unknown
     f80:	05 49 13 00 	unknown
     f84:	00 0a 01 01 	unimp  0xa0101
     f88:	49 13 01 13 	call  244c13d4 <_trap_table-0x1bb3ec2c>
     f8c:	00 00 0b 21 	unimp  0xb21
     f90:	00 49 13 2f 	unknown
     f94:	0b 00 00 0c 	sethi  %hi(0x3000), %g5
     f98:	24 00 0b 0b 	unknown
     f9c:	3e 0b 00 00 	unknown
     fa0:	0d 13 01 0b 	sethi  %hi(0x4c042c00), %g6
     fa4:	0b 3a 0b 3b 	sethi  %hi(0xe82cec00), %g5
     fa8:	05 01 13 00 	sethi  %hi(0x44c0000), %g2
     fac:	00 0e 0d 00 	unimp  0xe0d00
     fb0:	03 0e 3a 0b 	sethi  %hi(0x38e82c00), %g1
     fb4:	3b 05 49 13 	sethi  %hi(0x15244c00), %i5
     fb8:	38 0a 00 00 	unknown
     fbc:	0f 34 00 03 	sethi  %hi(0xd0000c00), %g7
     fc0:	0e 3a 0b 3b 	unknown
     fc4:	0b 49 13 3f 	unknown
     fc8:	0c 02 0a 00 	unknown
     fcc:	00 10 26 00 	unimp  0x102600
     fd0:	49 13 00 00 	call  244c0fd0 <_trap_table-0x1bb3f030>
     fd4:	00 01 11 01 	unimp  0x11101
     fd8:	25 0e 13 0b 	sethi  %hi(0x384c2c00), %l2
     fdc:	03 0e 1b 0e 	sethi  %hi(0x386c3800), %g1
     fe0:	11 01 12 01 	sethi  %hi(0x4480400), %o0
     fe4:	10 06 00 00 	unknown
     fe8:	02 24 00 0b 	unknown
     fec:	0b 3e 0b 03 	sethi  %hi(0xf82c0c00), %g5
     ff0:	08 00 00 03 	unknown
     ff4:	24 00 0b 0b 	unknown
     ff8:	3e 0b 03 0e 	unknown
     ffc:	00 00 04 16 	unimp  0x416
    1000:	00 03 0e 3a 	unimp  0x30e3a
    1004:	0b 3b 0b 49 	sethi  %hi(0xec2d2400), %g5
    1008:	13 00 00 05 	sethi  %hi(0x1400), %o1
    100c:	04 01 0b 0b 	unknown
    1010:	3a 0b 3b 05 	unknown
    1014:	01 13 00 00 	sethi  %hi(0x4c000000), %g0
    1018:	06 28 00 03 	unknown
    101c:	0e 1c 0d 00 	unknown
    1020:	00 07 16 00 	unimp  0x71600
    1024:	03 0e 3a 0b 	sethi  %hi(0x38e82c00), %g1
    1028:	3b 05 49 13 	sethi  %hi(0x15244c00), %i5
    102c:	00 00 08 17 	unimp  0x817
    1030:	01 0b 0b 3a 	sethi  %hi(0x2c2ce800), %g0
    1034:	0b 3b 05 01 	sethi  %hi(0xec140400), %g5
    1038:	13 00 00 09 	sethi  %hi(0x2400), %o1
    103c:	0d 00 03 08 	sethi  %hi(0xc2000), %g6
    1040:	3a 0b 3b 05 	unknown
    1044:	49 13 00 00 	call  244c1044 <_trap_table-0x1bb3efbc>
    1048:	0a 01 01 49 	unknown
    104c:	13 01 13 00 	sethi  %hi(0x44c0000), %o1
    1050:	00 0b 21 00 	unimp  0xb2100
    1054:	49 13 2f 0b 	call  244ccc80 <_trap_table-0x1bb33380>
    1058:	00 00 0c 24 	unimp  0xc24
    105c:	00 0b 0b 3e 	unimp  0xb0b3e
    1060:	0b 00 00 0d 	sethi  %hi(0x3400), %g5
    1064:	13 01 0b 0b 	sethi  %hi(0x42c2c00), %o1
    1068:	3a 0b 3b 05 	unknown
    106c:	01 13 00 00 	sethi  %hi(0x4c000000), %g0
    1070:	0e 0d 00 03 	unknown
    1074:	0e 3a 0b 3b 	unknown
    1078:	05 49 13 38 	unknown
    107c:	0a 00 00 0f 	unknown
    1080:	2e 01 03 0e 	unknown
    1084:	3a 0b 3b 0b 	unknown
    1088:	27 0c 49 13 	sethi  %hi(0x31244c00), %l3
    108c:	20 0b 01 13 	unknown
    1090:	00 00 10 05 	unimp  0x1005
    1094:	00 03 08 3a 	unimp  0x3083a
    1098:	0b 3b 0b 49 	sethi  %hi(0xec2d2400), %g5
    109c:	13 00 00 11 	sethi  %hi(0x4400), %o1
    10a0:	2e 01 3f 0c 	unknown
    10a4:	03 0e 3a 0b 	sethi  %hi(0x38e82c00), %g1
    10a8:	3b 05 27 0c 	sethi  %hi(0x149c3000), %i5
    10ac:	49 13 11 01 	call  244c54b0 <_trap_table-0x1bb3ab50>
    10b0:	12 01 40 06 	unknown
    10b4:	01 13 00 00 	sethi  %hi(0x4c000000), %g0
    10b8:	12 05 00 03 	unknown
    10bc:	0e 3a 0b 3b 	unknown
    10c0:	05 49 13 02 	unknown
    10c4:	06 00 00 13 	unknown
    10c8:	34 00 03 08 	unknown
    10cc:	3a 0b 3b 05 	unknown
    10d0:	49 13 02 0a 	call  244c18f8 <_trap_table-0x1bb3e708>
    10d4:	00 00 14 0b 	unimp  0x140b
    10d8:	01 55 06 00 	unknown
    10dc:	00 15 34 00 	unimp  0x153400
    10e0:	03 0e 3a 0b 	sethi  %hi(0x38e82c00), %g1
    10e4:	3b 05 49 13 	sethi  %hi(0x15244c00), %i5
    10e8:	02 06 00 00 	unknown
    10ec:	16 0b 01 55 	unknown
    10f0:	06 01 13 00 	unknown
    10f4:	00 17 34 00 	unimp  0x173400
    10f8:	03 0e 3a 0b 	sethi  %hi(0x38e82c00), %g1
    10fc:	3b 05 49 13 	sethi  %hi(0x15244c00), %i5
    1100:	00 00 18 1d 	unimp  0x181d
    1104:	01 31 13 52 	sethi  %hi(0xc44d4800), %g0
    1108:	01 55 06 58 	unknown
    110c:	0b 59 05 00 	unknown
    1110:	00 19 05 00 	unimp  0x190500
    1114:	31 13 00 00 	sethi  %hi(0x4c000000), %i0
    1118:	1a 34 00 03 	unknown
    111c:	0e 3a 0b 3b 	unknown
    1120:	0b 49 13 3f 	unknown
    1124:	0c 3c 0c 00 	unknown
    1128:	00 1b 26 00 	unimp  0x1b2600
    112c:	49 13 00 00 	call  244c112c <_trap_table-0x1bb3eed4>
    1130:	00 01 11 01 	unimp  0x11101
    1134:	25 0e 13 0b 	sethi  %hi(0x384c2c00), %l2
    1138:	03 0e 1b 0e 	sethi  %hi(0x386c3800), %g1
    113c:	11 01 12 01 	sethi  %hi(0x4480400), %o0
    1140:	10 06 00 00 	unknown
    1144:	02 24 00 0b 	unknown
    1148:	0b 3e 0b 03 	sethi  %hi(0xf82c0c00), %g5
    114c:	08 00 00 03 	unknown
    1150:	24 00 0b 0b 	unknown
    1154:	3e 0b 03 0e 	unknown
    1158:	00 00 04 24 	unimp  0x424
    115c:	00 0b 0b 3e 	unimp  0xb0b3e
    1160:	0b 00 00 05 	sethi  %hi(0x1400), %g5
    1164:	16 00 03 0e 	unknown
    1168:	3a 0b 3b 0b 	unknown
    116c:	49 13 00 00 	call  244c116c <_trap_table-0x1bb3ee94>
    1170:	06 13 01 03 	unknown
    1174:	0e 0b 0b 3a 	unknown
    1178:	0b 3b 05 01 	sethi  %hi(0xec140400), %g5
    117c:	13 00 00 07 	sethi  %hi(0x1c00), %o1
    1180:	0d 00 03 0e 	sethi  %hi(0xc3800), %g6
    1184:	3a 0b 3b 05 	unknown
    1188:	49 13 38 0a 	call  244cf1b0 <_trap_table-0x1bb30e50>
    118c:	00 00 08 0d 	unimp  0x80d
    1190:	00 03 08 3a 	unimp  0x3083a
    1194:	0b 3b 05 49 	sethi  %hi(0xec152400), %g5
    1198:	13 38 0a 00 	sethi  %hi(0xe0280000), %o1
    119c:	00 09 17 01 	unimp  0x91701
    11a0:	0b 0b 3a 0b 	sethi  %hi(0x2ce82c00), %g5
    11a4:	3b 05 01 13 	sethi  %hi(0x14044c00), %i5
    11a8:	00 00 0a 0d 	unimp  0xa0d
    11ac:	00 03 08 3a 	unimp  0x3083a
    11b0:	0b 3b 05 49 	sethi  %hi(0xec152400), %g5
    11b4:	13 00 00 0b 	sethi  %hi(0x2c00), %o1
    11b8:	16 00 03 0e 	unknown
    11bc:	3a 0b 3b 05 	unknown
    11c0:	49 13 00 00 	call  244c11c0 <_trap_table-0x1bb3ee40>
    11c4:	0c 2e 01 3f 	unknown
    11c8:	0c 03 0e 3a 	unknown
    11cc:	0b 3b 05 27 	sethi  %hi(0xec149c00), %g5
    11d0:	0c 49 13 11 	unknown
    11d4:	01 12 01 40 	sethi  %hi(0x48050000), %g0
    11d8:	06 01 13 00 	unknown
    11dc:	00 0d 05 00 	unimp  0xd0500
    11e0:	03 08 3a 0b 	sethi  %hi(0x20e82c00), %g1
    11e4:	3b 05 49 13 	sethi  %hi(0x15244c00), %i5
    11e8:	02 06 00 00 	unknown
    11ec:	0e 05 00 03 	unknown
    11f0:	08 3a 0b 3b 	unknown
    11f4:	05 49 13 02 	unknown
    11f8:	0a 00 00 0f 	unknown
    11fc:	34 00 03 08 	unknown
    1200:	3a 0b 3b 05 	unknown
    1204:	49 13 00 00 	call  244c1204 <_trap_table-0x1bb3edfc>
    1208:	10 34 00 03 	unknown
    120c:	08 3a 0b 3b 	unknown
    1210:	05 49 13 02 	unknown
    1214:	0a 00 00 11 	unknown
    1218:	0b 01 11 01 	sethi  %hi(0x4440400), %g5
    121c:	12 01 00 00 	unknown
    1220:	12 26 00 49 	unknown
    1224:	13 00 00 00 	sethi  %hi(0), %o1
    1228:	01 11 01 25 	sethi  %hi(0x44049400), %g0
    122c:	0e 13 0b 03 	unknown
    1230:	0e 1b 0e 11 	unknown
    1234:	01 12 01 10 	sethi  %hi(0x48044000), %g0
    1238:	06 00 00 02 	unknown
    123c:	24 00 0b 0b 	unknown
    1240:	3e 0b 03 08 	unknown
    1244:	00 00 03 24 	unimp  0x324
    1248:	00 0b 0b 3e 	unimp  0xb0b3e
    124c:	0b 03 0e 00 	sethi  %hi(0xc380000), %g5
    1250:	00 04 24 00 	unimp  0x42400
    1254:	0b 0b 3e 0b 	sethi  %hi(0x2cf82c00), %g5
    1258:	00 00 05 16 	unimp  0x516
    125c:	00 03 0e 3a 	unimp  0x30e3a
    1260:	0b 3b 0b 49 	sethi  %hi(0xec2d2400), %g5
    1264:	13 00 00 06 	sethi  %hi(0x1800), %o1
    1268:	13 01 03 0e 	sethi  %hi(0x40c3800), %o1
    126c:	0b 0b 3a 0b 	sethi  %hi(0x2ce82c00), %g5
    1270:	3b 05 01 13 	sethi  %hi(0x14044c00), %i5
    1274:	00 00 07 0d 	unimp  0x70d
    1278:	00 03 0e 3a 	unimp  0x30e3a
    127c:	0b 3b 05 49 	sethi  %hi(0xec152400), %g5
    1280:	13 38 0a 00 	sethi  %hi(0xe0280000), %o1
    1284:	00 08 0d 00 	unimp  0x80d00
    1288:	03 08 3a 0b 	sethi  %hi(0x20e82c00), %g1
    128c:	3b 05 49 13 	sethi  %hi(0x15244c00), %i5
    1290:	38 0a 00 00 	unknown
    1294:	09 17 01 0b 	sethi  %hi(0x5c042c00), %g4
    1298:	0b 3a 0b 3b 	sethi  %hi(0xe82cec00), %g5
    129c:	05 01 13 00 	sethi  %hi(0x44c0000), %g2
    12a0:	00 0a 0d 00 	unimp  0xa0d00
    12a4:	03 08 3a 0b 	sethi  %hi(0x20e82c00), %g1
    12a8:	3b 05 49 13 	sethi  %hi(0x15244c00), %i5
    12ac:	00 00 0b 16 	unimp  0xb16
    12b0:	00 03 0e 3a 	unimp  0x30e3a
    12b4:	0b 3b 05 49 	sethi  %hi(0xec152400), %g5
    12b8:	13 00 00 0c 	sethi  %hi(0x3000), %o1
    12bc:	2e 01 3f 0c 	unknown
    12c0:	03 0e 3a 0b 	sethi  %hi(0x38e82c00), %g1
    12c4:	3b 05 27 0c 	sethi  %hi(0x149c3000), %i5
    12c8:	49 13 11 01 	call  244c56cc <_trap_table-0x1bb3a934>
    12cc:	12 01 40 0a 	unknown
    12d0:	01 13 00 00 	sethi  %hi(0x4c000000), %g0
    12d4:	0d 05 00 03 	sethi  %hi(0x14000c00), %g6
    12d8:	08 3a 0b 3b 	unknown
    12dc:	05 49 13 02 	unknown
    12e0:	06 00 00 0e 	unknown
    12e4:	34 00 03 08 	unknown
    12e8:	3a 0b 3b 05 	unknown
    12ec:	49 13 00 00 	call  244c12ec <_trap_table-0x1bb3ed14>
    12f0:	0f 26 00 49 	sethi  %hi(0x98012400), %g7
    12f4:	13 00 00 00 	sethi  %hi(0), %o1
    12f8:	01 11 01 25 	sethi  %hi(0x44049400), %g0
    12fc:	0e 13 0b 03 	unknown
    1300:	0e 1b 0e 11 	unknown
    1304:	01 12 01 10 	sethi  %hi(0x48044000), %g0
    1308:	06 00 00 02 	unknown
    130c:	24 00 0b 0b 	unknown
    1310:	3e 0b 03 08 	unknown
    1314:	00 00 03 24 	unimp  0x324
    1318:	00 0b 0b 3e 	unimp  0xb0b3e
    131c:	0b 03 0e 00 	sethi  %hi(0xc380000), %g5
    1320:	00 04 24 00 	unimp  0x42400
    1324:	0b 0b 3e 0b 	sethi  %hi(0x2cf82c00), %g5
    1328:	00 00 05 16 	unimp  0x516
    132c:	00 03 0e 3a 	unimp  0x30e3a
    1330:	0b 3b 0b 49 	sethi  %hi(0xec2d2400), %g5
    1334:	13 00 00 06 	sethi  %hi(0x1800), %o1
    1338:	2e 01 3f 0c 	unknown
    133c:	03 0e 3a 0b 	sethi  %hi(0x38e82c00), %g1
    1340:	3b 05 27 0c 	sethi  %hi(0x149c3000), %i5
    1344:	49 13 11 01 	call  244c5748 <_trap_table-0x1bb3a8b8>
    1348:	12 01 40 0a 	unknown
    134c:	01 13 00 00 	sethi  %hi(0x4c000000), %g0
    1350:	07 05 00 03 	sethi  %hi(0x14000c00), %g3
    1354:	08 3a 0b 3b 	unknown
    1358:	05 49 13 02 	unknown
    135c:	06 00 00 08 	unknown
    1360:	34 00 03 08 	unknown
    1364:	3a 0b 3b 05 	unknown
    1368:	49 13 00 00 	call  244c1368 <_trap_table-0x1bb3ec98>
    136c:	09 0b 01 55 	sethi  %hi(0x2c055400), %g4
    1370:	06 00 00 0a 	unknown
    1374:	34 00 03 0e 	unknown
    1378:	3a 0b 3b 05 	unknown
    137c:	49 13 00 00 	call  244c137c <_trap_table-0x1bb3ec84>
    1380:	0b 01 01 49 	sethi  %hi(0x4052400), %g5
    1384:	13 01 13 00 	sethi  %hi(0x44c0000), %o1
    1388:	00 0c 21 00 	unimp  0xc2100
    138c:	49 13 2f 0b 	call  244ccfb8 <_trap_table-0x1bb33048>
    1390:	00 00 0d 34 	unimp  0xd34
    1394:	00 03 0e 3a 	unimp  0x30e3a
    1398:	0b 3b 0b 49 	sethi  %hi(0xec2d2400), %g5
    139c:	13 3f 0c 3c 	sethi  %hi(0xfc30f000), %o1
    13a0:	0c 00 00 0e 	unknown
    13a4:	26 00 49 13 	unknown
    13a8:	00 00 00 01 	unimp  0x1
    13ac:	11 01 25 0e 	sethi  %hi(0x4943800), %o0
    13b0:	13 0b 03 0e 	sethi  %hi(0x2c0c3800), %o1
    13b4:	1b 0e 11 01 	sethi  %hi(0x38440400), %o5
    13b8:	12 01 10 06 	unknown
    13bc:	00 00 02 24 	unimp  0x224
    13c0:	00 0b 0b 3e 	unimp  0xb0b3e
    13c4:	0b 03 08 00 	sethi  %hi(0xc200000), %g5
    13c8:	00 03 24 00 	unimp  0x32400
    13cc:	0b 0b 3e 0b 	sethi  %hi(0x2cf82c00), %g5
    13d0:	03 0e 00 00 	sethi  %hi(0x38000000), %g1
    13d4:	04 16 00 03 	unknown
    13d8:	0e 3a 0b 3b 	unknown
    13dc:	0b 49 13 00 	unknown
    13e0:	00 05 04 01 	unimp  0x50401
    13e4:	0b 0b 3a 0b 	sethi  %hi(0x2ce82c00), %g5
    13e8:	3b 05 01 13 	sethi  %hi(0x14044c00), %i5
    13ec:	00 00 06 28 	unimp  0x628
    13f0:	00 03 0e 1c 	unimp  0x30e1c
    13f4:	0d 00 00 07 	sethi  %hi(0x1c00), %g6
    13f8:	16 00 03 0e 	unknown
    13fc:	3a 0b 3b 05 	unknown
    1400:	49 13 00 00 	call  244c1400 <_trap_table-0x1bb3ec00>
    1404:	08 17 01 0b 	unknown
    1408:	0b 3a 0b 3b 	sethi  %hi(0xe82cec00), %g5
    140c:	05 01 13 00 	sethi  %hi(0x44c0000), %g2
    1410:	00 09 0d 00 	unimp  0x90d00
    1414:	03 08 3a 0b 	sethi  %hi(0x20e82c00), %g1
    1418:	3b 05 49 13 	sethi  %hi(0x15244c00), %i5
    141c:	00 00 0a 01 	unimp  0xa01
    1420:	01 49 13 01 	unknown
    1424:	13 00 00 0b 	sethi  %hi(0x2c00), %o1
    1428:	21 00 49 13 	sethi  %hi(0x1244c00), %l0
    142c:	2f 0b 00 00 	sethi  %hi(0x2c000000), %l7
    1430:	0c 24 00 0b 	unknown
    1434:	0b 3e 0b 00 	sethi  %hi(0xf82c0000), %g5
    1438:	00 0d 13 01 	unimp  0xd1301
    143c:	0b 0b 3a 0b 	sethi  %hi(0x2ce82c00), %g5
    1440:	3b 05 01 13 	sethi  %hi(0x14044c00), %i5
    1444:	00 00 0e 0d 	unimp  0xe0d
    1448:	00 03 0e 3a 	unimp  0x30e3a
    144c:	0b 3b 05 49 	sethi  %hi(0xec152400), %g5
    1450:	13 38 0a 00 	sethi  %hi(0xe0280000), %o1
    1454:	00 0f 0d 00 	unimp  0xf0d00
    1458:	03 0e 3a 0b 	sethi  %hi(0x38e82c00), %g1
    145c:	3b 05 49 13 	sethi  %hi(0x15244c00), %i5
    1460:	00 00 10 2e 	unimp  0x102e
    1464:	01 03 0e 3a 	sethi  %hi(0xc38e800), %g0
    1468:	0b 3b 0b 27 	sethi  %hi(0xec2c9c00), %g5
    146c:	0c 49 13 20 	unknown
    1470:	0b 01 13 00 	sethi  %hi(0x44c0000), %g5
    1474:	00 11 05 00 	unimp  0x110500
    1478:	03 08 3a 0b 	sethi  %hi(0x20e82c00), %g1
    147c:	3b 0b 49 13 	sethi  %hi(0x2d244c00), %i5
    1480:	00 00 12 0f 	unimp  0x120f
    1484:	00 0b 0b 49 	unimp  0xb0b49
    1488:	13 00 00 13 	sethi  %hi(0x4c00), %o1
    148c:	26 00 49 13 	unknown
    1490:	00 00 14 2e 	unimp  0x142e
    1494:	01 3f 0c 03 	sethi  %hi(0xfc300c00), %g0
    1498:	0e 3a 0b 3b 	unknown
    149c:	0b 27 0c 49 	sethi  %hi(0x9c312400), %g5
    14a0:	13 11 01 12 	sethi  %hi(0x44044800), %o1
    14a4:	01 40 06 01 	unknown
    14a8:	13 00 00 15 	sethi  %hi(0x5400), %o1
    14ac:	05 00 03 08 	sethi  %hi(0xc2000), %g2
    14b0:	3a 0b 3b 0b 	unknown
    14b4:	49 13 02 06 	call  244c1ccc <_trap_table-0x1bb3e334>
    14b8:	00 00 16 34 	unimp  0x1634
    14bc:	00 03 08 3a 	unimp  0x3083a
    14c0:	0b 3b 0b 49 	sethi  %hi(0xec2d2400), %g5
    14c4:	13 00 00 17 	sethi  %hi(0x5c00), %o1
    14c8:	34 00 03 0e 	unknown
    14cc:	3a 0b 3b 0b 	unknown
    14d0:	49 13 02 06 	call  244c1ce8 <_trap_table-0x1bb3e318>
    14d4:	00 00 18 34 	unimp  0x1834
    14d8:	00 03 0e 3a 	unimp  0x30e3a
    14dc:	0b 3b 0b 49 	sethi  %hi(0xec2d2400), %g5
    14e0:	13 00 00 19 	sethi  %hi(0x6400), %o1
    14e4:	34 00 03 08 	unknown
    14e8:	3a 0b 3b 0b 	unknown
    14ec:	49 13 02 06 	call  244c1d04 <_trap_table-0x1bb3e2fc>
    14f0:	00 00 1a 1d 	unimp  0x1a1d
    14f4:	01 31 13 11 	sethi  %hi(0xc44c4400), %g0
    14f8:	01 12 01 58 	sethi  %hi(0x48056000), %g0
    14fc:	0b 59 0b 01 	unknown
    1500:	13 00 00 1b 	sethi  %hi(0x6c00), %o1
    1504:	05 00 31 13 	sethi  %hi(0xc44c00), %g2
    1508:	00 00 1c 0b 	unimp  0x1c0b
    150c:	01 11 01 12 	sethi  %hi(0x44044800), %g0
    1510:	01 00 00 1d 	sethi  %hi(0x7400), %g0
    1514:	34 00 03 0e 	unknown
    1518:	3a 0b 3b 05 	unknown
    151c:	49 13 02 06 	call  244c1d34 <_trap_table-0x1bb3e2cc>
    1520:	00 00 1e 34 	unimp  0x1e34
    1524:	00 03 0e 3a 	unimp  0x30e3a
    1528:	0b 3b 05 49 	sethi  %hi(0xec152400), %g5
    152c:	13 00 00 1f 	sethi  %hi(0x7c00), %o1
    1530:	34 00 03 0e 	unknown
    1534:	3a 0b 3b 0b 	unknown
    1538:	49 13 3f 0c 	call  244d1168 <_trap_table-0x1bb2ee98>
    153c:	3c 0c 00 00 	unknown
    1540:	00 01 11 01 	unimp  0x11101
    1544:	25 0e 13 0b 	sethi  %hi(0x384c2c00), %l2
    1548:	03 0e 1b 0e 	sethi  %hi(0x386c3800), %g1
    154c:	11 01 12 01 	sethi  %hi(0x4480400), %o0
    1550:	10 06 00 00 	unknown
    1554:	02 24 00 0b 	unknown
    1558:	0b 3e 0b 03 	sethi  %hi(0xf82c0c00), %g5
    155c:	08 00 00 03 	unknown
    1560:	24 00 0b 0b 	unknown
    1564:	3e 0b 03 0e 	unknown
    1568:	00 00 04 16 	unimp  0x416
    156c:	00 03 0e 3a 	unimp  0x30e3a
    1570:	0b 3b 0b 49 	sethi  %hi(0xec2d2400), %g5
    1574:	13 00 00 05 	sethi  %hi(0x1400), %o1
    1578:	04 01 0b 0b 	unknown
    157c:	3a 0b 3b 05 	unknown
    1580:	01 13 00 00 	sethi  %hi(0x4c000000), %g0
    1584:	06 28 00 03 	unknown
    1588:	0e 1c 0d 00 	unknown
    158c:	00 07 16 00 	unimp  0x71600
    1590:	03 0e 3a 0b 	sethi  %hi(0x38e82c00), %g1
    1594:	3b 05 49 13 	sethi  %hi(0x15244c00), %i5
    1598:	00 00 08 17 	unimp  0x817
    159c:	01 0b 0b 3a 	sethi  %hi(0x2c2ce800), %g0
    15a0:	0b 3b 05 01 	sethi  %hi(0xec140400), %g5
    15a4:	13 00 00 09 	sethi  %hi(0x2400), %o1
    15a8:	0d 00 03 08 	sethi  %hi(0xc2000), %g6
    15ac:	3a 0b 3b 05 	unknown
    15b0:	49 13 00 00 	call  244c15b0 <_trap_table-0x1bb3ea50>
    15b4:	0a 01 01 49 	unknown
    15b8:	13 01 13 00 	sethi  %hi(0x44c0000), %o1
    15bc:	00 0b 21 00 	unimp  0xb2100
    15c0:	49 13 2f 0b 	call  244cd1ec <_trap_table-0x1bb32e14>
    15c4:	00 00 0c 24 	unimp  0xc24
    15c8:	00 0b 0b 3e 	unimp  0xb0b3e
    15cc:	0b 00 00 0d 	sethi  %hi(0x3400), %g5
    15d0:	13 01 0b 0b 	sethi  %hi(0x42c2c00), %o1
    15d4:	3a 0b 3b 05 	unknown
    15d8:	01 13 00 00 	sethi  %hi(0x4c000000), %g0
    15dc:	0e 0d 00 03 	unknown
    15e0:	0e 3a 0b 3b 	unknown
    15e4:	05 49 13 38 	unknown
    15e8:	0a 00 00 0f 	unknown
    15ec:	0d 00 03 0e 	sethi  %hi(0xc3800), %g6
    15f0:	3a 0b 3b 05 	unknown
    15f4:	49 13 00 00 	call  244c15f4 <_trap_table-0x1bb3ea0c>
    15f8:	10 2e 01 3f 	unknown
    15fc:	0c 03 0e 3a 	unknown
    1600:	0b 3b 05 27 	sethi  %hi(0xec149c00), %g5
    1604:	0c 11 01 12 	unknown
    1608:	01 40 06 01 	unknown
    160c:	13 00 00 11 	sethi  %hi(0x4400), %o1
    1610:	05 00 03 08 	sethi  %hi(0xc2000), %g2
    1614:	3a 0b 3b 05 	unknown
    1618:	49 13 02 0a 	call  244c1e40 <_trap_table-0x1bb3e1c0>
    161c:	00 00 12 34 	unimp  0x1234
    1620:	00 03 0e 3a 	unimp  0x30e3a
    1624:	0b 3b 05 49 	sethi  %hi(0xec152400), %g5
    1628:	13 02 06 00 	sethi  %hi(0x8180000), %o1
    162c:	00 13 34 00 	unimp  0x133400
    1630:	03 08 3a 0b 	sethi  %hi(0x20e82c00), %g1
    1634:	3b 05 49 13 	sethi  %hi(0x15244c00), %i5
    1638:	02 06 00 00 	unknown
    163c:	14 34 00 03 	unknown
    1640:	0e 3a 0b 3b 	unknown
    1644:	05 49 13 00 	unknown
    1648:	00 15 0f 00 	unimp  0x150f00
    164c:	0b 0b 49 13 	sethi  %hi(0x2d244c00), %g5
    1650:	00 00 16 34 	unimp  0x1634
    1654:	00 03 0e 3a 	unimp  0x30e3a
    1658:	0b 3b 0b 49 	sethi  %hi(0xec2d2400), %g5
    165c:	13 3f 0c 3c 	sethi  %hi(0xfc30f000), %o1
    1660:	0c 00 00 17 	unknown
    1664:	26 00 49 13 	unknown
    1668:	00 00 00 01 	unimp  0x1
    166c:	11 01 25 0e 	sethi  %hi(0x4943800), %o0
    1670:	13 0b 03 0e 	sethi  %hi(0x2c0c3800), %o1
    1674:	1b 0e 11 01 	sethi  %hi(0x38440400), %o5
    1678:	12 01 10 06 	unknown
    167c:	00 00 02 24 	unimp  0x224
    1680:	00 0b 0b 3e 	unimp  0xb0b3e
    1684:	0b 03 08 00 	sethi  %hi(0xc200000), %g5
    1688:	00 03 24 00 	unimp  0x32400
    168c:	0b 0b 3e 0b 	sethi  %hi(0x2cf82c00), %g5
    1690:	03 0e 00 00 	sethi  %hi(0x38000000), %g1
    1694:	04 16 00 03 	unknown
    1698:	0e 3a 0b 3b 	unknown
    169c:	0b 49 13 00 	unknown
    16a0:	00 05 04 01 	unimp  0x50401
    16a4:	0b 0b 3a 0b 	sethi  %hi(0x2ce82c00), %g5
    16a8:	3b 05 01 13 	sethi  %hi(0x14044c00), %i5
    16ac:	00 00 06 28 	unimp  0x628
    16b0:	00 03 0e 1c 	unimp  0x30e1c
    16b4:	0d 00 00 07 	sethi  %hi(0x1c00), %g6
    16b8:	16 00 03 0e 	unknown
    16bc:	3a 0b 3b 05 	unknown
    16c0:	49 13 00 00 	call  244c16c0 <_trap_table-0x1bb3e940>
    16c4:	08 17 01 0b 	unknown
    16c8:	0b 3a 0b 3b 	sethi  %hi(0xe82cec00), %g5
    16cc:	05 01 13 00 	sethi  %hi(0x44c0000), %g2
    16d0:	00 09 0d 00 	unimp  0x90d00
    16d4:	03 08 3a 0b 	sethi  %hi(0x20e82c00), %g1
    16d8:	3b 05 49 13 	sethi  %hi(0x15244c00), %i5
    16dc:	00 00 0a 01 	unimp  0xa01
    16e0:	01 49 13 01 	unknown
    16e4:	13 00 00 0b 	sethi  %hi(0x2c00), %o1
    16e8:	21 00 49 13 	sethi  %hi(0x1244c00), %l0
    16ec:	2f 0b 00 00 	sethi  %hi(0x2c000000), %l7
    16f0:	0c 24 00 0b 	unknown
    16f4:	0b 3e 0b 00 	sethi  %hi(0xf82c0000), %g5
    16f8:	00 0d 13 01 	unimp  0xd1301
    16fc:	0b 0b 3a 0b 	sethi  %hi(0x2ce82c00), %g5
    1700:	3b 05 01 13 	sethi  %hi(0x14044c00), %i5
    1704:	00 00 0e 0d 	unimp  0xe0d
    1708:	00 03 0e 3a 	unimp  0x30e3a
    170c:	0b 3b 05 49 	sethi  %hi(0xec152400), %g5
    1710:	13 38 0a 00 	sethi  %hi(0xe0280000), %o1
    1714:	00 0f 2e 01 	unimp  0xf2e01
    1718:	03 0e 3a 0b 	sethi  %hi(0x38e82c00), %g1
    171c:	3b 0b 27 0c 	sethi  %hi(0x2c9c3000), %i5
    1720:	49 13 20 0b 	call  244c974c <_trap_table-0x1bb368b4>
    1724:	01 13 00 00 	sethi  %hi(0x4c000000), %g0
    1728:	10 05 00 03 	unknown
    172c:	08 3a 0b 3b 	unknown
    1730:	0b 49 13 00 	unknown
    1734:	00 11 0f 00 	unimp  0x110f00
    1738:	0b 0b 49 13 	sethi  %hi(0x2d244c00), %g5
    173c:	00 00 12 26 	unimp  0x1226
    1740:	00 49 13 00 	unknown
    1744:	00 13 2e 01 	unimp  0x132e01
    1748:	3f 0c 03 0e 	sethi  %hi(0x300c3800), %i7
    174c:	3a 0b 3b 05 	unknown
    1750:	27 0c 49 13 	sethi  %hi(0x31244c00), %l3
    1754:	11 01 12 01 	sethi  %hi(0x4480400), %o0
    1758:	40 06 01 13 	call  181ba4 <_trap_table-0x3fe7e45c>
    175c:	00 00 14 05 	unimp  0x1405
    1760:	00 03 08 3a 	unimp  0x3083a
    1764:	0b 3b 05 49 	sethi  %hi(0xec152400), %g5
    1768:	13 02 06 00 	sethi  %hi(0x8180000), %o1
    176c:	00 15 05 00 	unimp  0x150500
    1770:	03 08 3a 0b 	sethi  %hi(0x20e82c00), %g1
    1774:	3b 05 49 13 	sethi  %hi(0x15244c00), %i5
    1778:	02 0a 00 00 	unknown
    177c:	16 1d 01 31 	unknown
    1780:	13 11 01 12 	sethi  %hi(0x44044800), %o1
    1784:	01 58 0b 59 	unknown
    1788:	05 01 13 00 	sethi  %hi(0x44c0000), %g2
    178c:	00 17 05 00 	unimp  0x170500
    1790:	31 13 00 00 	sethi  %hi(0x4c000000), %i0
    1794:	18 1d 01 31 	unknown
    1798:	13 11 01 12 	sethi  %hi(0x44044800), %o1
    179c:	01 58 0b 59 	unknown
    17a0:	05 00 00 19 	sethi  %hi(0x6400), %g2
    17a4:	34 00 03 0e 	unknown
    17a8:	3a 0b 3b 0b 	unknown
    17ac:	49 13 3f 0c 	call  244d13dc <_trap_table-0x1bb2ec24>
    17b0:	3c 0c 00 00 	unknown
    17b4:	00 01 11 01 	unimp  0x11101
    17b8:	25 0e 13 0b 	sethi  %hi(0x384c2c00), %l2
    17bc:	03 0e 1b 0e 	sethi  %hi(0x386c3800), %g1
    17c0:	11 01 12 01 	sethi  %hi(0x4480400), %o0
    17c4:	10 06 00 00 	unknown
    17c8:	02 24 00 0b 	unknown
    17cc:	0b 3e 0b 03 	sethi  %hi(0xf82c0c00), %g5
    17d0:	08 00 00 03 	unknown
    17d4:	24 00 0b 0b 	unknown
    17d8:	3e 0b 03 0e 	unknown
    17dc:	00 00 04 24 	unimp  0x424
    17e0:	00 0b 0b 3e 	unimp  0xb0b3e
    17e4:	0b 00 00 05 	sethi  %hi(0x1400), %g5
    17e8:	16 00 03 0e 	unknown
    17ec:	3a 0b 3b 0b 	unknown
    17f0:	49 13 00 00 	call  244c17f0 <_trap_table-0x1bb3e810>
    17f4:	06 13 01 03 	unknown
    17f8:	0e 0b 0b 3a 	unknown
    17fc:	0b 3b 05 01 	sethi  %hi(0xec140400), %g5
    1800:	13 00 00 07 	sethi  %hi(0x1c00), %o1
    1804:	0d 00 03 0e 	sethi  %hi(0xc3800), %g6
    1808:	3a 0b 3b 05 	unknown
    180c:	49 13 38 0a 	call  244cf834 <_trap_table-0x1bb307cc>
    1810:	00 00 08 0d 	unimp  0x80d
    1814:	00 03 08 3a 	unimp  0x3083a
    1818:	0b 3b 05 49 	sethi  %hi(0xec152400), %g5
    181c:	13 38 0a 00 	sethi  %hi(0xe0280000), %o1
    1820:	00 09 17 01 	unimp  0x91701
    1824:	0b 0b 3a 0b 	sethi  %hi(0x2ce82c00), %g5
    1828:	3b 05 01 13 	sethi  %hi(0x14044c00), %i5
    182c:	00 00 0a 0d 	unimp  0xa0d
    1830:	00 03 08 3a 	unimp  0x3083a
    1834:	0b 3b 05 49 	sethi  %hi(0xec152400), %g5
    1838:	13 00 00 0b 	sethi  %hi(0x2c00), %o1
    183c:	16 00 03 0e 	unknown
    1840:	3a 0b 3b 05 	unknown
    1844:	49 13 00 00 	call  244c1844 <_trap_table-0x1bb3e7bc>
    1848:	0c 2e 01 3f 	unknown
    184c:	0c 03 0e 3a 	unknown
    1850:	0b 3b 05 27 	sethi  %hi(0xec149c00), %g5
    1854:	0c 49 13 11 	unknown
    1858:	01 12 01 40 	sethi  %hi(0x48050000), %g0
    185c:	0a 01 13 00 	unknown
    1860:	00 0d 05 00 	unimp  0xd0500
    1864:	03 08 3a 0b 	sethi  %hi(0x20e82c00), %g1
    1868:	3b 05 49 13 	sethi  %hi(0x15244c00), %i5
    186c:	02 06 00 00 	unknown
    1870:	0e 05 00 03 	unknown
    1874:	08 3a 0b 3b 	unknown
    1878:	05 49 13 02 	unknown
    187c:	0a 00 00 0f 	unknown
    1880:	34 00 03 08 	unknown
    1884:	3a 0b 3b 05 	unknown
    1888:	49 13 00 00 	call  244c1888 <_trap_table-0x1bb3e778>
    188c:	10 34 00 03 	unknown
    1890:	08 3a 0b 3b 	unknown
    1894:	05 49 13 02 	unknown
    1898:	06 00 00 11 	unknown
    189c:	0b 01 11 01 	sethi  %hi(0x4440400), %g5
    18a0:	12 01 00 00 	unknown
    18a4:	12 34 00 03 	unknown
    18a8:	0e 3a 0b 3b 	unknown
    18ac:	05 49 13 00 	unknown
    18b0:	00 13 26 00 	unimp  0x132600
    18b4:	49 13 00 00 	call  244c18b4 <_trap_table-0x1bb3e74c>
    18b8:	00 01 11 01 	unimp  0x11101
    18bc:	25 0e 13 0b 	sethi  %hi(0x384c2c00), %l2
    18c0:	03 0e 1b 0e 	sethi  %hi(0x386c3800), %g1
    18c4:	11 01 12 01 	sethi  %hi(0x4480400), %o0
    18c8:	10 06 00 00 	unknown
    18cc:	02 24 00 0b 	unknown
    18d0:	0b 3e 0b 03 	sethi  %hi(0xf82c0c00), %g5
    18d4:	08 00 00 03 	unknown
    18d8:	24 00 0b 0b 	unknown
    18dc:	3e 0b 03 0e 	unknown
    18e0:	00 00 04 24 	unimp  0x424
    18e4:	00 0b 0b 3e 	unimp  0xb0b3e
    18e8:	0b 00 00 05 	sethi  %hi(0x1400), %g5
    18ec:	16 00 03 0e 	unknown
    18f0:	3a 0b 3b 0b 	unknown
    18f4:	49 13 00 00 	call  244c18f4 <_trap_table-0x1bb3e70c>
    18f8:	06 13 01 03 	unknown
    18fc:	0e 0b 0b 3a 	unknown
    1900:	0b 3b 05 01 	sethi  %hi(0xec140400), %g5
    1904:	13 00 00 07 	sethi  %hi(0x1c00), %o1
    1908:	0d 00 03 0e 	sethi  %hi(0xc3800), %g6
    190c:	3a 0b 3b 05 	unknown
    1910:	49 13 38 0a 	call  244cf938 <_trap_table-0x1bb306c8>
    1914:	00 00 08 0d 	unimp  0x80d
    1918:	00 03 08 3a 	unimp  0x3083a
    191c:	0b 3b 05 49 	sethi  %hi(0xec152400), %g5
    1920:	13 38 0a 00 	sethi  %hi(0xe0280000), %o1
    1924:	00 09 17 01 	unimp  0x91701
    1928:	0b 0b 3a 0b 	sethi  %hi(0x2ce82c00), %g5
    192c:	3b 05 01 13 	sethi  %hi(0x14044c00), %i5
    1930:	00 00 0a 0d 	unimp  0xa0d
    1934:	00 03 08 3a 	unimp  0x3083a
    1938:	0b 3b 05 49 	sethi  %hi(0xec152400), %g5
    193c:	13 00 00 0b 	sethi  %hi(0x2c00), %o1
    1940:	16 00 03 0e 	unknown
    1944:	3a 0b 3b 05 	unknown
    1948:	49 13 00 00 	call  244c1948 <_trap_table-0x1bb3e6b8>
    194c:	0c 2e 01 3f 	unknown
    1950:	0c 03 0e 3a 	unknown
    1954:	0b 3b 05 27 	sethi  %hi(0xec149c00), %g5
    1958:	0c 49 13 11 	unknown
    195c:	01 12 01 40 	sethi  %hi(0x48050000), %g0
    1960:	0a 01 13 00 	unknown
    1964:	00 0d 05 00 	unimp  0xd0500
    1968:	03 08 3a 0b 	sethi  %hi(0x20e82c00), %g1
    196c:	3b 05 49 13 	sethi  %hi(0x15244c00), %i5
    1970:	02 06 00 00 	unknown
    1974:	0e 05 00 03 	unknown
    1978:	08 3a 0b 3b 	unknown
    197c:	05 49 13 02 	unknown
    1980:	0a 00 00 0f 	unknown
    1984:	34 00 03 08 	unknown
    1988:	3a 0b 3b 05 	unknown
    198c:	49 13 00 00 	call  244c198c <_trap_table-0x1bb3e674>
    1990:	10 34 00 03 	unknown
    1994:	08 3a 0b 3b 	unknown
    1998:	05 49 13 02 	unknown
    199c:	06 00 00 11 	unknown
    19a0:	0b 01 11 01 	sethi  %hi(0x4440400), %g5
    19a4:	12 01 00 00 	unknown
    19a8:	12 34 00 03 	unknown
    19ac:	0e 3a 0b 3b 	unknown
    19b0:	05 49 13 00 	unknown
    19b4:	00 13 26 00 	unimp  0x132600
    19b8:	49 13 00 00 	call  244c19b8 <_trap_table-0x1bb3e648>
    19bc:	00 01 11 01 	unimp  0x11101
    19c0:	25 0e 13 0b 	sethi  %hi(0x384c2c00), %l2
    19c4:	03 0e 1b 0e 	sethi  %hi(0x386c3800), %g1
    19c8:	11 01 12 01 	sethi  %hi(0x4480400), %o0
    19cc:	10 06 00 00 	unknown
    19d0:	02 24 00 0b 	unknown
    19d4:	0b 3e 0b 03 	sethi  %hi(0xf82c0c00), %g5
    19d8:	08 00 00 03 	unknown
    19dc:	24 00 0b 0b 	unknown
    19e0:	3e 0b 03 0e 	unknown
    19e4:	00 00 04 24 	unimp  0x424
    19e8:	00 0b 0b 3e 	unimp  0xb0b3e
    19ec:	0b 00 00 05 	sethi  %hi(0x1400), %g5
    19f0:	16 00 03 0e 	unknown
    19f4:	3a 0b 3b 0b 	unknown
    19f8:	49 13 00 00 	call  244c19f8 <_trap_table-0x1bb3e608>
    19fc:	06 01 01 49 	unknown
    1a00:	13 01 13 00 	sethi  %hi(0x44c0000), %o1
    1a04:	00 07 21 00 	unimp  0x72100
    1a08:	49 13 2f 0b 	call  244cd634 <_trap_table-0x1bb329cc>
    1a0c:	00 00 08 34 	unimp  0x834
    1a10:	00 03 0e 3a 	unimp  0x30e3a
    1a14:	0b 3b 05 49 	sethi  %hi(0xec152400), %g5
    1a18:	13 3f 0c 02 	sethi  %hi(0xfc300800), %o1
    1a1c:	0a 00 00 09 	unknown
    1a20:	26 00 49 13 	unknown
    1a24:	00 00 00 01 	unimp  0x1
    1a28:	11 00 10 06 	sethi  %hi(0x401800), %o0
    1a2c:	55 06 03 08 	call  5418264c <__end+0x14175af4>
    1a30:	1b 08 25 08 	sethi  %hi(0x20942000), %o5
    1a34:	13 05 00 00 	sethi  %hi(0x14000000), %o1
	...

Disassembly of section .debug_line:

00000000 <.debug_line>:
       0:	00 00 00 6b 	unimp  0x6b
       4:	00 02 00 00 	unimp  0x20000
       8:	00 54 04 01 	unknown
       c:	fb 0e 0d 00 	unknown
      10:	01 01 01 01 	sethi  %hi(0x4040400), %g0
      14:	00 00 00 01 	unimp  0x1
      18:	00 00 01 2e 	unimp  0x12e
      1c:	2e 2f 2e 2e 	unknown
      20:	2f 2e 2e 2f 	sethi  %hi(0xb8b8bc00), %l7
      24:	2e 2e 2f 2e 	unknown
      28:	2e 2f 6e 65 	unknown
      2c:	77 6c 69 62 	call  ddb1a5b4 <__end+0x9db0da5c>
      30:	2d 31 2e 31 	sethi  %hi(0xc4b8c400), %l6
      34:	33 2e 30 2f 	sethi  %hi(0xb8c0bc00), %i1
      38:	6c 69 62 67 	call  b1a589d4 <__end+0x71a4be7c>
      3c:	6c 6f 73 73 	call  b1bdce08 <__end+0x71bd02b0>
      40:	2f 73 70 61 	unknown
      44:	72 63 5f 6c 	call  c98d7df4 <__end+0x898cb29c>
      48:	65 6f 6e 00 	call  95bdb848 <__end+0x55bcecf0>
      4c:	00 6c 6f 63 	unknown
      50:	6f 72 65 5f 	call  bdc995cc <__end+0x7dc8ca74>
      54:	73 76 74 2e 	call  cdd9d10c <__end+0x8dd905b4>
      58:	53 00 01 00 	call  4c000458 <__end+0xbff3900>
      5c:	00 00 00 05 	unimp  0x5
      60:	02 40 00 00 	unknown
      64:	00 03 28 01 	unimp  0x32801
      68:	21 21 02 01 	sethi  %hi(0x84080400), %l0
      6c:	00 01 01 00 	unimp  0x10100
      70:	00 00 82 00 	unimp  0x8200
      74:	02 00 00 00 	unknown
      78:	4e 04 01 fb 	call  38100864 <_trap_table-0x7eff79c>
      7c:	0e 0d 00 01 	unknown
      80:	01 01 01 00 	sethi  %hi(0x4040000), %g0
      84:	00 00 01 00 	unimp  0x100
      88:	00 01 2e 2e 	unimp  0x12e2e
      8c:	2f 2e 2e 2f 	sethi  %hi(0xb8b8bc00), %l7
      90:	2e 2e 2f 2e 	unknown
      94:	2e 2f 2e 2e 	unknown
      98:	2f 6e 65 77 	unknown
      9c:	6c 69 62 2d 	call  b1a58950 <__end+0x71a4bdf8>
      a0:	31 2e 31 33 	sethi  %hi(0xb8c4cc00), %i0
      a4:	2e 30 2f 6c 	unknown
      a8:	69 62 67 6c 	call  a5899e58 <__end+0x6588d300>
      ac:	6f 73 73 2f 	call  bdcdcd68 <__end+0x7dcd0210>
      b0:	73 70 61 72 	call  cdc18678 <__end+0x8dc0bb20>
      b4:	63 5f 6c 65 	call  8d7db248 <__end+0x4d7ce6f0>
      b8:	6f 6e 00 00 	call  bdb800b8 <__end+0x7db73560>
      bc:	63 72 74 30 	call  8dc9d17c <__end+0x4dc90624>
      c0:	2e 53 00 01 	unknown
      c4:	00 00 00 00 	unimp  0
      c8:	05 02 40 00 	sethi  %hi(0x9000000), %g2
      cc:	00 0c 03 1c 	unimp  0xc031c
      d0:	01 27 21 21 	sethi  %hi(0x9c848400), %g0
      d4:	21 21 21 22 	sethi  %hi(0x84848800), %l0
      d8:	22 21 21 21 	unknown
      dc:	21 23 2f 22 	sethi  %hi(0x8cbc8800), %l0
      e0:	21 22 21 22 	sethi  %hi(0x88848800), %l0
      e4:	21 22 2f 21 	sethi  %hi(0x88bc8400), %l0
      e8:	22 21 22 21 	unknown
      ec:	21 21 22 21 	sethi  %hi(0x84888400), %l0
      f0:	02 01 00 01 	unknown
      f4:	01 00 00 00 	nop 
      f8:	6a 00 02 00 	call  a80008f8 <__end+0x67ff3da0>
      fc:	00 00 46 04 	unimp  0x4604
     100:	01 fb 0e 0d 	cbn  ffec3934 <__end+0xbfeb6ddc>
     104:	00 01 01 01 	unimp  0x10101
     108:	01 00 00 00 	nop 
     10c:	01 00 00 01 	sethi  %hi(0x400), %g0
     110:	2e 2e 2f 2e 	unknown
     114:	2e 2f 67 63 	unknown
     118:	63 2d 34 2e 	call  8cb4d1d0 <__end+0x4cb40678>
     11c:	34 2e 32 2f 	unknown
     120:	67 63 63 2f 	call  9d8d8ddc <__end+0x5d8cc284>
     124:	63 6f 6e 66 	call  8dbdbabc <__end+0x4dbcef64>
     128:	69 67 2f 73 	call  a59cbef4 <__end+0x659bf39c>
     12c:	70 61 72 63 	call  c185cab8 <__end+0x8184ff60>
     130:	00 00 73 70 	unimp  0x7370
     134:	61 72 63 6c 	call  85c98ee4 <__end+0x45c8c38c>
     138:	65 6f 6e 2d 	call  95bdb9ec <__end+0x55bcee94>
     13c:	63 69 2e 53 	call  8da4ba88 <__end+0x4da3ef30>
     140:	00 01 00 00 	unimp  0x10000
     144:	00 00 05 02 	unimp  0x502
     148:	40 00 bc 20 	call  2f1c8 <_trap_table-0x3ffd0e38>
     14c:	03 30 01 02 	sethi  %hi(0xc0040800), %g1
     150:	01 00 01 01 	sethi  %hi(0x40400), %g0
     154:	00 05 02 40 	unimp  0x50240
     158:	00 bc 3c 03 	bn  fff0f164 <__end+0xbff0260c>
     15c:	3c 01 02 01 	unknown
     160:	00 01 01 00 	unimp  0x10100
     164:	00 00 6c 00 	unimp  0x6c00
     168:	02 00 00 00 	unknown
     16c:	58 04 01 fb 	call  60100958 <__end+0x200f3e00>
     170:	0e 0d 00 01 	unknown
     174:	01 01 01 00 	sethi  %hi(0x4040000), %g0
     178:	00 00 01 00 	unimp  0x100
     17c:	00 01 2e 2e 	unimp  0x12e2e
     180:	2f 2e 2e 2f 	sethi  %hi(0xb8b8bc00), %l7
     184:	2e 2e 2f 2e 	unknown
     188:	2e 2f 2e 2e 	unknown
     18c:	2f 6e 65 77 	unknown
     190:	6c 69 62 2d 	call  b1a58a44 <__end+0x71a4beec>
     194:	31 2e 31 33 	sethi  %hi(0xb8c4cc00), %i0
     198:	2e 30 2f 6c 	unknown
     19c:	69 62 67 6c 	call  a5899f4c <__end+0x6588d3f4>
     1a0:	6f 73 73 2f 	call  bdcdce5c <__end+0x7dcd0304>
     1a4:	73 70 61 72 	call  cdc1876c <__end+0x8dc0bc14>
     1a8:	63 5f 6c 65 	call  8d7db33c <__end+0x4d7ce7e4>
     1ac:	6f 6e 00 00 	call  bdb801ac <__end+0x7db73654>
     1b0:	70 6e 70 69 	call  c1b9c354 <__end+0x81b8f7fc>
     1b4:	6e 69 74 5f 	call  b9a5d330 <__end+0x79a507d8>
     1b8:	73 69 6d 70 	call  cda5b778 <__end+0x8da4ec20>
     1bc:	6c 65 2e 63 	call  b194bb48 <__end+0x7193eff0>
     1c0:	00 01 00 00 	unimp  0x10000
     1c4:	00 00 05 02 	unimp  0x502
     1c8:	40 00 01 b0 	call  888 <_trap_table-0x3ffff778>
     1cc:	17 13 02 02 	sethi  %hi(0x4c080800), %o3
     1d0:	00 01 01 00 	unimp  0x10100
     1d4:	00 00 a0 00 	unimp  0xa000
     1d8:	02 00 00 00 	unknown
     1dc:	52 04 01 fb 	call  481009c8 <__end+0x80f3e70>
     1e0:	0e 0d 00 01 	unknown
     1e4:	01 01 01 00 	sethi  %hi(0x4040000), %g0
     1e8:	00 00 01 00 	unimp  0x100
     1ec:	00 01 2e 2e 	unimp  0x12e2e
     1f0:	2f 2e 2e 2f 	sethi  %hi(0xb8b8bc00), %l7
     1f4:	2e 2e 2f 2e 	unknown
     1f8:	2e 2f 67 63 	unknown
     1fc:	63 2d 34 2e 	call  8cb4d2b4 <__end+0x4cb4075c>
     200:	34 2e 32 2f 	unknown
     204:	6c 69 62 67 	call  b1a58ba0 <__end+0x71a4c048>
     208:	63 63 2f 2e 	call  8d8cbec0 <__end+0x4d8bf368>
     20c:	2e 2f 67 63 	unknown
     210:	63 2f 63 6f 	call  8cbd8fcc <__end+0x4cbcc474>
     214:	6e 66 69 67 	call  b999a7b0 <__end+0x7998dc58>
     218:	2f 73 70 61 	unknown
     21c:	72 63 00 00 	call  c98c021c <__end+0x898b36c4>
     220:	6c 62 31 73 	call  b188c7ec <__end+0x7187fc94>
     224:	70 63 2e 61 	call  c18cbba8 <__end+0x818bf050>
     228:	73 6d 00 01 	call  cdb4022c <__end+0x8db336d4>
     22c:	00 00 00 00 	unimp  0
     230:	05 02 40 00 	sethi  %hi(0x9000000), %g2
     234:	7e 08 03 0d 	call  f8200e68 <__end+0xb81f4310>
     238:	01 21 21 21 	sethi  %hi(0x84848400), %g0
     23c:	21 24 21 21 	sethi  %hi(0x90848400), %l0
     240:	21 21 21 21 	sethi  %hi(0x84848400), %l0
     244:	21 21 21 21 	sethi  %hi(0x84848400), %l0
     248:	21 21 21 21 	sethi  %hi(0x84848400), %l0
     24c:	21 21 21 21 	sethi  %hi(0x84848400), %l0
     250:	21 21 21 21 	sethi  %hi(0x84848400), %l0
     254:	21 21 21 21 	sethi  %hi(0x84848400), %l0
     258:	21 21 21 21 	sethi  %hi(0x84848400), %l0
     25c:	21 21 22 21 	sethi  %hi(0x84888400), %l0
     260:	25 21 21 21 	sethi  %hi(0x84848400), %l2
     264:	21 21 21 21 	sethi  %hi(0x84848400), %l0
     268:	21 21 21 21 	sethi  %hi(0x84848400), %l0
     26c:	21 21 21 21 	sethi  %hi(0x84848400), %l0
     270:	21 21 02 01 	sethi  %hi(0x84080400), %l0
     274:	00 01 01 00 	unimp  0x10100
     278:	00 01 15 00 	unimp  0x11500
     27c:	02 00 00 00 	unknown
     280:	52 04 01 fb 	call  48100a6c <__end+0x80f3f14>
     284:	0e 0d 00 01 	unknown
     288:	01 01 01 00 	sethi  %hi(0x4040000), %g0
     28c:	00 00 01 00 	unimp  0x100
     290:	00 01 2e 2e 	unimp  0x12e2e
     294:	2f 2e 2e 2f 	sethi  %hi(0xb8b8bc00), %l7
     298:	2e 2e 2f 2e 	unknown
     29c:	2e 2f 67 63 	unknown
     2a0:	63 2d 34 2e 	call  8cb4d358 <__end+0x4cb40800>
     2a4:	34 2e 32 2f 	unknown
     2a8:	6c 69 62 67 	call  b1a58c44 <__end+0x71a4c0ec>
     2ac:	63 63 2f 2e 	call  8d8cbf64 <__end+0x4d8bf40c>
     2b0:	2e 2f 67 63 	unknown
     2b4:	63 2f 63 6f 	call  8cbd9070 <__end+0x4cbcc518>
     2b8:	6e 66 69 67 	call  b999a854 <__end+0x7998dcfc>
     2bc:	2f 73 70 61 	unknown
     2c0:	72 63 00 00 	call  c98c02c0 <__end+0x898b3768>
     2c4:	6c 62 31 73 	call  b188c890 <__end+0x7187fd38>
     2c8:	70 63 2e 61 	call  c18cbc4c <__end+0x818bf0f4>
     2cc:	73 6d 00 01 	call  cdb402d0 <__end+0x8db33778>
     2d0:	00 00 00 00 	unimp  0
     2d4:	05 02 40 00 	sethi  %hi(0x9000000), %g2
     2d8:	7e f0 03 fa 	call  fbc012c0 <__end+0xbbbf4768>
     2dc:	00 01 21 28 	unimp  0x12128
     2e0:	21 21 21 21 	sethi  %hi(0x84848400), %l0
     2e4:	21 22 21 22 	sethi  %hi(0x88848800), %l0
     2e8:	26 21 21 24 	unknown
     2ec:	21 21 23 21 	sethi  %hi(0x848c8400), %l0
     2f0:	21 21 21 21 	sethi  %hi(0x84848400), %l0
     2f4:	21 28 21 21 	sethi  %hi(0xa0848400), %l0
     2f8:	21 21 21 23 	sethi  %hi(0x84848c00), %l0
     2fc:	21 21 25 21 	sethi  %hi(0x84948400), %l0
     300:	21 21 21 23 	sethi  %hi(0x84848c00), %l0
     304:	21 21 21 21 	sethi  %hi(0x84848400), %l0
     308:	03 0f 20 21 	sethi  %hi(0x3c808400), %g1
     30c:	21 21 21 21 	sethi  %hi(0x84848400), %l0
     310:	21 22 21 21 	sethi  %hi(0x88848400), %l0
     314:	22 21 21 22 	unknown
     318:	21 23 21 21 	sethi  %hi(0x8c848400), %l0
     31c:	21 24 21 21 	sethi  %hi(0x90848400), %l0
     320:	21 21 21 22 	sethi  %hi(0x84848800), %l0
     324:	22 22 21 22 	unknown
     328:	22 21 22 22 	unknown
     32c:	21 22 22 21 	sethi  %hi(0x88888400), %l0
     330:	22 21 21 24 	unknown
     334:	21 21 25 22 	sethi  %hi(0x84948800), %l0
     338:	21 22 21 21 	sethi  %hi(0x88848400), %l0
     33c:	24 21 21 24 	unknown
     340:	22 21 22 22 	unknown
     344:	21 22 21 21 	sethi  %hi(0x88848400), %l0
     348:	24 21 21 24 	unknown
     34c:	22 21 22 21 	unknown
     350:	21 24 21 21 	sethi  %hi(0x90848400), %l0
     354:	24 22 21 22 	unknown
     358:	22 21 22 22 	unknown
     35c:	21 22 21 21 	sethi  %hi(0x88848400), %l0
     360:	24 21 21 24 	unknown
     364:	22 21 22 21 	unknown
     368:	21 24 21 21 	sethi  %hi(0x90848400), %l0
     36c:	24 22 21 22 	unknown
     370:	22 21 22 21 	unknown
     374:	21 24 21 21 	sethi  %hi(0x90848400), %l0
     378:	24 22 21 22 	unknown
     37c:	21 21 24 21 	sethi  %hi(0x84908400), %l0
     380:	21 24 21 21 	sethi  %hi(0x90848400), %l0
     384:	21 22 25 21 	sethi  %hi(0x88948400), %l0
     388:	21 22 21 02 	sethi  %hi(0x88840800), %l0
     38c:	01 00 01 01 	sethi  %hi(0x40400), %g0
     390:	00 00 01 15 	unimp  0x115
     394:	00 02 00 00 	unimp  0x20000
     398:	00 52 04 01 	unknown
     39c:	fb 0e 0d 00 	unknown
     3a0:	01 01 01 01 	sethi  %hi(0x4040400), %g0
     3a4:	00 00 00 01 	unimp  0x1
     3a8:	00 00 01 2e 	unimp  0x12e
     3ac:	2e 2f 2e 2e 	unknown
     3b0:	2f 2e 2e 2f 	sethi  %hi(0xb8b8bc00), %l7
     3b4:	2e 2e 2f 67 	unknown
     3b8:	63 63 2d 34 	call  8d8cb888 <__end+0x4d8bed30>
     3bc:	2e 34 2e 32 	unknown
     3c0:	2f 6c 69 62 	unknown
     3c4:	67 63 63 2f 	call  9d8d9080 <__end+0x5d8cc528>
     3c8:	2e 2e 2f 67 	unknown
     3cc:	63 63 2f 63 	call  8d8cc158 <__end+0x4d8bf600>
     3d0:	6f 6e 66 69 	call  bdb99d74 <__end+0x7db8d21c>
     3d4:	67 2f 73 70 	call  9cbdd194 <__end+0x5cbd063c>
     3d8:	61 72 63 00 	call  85c98fd8 <__end+0x45c8c480>
     3dc:	00 6c 62 31 	unknown
     3e0:	73 70 63 2e 	call  cdc19098 <__end+0x8dc0c540>
     3e4:	61 73 6d 00 	call  85cdb7e4 <__end+0x45ccec8c>
     3e8:	01 00 00 00 	nop 
     3ec:	00 05 02 40 	unimp  0x50240
     3f0:	00 81 a0 03 	bn  683fc <_trap_table-0x3ff97c04>
     3f4:	d7 03 01 21 	ld  [ %o4 + %g1 ], %f11
     3f8:	27 21 21 21 	sethi  %hi(0x84848400), %l3
     3fc:	21 21 22 21 	sethi  %hi(0x84888400), %l0
     400:	22 25 21 21 	unknown
     404:	24 21 21 23 	unknown
     408:	21 21 21 21 	sethi  %hi(0x84848400), %l0
     40c:	21 21 28 21 	sethi  %hi(0x84a08400), %l0
     410:	21 21 21 21 	sethi  %hi(0x84848400), %l0
     414:	23 21 21 25 	sethi  %hi(0x84849400), %l1
     418:	21 21 21 21 	sethi  %hi(0x84848400), %l0
     41c:	23 21 21 21 	sethi  %hi(0x84848400), %l1
     420:	21 03 0f 20 	sethi  %hi(0xc3c8000), %l0
     424:	21 21 21 21 	sethi  %hi(0x84848400), %l0
     428:	21 21 22 21 	sethi  %hi(0x84888400), %l0
     42c:	21 22 21 21 	sethi  %hi(0x88848400), %l0
     430:	22 21 23 21 	unknown
     434:	21 21 24 21 	sethi  %hi(0x84908400), %l0
     438:	21 21 21 21 	sethi  %hi(0x84848400), %l0
     43c:	22 22 22 21 	unknown
     440:	22 22 21 22 	unknown
     444:	22 21 22 22 	unknown
     448:	21 22 21 21 	sethi  %hi(0x88848400), %l0
     44c:	23 21 21 24 	sethi  %hi(0x84849000), %l1
     450:	22 21 22 21 	unknown
     454:	21 24 21 21 	sethi  %hi(0x90848400), %l0
     458:	24 22 21 22 	unknown
     45c:	22 21 22 21 	unknown
     460:	21 24 21 21 	sethi  %hi(0x90848400), %l0
     464:	24 22 21 22 	unknown
     468:	21 21 24 21 	sethi  %hi(0x84908400), %l0
     46c:	21 24 22 21 	sethi  %hi(0x90888400), %l0
     470:	22 22 21 22 	unknown
     474:	22 21 22 21 	unknown
     478:	21 24 21 21 	sethi  %hi(0x90848400), %l0
     47c:	24 22 21 22 	unknown
     480:	21 21 24 21 	sethi  %hi(0x84908400), %l0
     484:	21 24 22 21 	sethi  %hi(0x90888400), %l0
     488:	22 22 21 22 	unknown
     48c:	21 21 24 21 	sethi  %hi(0x84908400), %l0
     490:	21 24 22 21 	sethi  %hi(0x90888400), %l0
     494:	22 21 21 24 	unknown
     498:	21 21 24 21 	sethi  %hi(0x84908400), %l0
     49c:	21 21 22 24 	sethi  %hi(0x84889000), %l0
     4a0:	21 21 22 21 	sethi  %hi(0x84888400), %l0
     4a4:	02 01 00 01 	unknown
     4a8:	01 00 00 01 	sethi  %hi(0x400), %g0
     4ac:	16 00 02 00 	unknown
     4b0:	00 00 65 04 	unimp  0x6504
     4b4:	01 fb 0e 0d 	cbn  ffec3ce8 <__end+0xbfeb7190>
     4b8:	00 01 01 01 	unimp  0x10101
     4bc:	01 00 00 00 	nop 
     4c0:	01 00 00 01 	sethi  %hi(0x400), %g0
     4c4:	2e 2e 2f 2e 	unknown
     4c8:	2e 2f 2e 2e 	unknown
     4cc:	2f 2e 2f 67 	sethi  %hi(0xb8bd9c00), %l7
     4d0:	63 63 00 2e 	call  8d8c0588 <__end+0x4d8b3a30>
     4d4:	2e 2f 2e 2e 	unknown
     4d8:	2f 2e 2e 2f 	sethi  %hi(0xb8b8bc00), %l7
     4dc:	2e 2e 2f 67 	unknown
     4e0:	63 63 2d 34 	call  8d8cb9b0 <__end+0x4d8bee58>
     4e4:	2e 34 2e 32 	unknown
     4e8:	2f 6c 69 62 	unknown
     4ec:	67 63 63 2f 	call  9d8d91a8 <__end+0x5d8cc650>
     4f0:	2e 2e 2f 67 	unknown
     4f4:	63 63 2f 63 	call  8d8cc280 <__end+0x4d8bf728>
     4f8:	6f 6e 66 69 	call  bdb99e9c <__end+0x7db8d344>
     4fc:	67 00 00 64 	call  9c00068c <__end+0x5bff3b34>
     500:	70 2d 62 69 	call  c0b58ea4 <__end+0x80b4c34c>
     504:	74 2e 63 00 	call  d0b99104 <__end+0x90b8c5ac>
     508:	01 00 00 66 	sethi  %hi(0x19800), %g0
     50c:	70 2d 62 69 	call  c0b58eb0 <__end+0x80b4c358>
     510:	74 2e 68 00 	call  d0b9a510 <__end+0x90b8d9b8>
     514:	02 00 00 00 	unknown
     518:	00 05 02 40 	unimp  0x50240
     51c:	00 84 50 03 	bn  114528 <_trap_table-0x3feebad8>
     520:	d4 04 01 03 	ld  [ %l0 + %g3 ], %o2
     524:	c4 7c 20 03 	swap  [ %l0 + 3 ], %g2
     528:	c5 03 20 03 	ld  [ %o4 + 3 ], %f2
     52c:	bb 7c 3c 03 	unknown
     530:	c9 03 20 40 	ld  [ %o4 + 0x40 ], %f4
     534:	35 32 03 0a 	sethi  %hi(0xc80c2800), %i2
     538:	2e 03 0b 2e 	unknown
     53c:	21 24 1d 23 	sethi  %hi(0x90748c00), %l0
     540:	41 3e 3f 03 	call  4f9014c <_trap_table-0x3b06feb4>
     544:	18 08 4a 03 	unknown
     548:	68 20 03 18 	call  a08011a8 <__end+0x607f4650>
     54c:	20 03 22 3c 	unknown
     550:	2c 24 1e 22 	unknown
     554:	1d 27 7a 03 	sethi  %hi(0x9de80c00), %sp
     558:	45 2e 03 0d 	call  14b8118c <_trap_table-0x2b47ee74>
     55c:	66 5a 3e 34 	call  9968fe2c <__end+0x596832d4>
     560:	3f 1f 22 03 	sethi  %hi(0x7c880c00), %i7
     564:	0a 20 9a 24 	unknown
     568:	30 2c 22 03 	unknown
     56c:	8b 7f 20 03 	unknown
     570:	f5 00 20 2c 	ld  [ 0x2c ], %f26
     574:	03 0c 74 32 	sethi  %hi(0x31d0c800), %g1
     578:	77 2d 21 1f 	call  dcb489f4 <__end+0x9cb3be9c>
     57c:	03 9c 7f ac 	fbne  72042c <_trap_table-0x3f8dfbd4>
     580:	30 67 4b 03 	unknown
     584:	29 2e 03 75 	sethi  %hi(0xb80dd400), %l4
     588:	2e 03 30 90 	unknown
     58c:	03 70 74 03 	unknown
     590:	26 2e 03 66 	unknown
     594:	2e 1e 21 21 	unknown
     598:	1e 03 58 2e 	unknown
     59c:	3f 03 2b 08 	sethi  %hi(0xcac2000), %i7
     5a0:	9e 2a 03 59 	unknown
     5a4:	2e 03 4f ac 	unknown
     5a8:	03 8a 01 9e 	fbne  280c20 <_trap_table-0x3fd7f3e0>
     5ac:	27 23 59 4c 	sethi  %hi(0x8d653000), %l3
     5b0:	30 2c 22 30 	unknown
     5b4:	2f 03 5a 3c 	sethi  %hi(0xd68f000), %l7
     5b8:	27 23 59 4c 	sethi  %hi(0x8d653000), %l3
     5bc:	4c 2f 02 03 	call  30bc0dc8 <_trap_table-0xf43f238>
     5c0:	00 01 01 00 	unimp  0x10100
     5c4:	00 01 0f 00 	unimp  0x10f00
     5c8:	02 00 00 00 	unknown
     5cc:	65 04 01 fb 	call  94100db8 <__end+0x540f4260>
     5d0:	0e 0d 00 01 	unknown
     5d4:	01 01 01 00 	sethi  %hi(0x4040000), %g0
     5d8:	00 00 01 00 	unimp  0x100
     5dc:	00 01 2e 2e 	unimp  0x12e2e
     5e0:	2f 2e 2e 2f 	sethi  %hi(0xb8b8bc00), %l7
     5e4:	2e 2e 2f 2e 	unknown
     5e8:	2f 67 63 63 	unknown
     5ec:	00 2e 2e 2f 	unimp  0xffee2e2f
     5f0:	2e 2e 2f 2e 	unknown
     5f4:	2e 2f 2e 2e 	unknown
     5f8:	2f 67 63 63 	unknown
     5fc:	2d 34 2e 34 	sethi  %hi(0xd0b8d000), %l6
     600:	2e 32 2f 6c 	unknown
     604:	69 62 67 63 	call  a589a390 <__end+0x6588d838>
     608:	63 2f 2e 2e 	call  8cbcbec0 <__end+0x4cbbf368>
     60c:	2f 67 63 63 	unknown
     610:	2f 63 6f 6e 	unknown
     614:	66 69 67 00 	call  99a5a214 <__end+0x59a4d6bc>
     618:	00 64 70 2d 	unknown
     61c:	62 69 74 2e 	call  89a5d6d4 <__end+0x49a50b7c>
     620:	63 00 01 00 	call  8c000a20 <__end+0x4bff3ec8>
     624:	00 66 70 2d 	unknown
     628:	62 69 74 2e 	call  89a5d6e0 <__end+0x49a50b88>
     62c:	68 00 02 00 	call  a0000e2c <__end+0x5fff42d4>
     630:	00 00 00 05 	unimp  0x5
     634:	02 40 00 88 	unknown
     638:	c4 03 ac 07 	ld  [ %sp + 0xc07 ], %g2
     63c:	01 03 0a 20 	sethi  %hi(0xc288000), %g0
     640:	1d 21 22 3d 	sethi  %hi(0x8488f400), %sp
     644:	03 e1 79 4a 	cb123  ff85eb6c <__end+0xbf852014>
     648:	03 f8 04 20 	cb123  ffe016c8 <__end+0xbfdf4b70>
     64c:	41 41 35 03 	call  504da58 <_trap_table-0x3afb25a8>
     650:	09 2e 33 03 	sethi  %hi(0xb8cc0c00), %g4
     654:	30 2e 24 3a 	unknown
     658:	22 2f 29 24 	unknown
     65c:	2f 41 1b 33 	unknown
     660:	67 3f 2b 23 	call  9cfcb2ec <__end+0x5cfbe794>
     664:	21 68 6e 3d 	unknown
     668:	03 77 2e 03 	unknown
     66c:	09 20 03 77 	sethi  %hi(0x800ddc00), %g4
     670:	20 03 09 4a 	unknown
     674:	3a 31 03 0a 	unknown
     678:	58 6a 4b 1d 	call  61a932ec <__end+0x21a86794>
     67c:	25 1d 21 30 	sethi  %hi(0x7484c000), %l2
     680:	03 79 2e 27 	unknown
     684:	03 79 2e 03 	unknown
     688:	0a 3c 03 18 	unknown
     68c:	4a 1f 21 03 	call  287c8a98 <_trap_table-0x17837568>
     690:	15 2e 2f 03 	sethi  %hi(0xb8bc0c00), %o2
     694:	ae 7f 3c 3f 	sdiv  %i4, -961, %l7
     698:	3d 3d 03 11 	sethi  %hi(0xf40c4400), %fp
     69c:	3c 2b 25 1b 	unknown
     6a0:	3e 4b 30 03 	unknown
     6a4:	78 58 03 10 	call  e16012e4 <__end+0xa15f478c>
     6a8:	58 03 60 3c 	call  600d8798 <__end+0x200cbc40>
     6ac:	03 b2 7f 66 	fbne  ffca0444 <__end+0xbfc938ec>
     6b0:	03 10 4a 03 	sethi  %hi(0x41280c00), %g1
     6b4:	8f 01 66 2f 	taddcc  %g5, 0x62f, %g7
     6b8:	03 54 3c 03 	unknown
     6bc:	09 4a 42 31 	unknown
     6c0:	03 81 7f 3c 	fbne  603b0 <_trap_table-0x3ff9fc50>
     6c4:	03 0e 3c 03 	sethi  %hi(0x38f00c00), %g1
     6c8:	8a 01 66 2f 	add  %g5, 0x62f, %g5
     6cc:	03 b2 7f 3c 	fbne  ffca03bc <__end+0xbfc93864>
     6d0:	2f 02 03 00 	sethi  %hi(0x80c0000), %l7
     6d4:	01 01 00 00 	sethi  %hi(0x4000000), %g0
     6d8:	00 ea 00 02 	unknown
     6dc:	00 00 00 65 	unimp  0x65
     6e0:	04 01 fb 0e 	unknown
     6e4:	0d 00 01 01 	sethi  %hi(0x40400), %g6
     6e8:	01 01 00 00 	sethi  %hi(0x4000000), %g0
     6ec:	00 01 00 00 	unimp  0x10000
     6f0:	01 2e 2e 2f 	sethi  %hi(0xb8b8bc00), %g0
     6f4:	2e 2e 2f 2e 	unknown
     6f8:	2e 2f 2e 2f 	unknown
     6fc:	67 63 63 00 	call  9d8d92fc <__end+0x5d8cc7a4>
     700:	2e 2e 2f 2e 	unknown
     704:	2e 2f 2e 2e 	unknown
     708:	2f 2e 2e 2f 	sethi  %hi(0xb8b8bc00), %l7
     70c:	67 63 63 2d 	call  9d8d93c0 <__end+0x5d8cc868>
     710:	34 2e 34 2e 	unknown
     714:	32 2f 6c 69 	unknown
     718:	62 67 63 63 	call  899d94a4 <__end+0x499cc94c>
     71c:	2f 2e 2e 2f 	sethi  %hi(0xb8b8bc00), %l7
     720:	67 63 63 2f 	call  9d8d93dc <__end+0x5d8cc884>
     724:	63 6f 6e 66 	call  8dbdc0bc <__end+0x4dbcf564>
     728:	69 67 00 00 	call  a59c0728 <__end+0x659b3bd0>
     72c:	64 70 2d 62 	call  91c0bcb4 <__end+0x51bff15c>
     730:	69 74 2e 63 	call  a5d0c0bc <__end+0x65cff564>
     734:	00 01 00 00 	unimp  0x10000
     738:	66 70 2d 62 	call  99c0bcc0 <__end+0x59bff168>
     73c:	69 74 2e 68 	call  a5d0c0dc <__end+0x65cff584>
     740:	00 02 00 00 	unimp  0x20000
     744:	00 00 05 02 	unimp  0x502
     748:	40 00 8c 28 	call  237e8 <_trap_table-0x3ffdc818>
     74c:	03 a3 08 01 	fbne  ff8c2750 <__end+0xbf8b5bf8>
     750:	03 09 20 39 	sethi  %hi(0x2480e400), %g1
     754:	23 2f 03 9c 	sethi  %hi(0xbc0e7000), %l1
     758:	7f 4a 03 cf 	call  fd281694 <__end+0xbd274b3c>
     75c:	79 4a 03 b5 	call  e5281630 <__end+0xa5274ad8>
     760:	06 20 41 3e 	unknown
     764:	6d 34 03 0d 	call  b4d01398 <__end+0x74cf4840>
     768:	2e 30 1f 23 	unknown
     76c:	6a 03 09 66 	call  a80c2d04 <__end+0x680b61ac>
     770:	21 1f 23 21 	sethi  %hi(0x7c8c8400), %l0
     774:	1f 21 1f 21 	sethi  %hi(0x847c8400), %o7
     778:	2d 21 03 78 	sethi  %hi(0x840de000), %l6
     77c:	20 27 2f 03 	unknown
     780:	78 20 30 95 	call  e080c9d4 <__end+0xa07ffe7c>
     784:	21 1f 21 1f 	sethi  %hi(0x7c847c00), %l0
     788:	21 2d 21 03 	sethi  %hi(0xb4840c00), %l0
     78c:	78 20 27 2f 	call  e080a448 <__end+0xa07fd8f0>
     790:	03 78 20 03 	unknown
     794:	0b 2e 03 16 	sethi  %hi(0xb80c5800), %g5
     798:	4a 03 15 2e 	call  280c5c50 <_trap_table-0x17f3a3b0>
     79c:	2f 03 40 3c 	sethi  %hi(0xd00f000), %l7
     7a0:	32 1f 2f 1f 	unknown
     7a4:	03 61 58 03 	unknown
     7a8:	c6 00 4a 03 	ld  [ %g1 + %g3 ], %g3
     7ac:	6c 2e 51 42 	call  b0b94cb4 <__end+0x70b8815c>
     7b0:	31 32 03 47 	sethi  %hi(0xc80d1c00), %i0
     7b4:	2e 03 ce 00 	unknown
     7b8:	2e 2f 03 ab 	unknown
     7bc:	7f 3c 2f 02 	call  fcf0c3c4 <__end+0xbceff86c>
     7c0:	03 00 01 01 	sethi  %hi(0x40400), %g1
     7c4:	00 00 00 84 	unimp  0x84
     7c8:	00 02 00 00 	unimp  0x20000
     7cc:	00 65 04 01 	unknown
     7d0:	fb 0e 0d 00 	unknown
     7d4:	01 01 01 01 	sethi  %hi(0x4040400), %g0
     7d8:	00 00 00 01 	unimp  0x1
     7dc:	00 00 01 2e 	unimp  0x12e
     7e0:	2e 2f 2e 2e 	unknown
     7e4:	2f 2e 2e 2f 	sethi  %hi(0xb8b8bc00), %l7
     7e8:	2e 2f 67 63 	unknown
     7ec:	63 00 2e 2e 	call  8c00c0a4 <__end+0x4bfff54c>
     7f0:	2f 2e 2e 2f 	sethi  %hi(0xb8b8bc00), %l7
     7f4:	2e 2e 2f 2e 	unknown
     7f8:	2e 2f 67 63 	unknown
     7fc:	63 2d 34 2e 	call  8cb4d8b4 <__end+0x4cb40d5c>
     800:	34 2e 32 2f 	unknown
     804:	6c 69 62 67 	call  b1a591a0 <__end+0x71a4c648>
     808:	63 63 2f 2e 	call  8d8cc4c0 <__end+0x4d8bf968>
     80c:	2e 2f 67 63 	unknown
     810:	63 2f 63 6f 	call  8cbd95cc <__end+0x4cbcca74>
     814:	6e 66 69 67 	call  b999adb0 <__end+0x7998e258>
     818:	00 00 64 70 	unimp  0x6470
     81c:	2d 62 69 74 	unknown
     820:	2e 63 00 01 	unknown
     824:	00 00 66 70 	unimp  0x6670
     828:	2d 62 69 74 	unknown
     82c:	2e 68 00 02 	unknown
     830:	00 00 00 00 	unimp  0
     834:	05 02 40 00 	sethi  %hi(0x9000000), %g2
     838:	8e 64 03 a4 	unknown
     83c:	09 01 28 1d 	sethi  %hi(0x4a07400), %g4
     840:	21 22 3d 4c 	sethi  %hi(0x88f53000), %l0
     844:	77 3d 2d 02 	call  dcf4bc4c <__end+0x9cf3f0f4>
     848:	02 00 01 01 	unknown
     84c:	00 00 00 84 	unimp  0x84
     850:	00 02 00 00 	unimp  0x20000
     854:	00 65 04 01 	unknown
     858:	fb 0e 0d 00 	unknown
     85c:	01 01 01 01 	sethi  %hi(0x4040400), %g0
     860:	00 00 00 01 	unimp  0x1
     864:	00 00 01 2e 	unimp  0x12e
     868:	2e 2f 2e 2e 	unknown
     86c:	2f 2e 2e 2f 	sethi  %hi(0xb8b8bc00), %l7
     870:	2e 2f 67 63 	unknown
     874:	63 00 2e 2e 	call  8c00c12c <__end+0x4bfff5d4>
     878:	2f 2e 2e 2f 	sethi  %hi(0xb8b8bc00), %l7
     87c:	2e 2e 2f 2e 	unknown
     880:	2e 2f 67 63 	unknown
     884:	63 2d 34 2e 	call  8cb4d93c <__end+0x4cb40de4>
     888:	34 2e 32 2f 	unknown
     88c:	6c 69 62 67 	call  b1a59228 <__end+0x71a4c6d0>
     890:	63 63 2f 2e 	call  8d8cc548 <__end+0x4d8bf9f0>
     894:	2e 2f 67 63 	unknown
     898:	63 2f 63 6f 	call  8cbd9654 <__end+0x4cbccafc>
     89c:	6e 66 69 67 	call  b999ae38 <__end+0x7998e2e0>
     8a0:	00 00 64 70 	unimp  0x6470
     8a4:	2d 62 69 74 	unknown
     8a8:	2e 63 00 01 	unknown
     8ac:	00 00 66 70 	unimp  0x6670
     8b0:	2d 62 69 74 	unknown
     8b4:	2e 68 00 02 	unknown
     8b8:	00 00 00 00 	unimp  0
     8bc:	05 02 40 00 	sethi  %hi(0x9000000), %g2
     8c0:	8e c8 03 b9 	unknown
     8c4:	09 01 28 1d 	sethi  %hi(0x4a07400), %g4
     8c8:	21 22 3d 4c 	sethi  %hi(0x88f53000), %l0
     8cc:	77 3d 2d 02 	call  dcf4bcd4 <__end+0x9cf3f17c>
     8d0:	02 00 01 01 	unknown
     8d4:	00 00 00 84 	unimp  0x84
     8d8:	00 02 00 00 	unimp  0x20000
     8dc:	00 65 04 01 	unknown
     8e0:	fb 0e 0d 00 	unknown
     8e4:	01 01 01 01 	sethi  %hi(0x4040400), %g0
     8e8:	00 00 00 01 	unimp  0x1
     8ec:	00 00 01 2e 	unimp  0x12e
     8f0:	2e 2f 2e 2e 	unknown
     8f4:	2f 2e 2e 2f 	sethi  %hi(0xb8b8bc00), %l7
     8f8:	2e 2f 67 63 	unknown
     8fc:	63 00 2e 2e 	call  8c00c1b4 <__end+0x4bfff65c>
     900:	2f 2e 2e 2f 	sethi  %hi(0xb8b8bc00), %l7
     904:	2e 2e 2f 2e 	unknown
     908:	2e 2f 67 63 	unknown
     90c:	63 2d 34 2e 	call  8cb4d9c4 <__end+0x4cb40e6c>
     910:	34 2e 32 2f 	unknown
     914:	6c 69 62 67 	call  b1a592b0 <__end+0x71a4c758>
     918:	63 63 2f 2e 	call  8d8cc5d0 <__end+0x4d8bfa78>
     91c:	2e 2f 67 63 	unknown
     920:	63 2f 63 6f 	call  8cbd96dc <__end+0x4cbccb84>
     924:	6e 66 69 67 	call  b999aec0 <__end+0x7998e368>
     928:	00 00 64 70 	unimp  0x6470
     92c:	2d 62 69 74 	unknown
     930:	2e 63 00 01 	unknown
     934:	00 00 66 70 	unimp  0x6670
     938:	2d 62 69 74 	unknown
     93c:	2e 68 00 02 	unknown
     940:	00 00 00 00 	unimp  0
     944:	05 02 40 00 	sethi  %hi(0x9000000), %g2
     948:	8f 2c 03 ce 	unknown
     94c:	09 01 28 1d 	sethi  %hi(0x4a07400), %g4
     950:	21 22 3d 4c 	sethi  %hi(0x88f53000), %l0
     954:	77 3d 2d 02 	call  dcf4bd5c <__end+0x9cf3f204>
     958:	02 00 01 01 	unknown
     95c:	00 00 00 84 	unimp  0x84
     960:	00 02 00 00 	unimp  0x20000
     964:	00 65 04 01 	unknown
     968:	fb 0e 0d 00 	unknown
     96c:	01 01 01 01 	sethi  %hi(0x4040400), %g0
     970:	00 00 00 01 	unimp  0x1
     974:	00 00 01 2e 	unimp  0x12e
     978:	2e 2f 2e 2e 	unknown
     97c:	2f 2e 2e 2f 	sethi  %hi(0xb8b8bc00), %l7
     980:	2e 2f 67 63 	unknown
     984:	63 00 2e 2e 	call  8c00c23c <__end+0x4bfff6e4>
     988:	2f 2e 2e 2f 	sethi  %hi(0xb8b8bc00), %l7
     98c:	2e 2e 2f 2e 	unknown
     990:	2e 2f 67 63 	unknown
     994:	63 2d 34 2e 	call  8cb4da4c <__end+0x4cb40ef4>
     998:	34 2e 32 2f 	unknown
     99c:	6c 69 62 67 	call  b1a59338 <__end+0x71a4c7e0>
     9a0:	63 63 2f 2e 	call  8d8cc658 <__end+0x4d8bfb00>
     9a4:	2e 2f 67 63 	unknown
     9a8:	63 2f 63 6f 	call  8cbd9764 <__end+0x4cbccc0c>
     9ac:	6e 66 69 67 	call  b999af48 <__end+0x7998e3f0>
     9b0:	00 00 64 70 	unimp  0x6470
     9b4:	2d 62 69 74 	unknown
     9b8:	2e 63 00 01 	unknown
     9bc:	00 00 66 70 	unimp  0x6670
     9c0:	2d 62 69 74 	unknown
     9c4:	2e 68 00 02 	unknown
     9c8:	00 00 00 00 	unimp  0
     9cc:	05 02 40 00 	sethi  %hi(0x9000000), %g2
     9d0:	8f 90 03 e3 	unknown
     9d4:	09 01 28 1d 	sethi  %hi(0x4a07400), %g4
     9d8:	21 22 3d 4c 	sethi  %hi(0x88f53000), %l0
     9dc:	76 3d 2d 02 	call  d8f4bde4 <__end+0x98f3f28c>
     9e0:	02 00 01 01 	unknown
     9e4:	00 00 00 84 	unimp  0x84
     9e8:	00 02 00 00 	unimp  0x20000
     9ec:	00 65 04 01 	unknown
     9f0:	fb 0e 0d 00 	unknown
     9f4:	01 01 01 01 	sethi  %hi(0x4040400), %g0
     9f8:	00 00 00 01 	unimp  0x1
     9fc:	00 00 01 2e 	unimp  0x12e
     a00:	2e 2f 2e 2e 	unknown
     a04:	2f 2e 2e 2f 	sethi  %hi(0xb8b8bc00), %l7
     a08:	2e 2f 67 63 	unknown
     a0c:	63 00 2e 2e 	call  8c00c2c4 <__end+0x4bfff76c>
     a10:	2f 2e 2e 2f 	sethi  %hi(0xb8b8bc00), %l7
     a14:	2e 2e 2f 2e 	unknown
     a18:	2e 2f 67 63 	unknown
     a1c:	63 2d 34 2e 	call  8cb4dad4 <__end+0x4cb40f7c>
     a20:	34 2e 32 2f 	unknown
     a24:	6c 69 62 67 	call  b1a593c0 <__end+0x71a4c868>
     a28:	63 63 2f 2e 	call  8d8cc6e0 <__end+0x4d8bfb88>
     a2c:	2e 2f 67 63 	unknown
     a30:	63 2f 63 6f 	call  8cbd97ec <__end+0x4cbccc94>
     a34:	6e 66 69 67 	call  b999afd0 <__end+0x7998e478>
     a38:	00 00 64 70 	unimp  0x6470
     a3c:	2d 62 69 74 	unknown
     a40:	2e 63 00 01 	unknown
     a44:	00 00 66 70 	unimp  0x6670
     a48:	2d 62 69 74 	unknown
     a4c:	2e 68 00 02 	unknown
     a50:	00 00 00 00 	unimp  0
     a54:	05 02 40 00 	sethi  %hi(0x9000000), %g2
     a58:	8f f4 03 f7 	unknown
     a5c:	09 01 28 1d 	sethi  %hi(0x4a07400), %g4
     a60:	21 22 3d 4c 	sethi  %hi(0x88f53000), %l0
     a64:	77 3d 2d 02 	call  dcf4be6c <__end+0x9cf3f314>
     a68:	02 00 01 01 	unknown
     a6c:	00 00 00 a0 	unimp  0xa0
     a70:	00 02 00 00 	unimp  0x20000
     a74:	00 65 04 01 	unknown
     a78:	fb 0e 0d 00 	unknown
     a7c:	01 01 01 01 	sethi  %hi(0x4040400), %g0
     a80:	00 00 00 01 	unimp  0x1
     a84:	00 00 01 2e 	unimp  0x12e
     a88:	2e 2f 2e 2e 	unknown
     a8c:	2f 2e 2e 2f 	sethi  %hi(0xb8b8bc00), %l7
     a90:	2e 2f 67 63 	unknown
     a94:	63 00 2e 2e 	call  8c00c34c <__end+0x4bfff7f4>
     a98:	2f 2e 2e 2f 	sethi  %hi(0xb8b8bc00), %l7
     a9c:	2e 2e 2f 2e 	unknown
     aa0:	2e 2f 67 63 	unknown
     aa4:	63 2d 34 2e 	call  8cb4db5c <__end+0x4cb41004>
     aa8:	34 2e 32 2f 	unknown
     aac:	6c 69 62 67 	call  b1a59448 <__end+0x71a4c8f0>
     ab0:	63 63 2f 2e 	call  8d8cc768 <__end+0x4d8bfc10>
     ab4:	2e 2f 67 63 	unknown
     ab8:	63 2f 63 6f 	call  8cbd9874 <__end+0x4cbccd1c>
     abc:	6e 66 69 67 	call  b999b058 <__end+0x7998e500>
     ac0:	00 00 64 70 	unimp  0x6470
     ac4:	2d 62 69 74 	unknown
     ac8:	2e 63 00 01 	unknown
     acc:	00 00 66 70 	unimp  0x6670
     ad0:	2d 62 69 74 	unknown
     ad4:	2e 68 00 02 	unknown
     ad8:	00 00 00 00 	unimp  0
     adc:	05 02 40 00 	sethi  %hi(0x9000000), %g2
     ae0:	90 58 03 b5 	unknown
     ae4:	0a 01 23 2f 	unknown
     ae8:	21 3e 03 1c 	sethi  %hi(0xf80c7000), %l0
     aec:	2e 3d 03 6a 	unknown
     af0:	2e 3b 03 0e 	unknown
     af4:	20 03 72 2e 	unknown
     af8:	03 f8 76 20 	cb123  ffe1e378 <__end+0xbfe11820>
     afc:	03 97 09 2e 	fbne  5c2fb4 <_trap_table-0x3fa3d04c>
     b00:	21 3e 59 3f 	sethi  %hi(0xf964fc00), %l0
     b04:	3d 03 6e 2e 	sethi  %hi(0xdb8b800), %fp
     b08:	03 0d 82 02 	sethi  %hi(0x36080800), %g1
     b0c:	06 00 01 01 	unknown
     b10:	00 00 00 90 	unimp  0x90
     b14:	00 02 00 00 	unimp  0x20000
     b18:	00 65 04 01 	unknown
     b1c:	fb 0e 0d 00 	unknown
     b20:	01 01 01 01 	sethi  %hi(0x4040400), %g0
     b24:	00 00 00 01 	unimp  0x1
     b28:	00 00 01 2e 	unimp  0x12e
     b2c:	2e 2f 2e 2e 	unknown
     b30:	2f 2e 2e 2f 	sethi  %hi(0xb8b8bc00), %l7
     b34:	2e 2f 67 63 	unknown
     b38:	63 00 2e 2e 	call  8c00c3f0 <__end+0x4bfff898>
     b3c:	2f 2e 2e 2f 	sethi  %hi(0xb8b8bc00), %l7
     b40:	2e 2e 2f 2e 	unknown
     b44:	2e 2f 67 63 	unknown
     b48:	63 2d 34 2e 	call  8cb4dc00 <__end+0x4cb410a8>
     b4c:	34 2e 32 2f 	unknown
     b50:	6c 69 62 67 	call  b1a594ec <__end+0x71a4c994>
     b54:	63 63 2f 2e 	call  8d8cc80c <__end+0x4d8bfcb4>
     b58:	2e 2f 67 63 	unknown
     b5c:	63 2f 63 6f 	call  8cbd9918 <__end+0x4cbccdc0>
     b60:	6e 66 69 67 	call  b999b0fc <__end+0x7998e5a4>
     b64:	00 00 64 70 	unimp  0x6470
     b68:	2d 62 69 74 	unknown
     b6c:	2e 63 00 01 	unknown
     b70:	00 00 66 70 	unimp  0x6670
     b74:	2d 62 69 74 	unknown
     b78:	2e 68 00 02 	unknown
     b7c:	00 00 00 00 	unimp  0
     b80:	05 02 40 00 	sethi  %hi(0x9000000), %g2
     b84:	91 30 03 83 	unknown
     b88:	0b 01 25 21 	sethi  %hi(0x4948400), %g5
     b8c:	03 a0 76 3c 	fbne  ff81e47c <__end+0xbf811924>
     b90:	03 e2 09 20 	cb123  ff883010 <__end+0xbf8764b8>
     b94:	3e 31 31 3e 	unknown
     b98:	2f 4c 49 67 	unknown
     b9c:	8f 67 4b 02 	unknown
     ba0:	04 00 01 01 	unknown
     ba4:	00 00 00 6b 	unimp  0x6b
     ba8:	00 02 00 00 	unimp  0x20000
     bac:	00 65 04 01 	unknown
     bb0:	fb 0e 0d 00 	unknown
     bb4:	01 01 01 01 	sethi  %hi(0x4040400), %g0
     bb8:	00 00 00 01 	unimp  0x1
     bbc:	00 00 01 2e 	unimp  0x12e
     bc0:	2e 2f 2e 2e 	unknown
     bc4:	2f 2e 2e 2f 	sethi  %hi(0xb8b8bc00), %l7
     bc8:	2e 2e 2f 67 	unknown
     bcc:	63 63 2d 34 	call  8d8cc09c <__end+0x4d8bf544>
     bd0:	2e 34 2e 32 	unknown
     bd4:	2f 6c 69 62 	unknown
     bd8:	67 63 63 2f 	call  9d8d9894 <__end+0x5d8ccd3c>
     bdc:	2e 2e 2f 67 	unknown
     be0:	63 63 2f 63 	call  8d8cc96c <__end+0x4d8bfe14>
     be4:	6f 6e 66 69 	call  bdb9a588 <__end+0x7db8da30>
     be8:	67 00 2e 2e 	call  9c00c4a0 <__end+0x5bfff948>
     bec:	2f 2e 2e 2f 	sethi  %hi(0xb8b8bc00), %l7
     bf0:	2e 2e 2f 2e 	unknown
     bf4:	2f 67 63 63 	unknown
     bf8:	00 00 66 70 	unimp  0x6670
     bfc:	2d 62 69 74 	unknown
     c00:	2e 68 00 01 	unknown
     c04:	00 00 64 70 	unimp  0x6470
     c08:	2d 62 69 74 	unknown
     c0c:	2e 63 00 02 	unknown
     c10:	00 00 00 00 	unimp  0
     c14:	00 00 a9 00 	unimp  0xa900
     c18:	02 00 00 00 	unknown
     c1c:	65 04 01 fb 	call  94101408 <__end+0x540f48b0>
     c20:	0e 0d 00 01 	unknown
     c24:	01 01 01 00 	sethi  %hi(0x4040000), %g0
     c28:	00 00 01 00 	unimp  0x100
     c2c:	00 01 2e 2e 	unimp  0x12e2e
     c30:	2f 2e 2e 2f 	sethi  %hi(0xb8b8bc00), %l7
     c34:	2e 2e 2f 2e 	unknown
     c38:	2f 67 63 63 	unknown
     c3c:	00 2e 2e 2f 	unimp  0xffee2e2f
     c40:	2e 2e 2f 2e 	unknown
     c44:	2e 2f 2e 2e 	unknown
     c48:	2f 67 63 63 	unknown
     c4c:	2d 34 2e 34 	sethi  %hi(0xd0b8d000), %l6
     c50:	2e 32 2f 6c 	unknown
     c54:	69 62 67 63 	call  a589a9e0 <__end+0x6588de88>
     c58:	63 2f 2e 2e 	call  8cbcc510 <__end+0x4cbbf9b8>
     c5c:	2f 67 63 63 	unknown
     c60:	2f 63 6f 6e 	unknown
     c64:	66 69 67 00 	call  99a5a864 <__end+0x59a4dd0c>
     c68:	00 64 70 2d 	unknown
     c6c:	62 69 74 2e 	call  89a5dd24 <__end+0x49a511cc>
     c70:	63 00 01 00 	call  8c001070 <__end+0x4bff4518>
     c74:	00 66 70 2d 	unknown
     c78:	62 69 74 2e 	call  89a5dd30 <__end+0x49a511d8>
     c7c:	68 00 02 00 	call  a000147c <__end+0x5fff4924>
     c80:	00 00 00 05 	unimp  0x5
     c84:	02 40 00 92 	unknown
     c88:	0c 03 df 0a 	unknown
     c8c:	01 24 03 d7 	sethi  %hi(0x900f5c00), %g0
     c90:	76 3c 03 b2 	call  d8f01b58 <__end+0x98ef5000>
     c94:	09 20 2c 2f 	sethi  %hi(0x80b0bc00), %g4
     c98:	21 03 ce 76 	sethi  %hi(0xf39d800), %l0
     c9c:	20 03 b5 09 	unknown
     ca0:	2e 43 30 4b 	unknown
     ca4:	3f 2f 03 68 	sethi  %hi(0xbc0da000), %i7
     ca8:	3c 03 17 20 	unknown
     cac:	3d 37 03 79 	sethi  %hi(0xdc0de400), %fp
     cb0:	66 22 08 59 	call  98882e14 <__end+0x588762bc>
     cb4:	2d 21 28 2f 	sethi  %hi(0x84a0bc00), %l6
     cb8:	03 76 3c 02 	unknown
     cbc:	04 00 01 01 	unknown
     cc0:	00 00 00 6d 	unimp  0x6d
     cc4:	00 02 00 00 	unimp  0x20000
     cc8:	00 51 04 01 	unknown
     ccc:	fb 0e 0d 00 	unknown
     cd0:	01 01 01 01 	sethi  %hi(0x4040400), %g0
     cd4:	00 00 00 01 	unimp  0x1
     cd8:	00 00 01 2e 	unimp  0x12e
     cdc:	2e 2f 2e 2e 	unknown
     ce0:	2f 2e 2e 2f 	sethi  %hi(0xb8b8bc00), %l7
     ce4:	2e 2e 2f 67 	unknown
     ce8:	63 63 2d 34 	call  8d8cc1b8 <__end+0x4d8bf660>
     cec:	2e 34 2e 32 	unknown
     cf0:	2f 6c 69 62 	unknown
     cf4:	67 63 63 2f 	call  9d8d99b0 <__end+0x5d8cce58>
     cf8:	2e 2e 2f 67 	unknown
     cfc:	63 63 00 00 	call  8d8c0cfc <__end+0x4d8b41a4>
     d00:	6c 69 62 67 	call  b1a5969c <__end+0x71a4cb44>
     d04:	63 63 32 2e 	call  8d8cd5bc <__end+0x4d8c0a64>
     d08:	63 00 01 00 	call  8c001108 <__end+0x4bff45b0>
     d0c:	00 6c 69 62 	unknown
     d10:	67 63 63 32 	call  9d8d99d8 <__end+0x5d8cce80>
     d14:	2e 68 00 01 	unknown
     d18:	00 00 00 00 	unimp  0
     d1c:	05 02 40 00 	sethi  %hi(0x9000000), %g2
     d20:	93 48 03 a8 	unknown
     d24:	04 01 23 02 	unknown
     d28:	27 11 23 86 	sethi  %hi(0x448e1800), %l3
     d2c:	02 02 00 01 	unknown
     d30:	01 00 00 00 	nop 
     d34:	6d 00 02 00 	call  b4001534 <__end+0x73ff49dc>
     d38:	00 00 51 04 	unimp  0x5104
     d3c:	01 fb 0e 0d 	cbn  ffec4570 <__end+0xbfeb7a18>
     d40:	00 01 01 01 	unimp  0x10101
     d44:	01 00 00 00 	nop 
     d48:	01 00 00 01 	sethi  %hi(0x400), %g0
     d4c:	2e 2e 2f 2e 	unknown
     d50:	2e 2f 2e 2e 	unknown
     d54:	2f 2e 2e 2f 	sethi  %hi(0xb8b8bc00), %l7
     d58:	67 63 63 2d 	call  9d8d9a0c <__end+0x5d8cceb4>
     d5c:	34 2e 34 2e 	unknown
     d60:	32 2f 6c 69 	unknown
     d64:	62 67 63 63 	call  899d9af0 <__end+0x499ccf98>
     d68:	2f 2e 2e 2f 	sethi  %hi(0xb8b8bc00), %l7
     d6c:	67 63 63 00 	call  9d8d996c <__end+0x5d8cce14>
     d70:	00 6c 69 62 	unknown
     d74:	67 63 63 32 	call  9d8d9a3c <__end+0x5d8ccee4>
     d78:	2e 63 00 01 	unknown
     d7c:	00 00 6c 69 	unimp  0x6c69
     d80:	62 67 63 63 	call  899d9b0c <__end+0x499ccfb4>
     d84:	32 2e 68 00 	unknown
     d88:	01 00 00 00 	nop 
     d8c:	00 05 02 40 	unimp  0x50240
     d90:	00 94 14 03 	bn  505d9c <_trap_table-0x3fafa264>
     d94:	8d 09 01 16 	unknown
     d98:	3e 30 30 31 	unknown
     d9c:	47 02 02 00 	call  1c08159c <_trap_table-0x23f7ea64>
     da0:	01 01 00 00 	sethi  %hi(0x4000000), %g0
     da4:	00 79 00 02 	unknown
     da8:	00 00 00 5f 	unimp  0x5f
     dac:	04 01 fb 0e 	unknown
     db0:	0d 00 01 01 	sethi  %hi(0x40400), %g6
     db4:	01 01 00 00 	sethi  %hi(0x4000000), %g0
     db8:	00 01 00 00 	unimp  0x10000
     dbc:	01 2e 2e 2f 	sethi  %hi(0xb8b8bc00), %g0
     dc0:	2e 2e 2f 2e 	unknown
     dc4:	2e 2f 2e 2e 	unknown
     dc8:	2f 67 63 63 	unknown
     dcc:	2d 34 2e 34 	sethi  %hi(0xd0b8d000), %l6
     dd0:	2e 32 2f 6c 	unknown
     dd4:	69 62 67 63 	call  a589ab60 <__end+0x6588e008>
     dd8:	63 2f 2e 2e 	call  8cbcc690 <__end+0x4cbbfb38>
     ddc:	2f 67 63 63 	unknown
     de0:	00 00 6c 69 	unimp  0x6c69
     de4:	62 67 63 63 	call  899d9b70 <__end+0x499cd018>
     de8:	32 2e 63 00 	unknown
     dec:	01 00 00 6c 	sethi  %hi(0x1b000), %g0
     df0:	69 62 67 63 	call  a589ab7c <__end+0x6588e024>
     df4:	63 32 2e 68 	call  8cc8c794 <__end+0x4cc7fc3c>
     df8:	00 01 00 00 	unimp  0x10000
     dfc:	6c 6f 6e 67 	call  b1bdc798 <__end+0x71bcfc40>
     e00:	6c 6f 6e 67 	call  b1bdc79c <__end+0x71bcfc44>
     e04:	2e 68 00 01 	unknown
     e08:	00 00 00 00 	unimp  0
     e0c:	05 02 40 00 	sethi  %hi(0x9000000), %g2
     e10:	94 50 03 c5 	unknown
     e14:	05 01 15 e7 	sethi  %hi(0x4579c00), %g2
     e18:	2b af 02 02 	fbug,a   ffbc1620 <__end+0xbfbb4ac8>
     e1c:	00 01 01 00 	unimp  0x10100
     e20:	00 00 ca 00 	unimp  0xca00
     e24:	02 00 00 00 	unknown
     e28:	65 04 01 fb 	call  94101614 <__end+0x540f4abc>
     e2c:	0e 0d 00 01 	unknown
     e30:	01 01 01 00 	sethi  %hi(0x4040000), %g0
     e34:	00 00 01 00 	unimp  0x100
     e38:	00 01 2e 2e 	unimp  0x12e2e
     e3c:	2f 2e 2e 2f 	sethi  %hi(0xb8b8bc00), %l7
     e40:	2e 2e 2f 2e 	unknown
     e44:	2f 67 63 63 	unknown
     e48:	00 2e 2e 2f 	unimp  0xffee2e2f
     e4c:	2e 2e 2f 2e 	unknown
     e50:	2e 2f 2e 2e 	unknown
     e54:	2f 67 63 63 	unknown
     e58:	2d 34 2e 34 	sethi  %hi(0xd0b8d000), %l6
     e5c:	2e 32 2f 6c 	unknown
     e60:	69 62 67 63 	call  a589abec <__end+0x6588e094>
     e64:	63 2f 2e 2e 	call  8cbcc71c <__end+0x4cbbfbc4>
     e68:	2f 67 63 63 	unknown
     e6c:	2f 63 6f 6e 	unknown
     e70:	66 69 67 00 	call  99a5aa70 <__end+0x59a4df18>
     e74:	00 64 70 2d 	unknown
     e78:	62 69 74 2e 	call  89a5df30 <__end+0x49a513d8>
     e7c:	63 00 01 00 	call  8c00127c <__end+0x4bff4724>
     e80:	00 66 70 2d 	unknown
     e84:	62 69 74 2e 	call  89a5df3c <__end+0x49a513e4>
     e88:	68 00 02 00 	call  a0001688 <__end+0x5fff4b30>
     e8c:	00 00 00 05 	unimp  0x5
     e90:	02 40 00 94 	unknown
     e94:	c8 03 c8 01 	ld  [ %o7 + %g1 ], %g4
     e98:	01 03 50 20 	sethi  %hi(0xd408000), %g0
     e9c:	03 3e 20 03 	sethi  %hi(0xf8800c00), %g1
     ea0:	74 20 03 0c 	call  d0801ad0 <__end+0x907f4f78>
     ea4:	20 03 0c 2e 	unknown
     ea8:	41 33 34 03 	call  4ccdeb4 <_trap_table-0x3b33214c>
     eac:	2e 4a 03 0e 	unknown
     eb0:	2e 52 30 5a 	unknown
     eb4:	4b 1f 2f cd 	call  2c7ccde8 <_trap_table-0x13833218>
     eb8:	03 f5 00 66 	cb123  ffd41050 <__end+0xbfd344f8>
     ebc:	03 8b 7f 2e 	fbne  2e0b74 <_trap_table-0x3fd1f48c>
     ec0:	03 f5 00 9e 	cb123  ffd41138 <__end+0xbfd345e0>
     ec4:	03 fb 7e 2e 	cb123  ffee077c <__end+0xbfed3c24>
     ec8:	59 03 0f 3c 	call  640c4bb8 <__end+0x240b8060>
     ecc:	03 96 7f 58 	fbne  5a0c2c <_trap_table-0x3fa5f3d4>
     ed0:	03 29 c8 03 	sethi  %hi(0xa7200c00), %g1
     ed4:	11 20 03 6f 	sethi  %hi(0x800dbc00), %o0
     ed8:	20 03 11 20 	unknown
     edc:	03 73 20 44 	unknown
     ee0:	08 84 5b 08 	bleu  117b00 <_trap_table-0x3fee8500>
     ee4:	3b 59 2d 83 	unknown
     ee8:	02 02 00 01 	unknown
     eec:	01 00 00 00 	nop 
     ef0:	a7 00 02 00 	unknown
     ef4:	00 00 65 04 	unimp  0x6504
     ef8:	01 fb 0e 0d 	cbn  ffec472c <__end+0xbfeb7bd4>
     efc:	00 01 01 01 	unimp  0x10101
     f00:	01 00 00 00 	nop 
     f04:	01 00 00 01 	sethi  %hi(0x400), %g0
     f08:	2e 2e 2f 2e 	unknown
     f0c:	2e 2f 2e 2e 	unknown
     f10:	2f 2e 2f 67 	sethi  %hi(0xb8bd9c00), %l7
     f14:	63 63 00 2e 	call  8d8c0fcc <__end+0x4d8b4474>
     f18:	2e 2f 2e 2e 	unknown
     f1c:	2f 2e 2e 2f 	sethi  %hi(0xb8b8bc00), %l7
     f20:	2e 2e 2f 67 	unknown
     f24:	63 63 2d 34 	call  8d8cc3f4 <__end+0x4d8bf89c>
     f28:	2e 34 2e 32 	unknown
     f2c:	2f 6c 69 62 	unknown
     f30:	67 63 63 2f 	call  9d8d9bec <__end+0x5d8cd094>
     f34:	2e 2e 2f 67 	unknown
     f38:	63 63 2f 63 	call  8d8cccc4 <__end+0x4d8c016c>
     f3c:	6f 6e 66 69 	call  bdb9a8e0 <__end+0x7db8dd88>
     f40:	67 00 00 64 	call  9c0010d0 <__end+0x5bff4578>
     f44:	70 2d 62 69 	call  c0b598e8 <__end+0x80b4cd90>
     f48:	74 2e 63 00 	call  d0b99b48 <__end+0x90b8cff0>
     f4c:	01 00 00 66 	sethi  %hi(0x19800), %g0
     f50:	70 2d 62 69 	call  c0b598f4 <__end+0x80b4cd9c>
     f54:	74 2e 68 00 	call  d0b9af54 <__end+0x90b8e3fc>
     f58:	02 00 00 00 	unknown
     f5c:	00 05 02 40 	unimp  0x50240
     f60:	00 97 70 03 	bn  5dcf6c <_trap_table-0x3fa23094>
     f64:	bb 03 01 03 	unknown
     f68:	c8 00 20 26 	ld  [ 0x26 ], %g4
     f6c:	03 7a 2e 59 	unknown
     f70:	26 3f 03 0e 	unknown
     f74:	3c 23 2c 40 	unknown
     f78:	1c 24 5a 56 	unknown
     f7c:	50 4d 03 20 	call  41341bfc <__end+0x13350a4>
     f80:	3c 21 1e 21 	unknown
     f84:	21 03 4a 9e 	sethi  %hi(0xd2a7800), %l0
     f88:	03 19 4a 03 	sethi  %hi(0x65280c00), %g1
     f8c:	0b 3c 4d 35 	sethi  %hi(0xf134d400), %g5
     f90:	03 6e 3c 02 	unknown
     f94:	04 00 01 01 	unknown
     f98:	00 00 00 b5 	unimp  0xb5
     f9c:	00 02 00 00 	unimp  0x20000
     fa0:	00 65 04 01 	unknown
     fa4:	fb 0e 0d 00 	unknown
     fa8:	01 01 01 01 	sethi  %hi(0x4040400), %g0
     fac:	00 00 00 01 	unimp  0x1
     fb0:	00 00 01 2e 	unimp  0x12e
     fb4:	2e 2f 2e 2e 	unknown
     fb8:	2f 2e 2e 2f 	sethi  %hi(0xb8b8bc00), %l7
     fbc:	2e 2f 67 63 	unknown
     fc0:	63 00 2e 2e 	call  8c00c878 <__end+0x4bfffd20>
     fc4:	2f 2e 2e 2f 	sethi  %hi(0xb8b8bc00), %l7
     fc8:	2e 2e 2f 2e 	unknown
     fcc:	2e 2f 67 63 	unknown
     fd0:	63 2d 34 2e 	call  8cb4e088 <__end+0x4cb41530>
     fd4:	34 2e 32 2f 	unknown
     fd8:	6c 69 62 67 	call  b1a59974 <__end+0x71a4ce1c>
     fdc:	63 63 2f 2e 	call  8d8ccc94 <__end+0x4d8c013c>
     fe0:	2e 2f 67 63 	unknown
     fe4:	63 2f 63 6f 	call  8cbd9da0 <__end+0x4cbcd248>
     fe8:	6e 66 69 67 	call  b999b584 <__end+0x7998ea2c>
     fec:	00 00 64 70 	unimp  0x6470
     ff0:	2d 62 69 74 	unknown
     ff4:	2e 63 00 01 	unknown
     ff8:	00 00 66 70 	unimp  0x6670
     ffc:	2d 62 69 74 	unknown
    1000:	2e 68 00 02 	unknown
    1004:	00 00 00 00 	unimp  0
    1008:	05 02 40 00 	sethi  %hi(0x9000000), %g2
    100c:	98 ac 03 bf 	unknown
    1010:	08 01 03 d9 	unknown
    1014:	78 20 03 b0 	call  e0801ed4 <__end+0xa07f537c>
    1018:	07 20 03 d0 	sethi  %hi(0x800f4000), %g3
    101c:	78 3c 03 b0 	call  e0f01edc <__end+0xa0ef5384>
    1020:	07 20 40 03 	sethi  %hi(0x81000c00), %g3
    1024:	12 2e 32 36 	unknown
    1028:	33 03 11 4a 	sethi  %hi(0xc452800), %i1
    102c:	40 03 5e 2e 	call  d88e4 <_trap_table-0x3ff2771c>
    1030:	34 03 1c 4a 	unknown
    1034:	03 68 2e 03 	unknown
    1038:	18 3c 03 71 	unknown
    103c:	2e 4e 41 94 	unknown
    1040:	84 40 03 76 	unknown
    1044:	2e 30 03 4c 	unknown
    1048:	2e 03 0b 2e 	unknown
    104c:	02 04 00 01 	unknown
    1050:	01 00 00 00 	nop 
    1054:	74 00 02 00 	call  d0001854 <__end+0x8fff4cfc>
    1058:	00 00 51 04 	unimp  0x5104
    105c:	01 fb 0e 0d 	cbn  ffec4890 <__end+0xbfeb7d38>
    1060:	00 01 01 01 	unimp  0x10101
    1064:	01 00 00 00 	nop 
    1068:	01 00 00 01 	sethi  %hi(0x400), %g0
    106c:	2e 2e 2f 2e 	unknown
    1070:	2e 2f 2e 2e 	unknown
    1074:	2f 2e 2e 2f 	sethi  %hi(0xb8b8bc00), %l7
    1078:	67 63 63 2d 	call  9d8d9d2c <__end+0x5d8cd1d4>
    107c:	34 2e 34 2e 	unknown
    1080:	32 2f 6c 69 	unknown
    1084:	62 67 63 63 	call  899d9e10 <__end+0x499cd2b8>
    1088:	2f 2e 2e 2f 	sethi  %hi(0xb8b8bc00), %l7
    108c:	67 63 63 00 	call  9d8d9c8c <__end+0x5d8cd134>
    1090:	00 6c 69 62 	unknown
    1094:	67 63 63 32 	call  9d8d9d5c <__end+0x5d8cd204>
    1098:	2e 63 00 01 	unknown
    109c:	00 00 6c 69 	unimp  0x6c69
    10a0:	62 67 63 63 	call  899d9e2c <__end+0x499cd2d4>
    10a4:	32 2e 68 00 	unknown
    10a8:	01 00 00 00 	nop 
    10ac:	00 05 02 40 	unimp  0x50240
    10b0:	00 99 e4 03 	bn  67a0bc <_trap_table-0x3f985f44>
    10b4:	98 03 01 13 	unknown
    10b8:	40 23 03 0a 	call  8c1ce0 <_trap_table-0x3f73e320>
    10bc:	3c 2d 21 24 	unknown
    10c0:	03 75 2e 1f 	unknown
    10c4:	02 02 00 01 	unknown
    10c8:	01 00 00 00 	nop 
    10cc:	74 00 02 00 	call  d00018cc <__end+0x8fff4d74>
    10d0:	00 00 51 04 	unimp  0x5104
    10d4:	01 fb 0e 0d 	cbn  ffec4908 <__end+0xbfeb7db0>
    10d8:	00 01 01 01 	unimp  0x10101
    10dc:	01 00 00 00 	nop 
    10e0:	01 00 00 01 	sethi  %hi(0x400), %g0
    10e4:	2e 2e 2f 2e 	unknown
    10e8:	2e 2f 2e 2e 	unknown
    10ec:	2f 2e 2e 2f 	sethi  %hi(0xb8b8bc00), %l7
    10f0:	67 63 63 2d 	call  9d8d9da4 <__end+0x5d8cd24c>
    10f4:	34 2e 34 2e 	unknown
    10f8:	32 2f 6c 69 	unknown
    10fc:	62 67 63 63 	call  899d9e88 <__end+0x499cd330>
    1100:	2f 2e 2e 2f 	sethi  %hi(0xb8b8bc00), %l7
    1104:	67 63 63 00 	call  9d8d9d04 <__end+0x5d8cd1ac>
    1108:	00 6c 69 62 	unknown
    110c:	67 63 63 32 	call  9d8d9dd4 <__end+0x5d8cd27c>
    1110:	2e 63 00 01 	unknown
    1114:	00 00 6c 69 	unimp  0x6c69
    1118:	62 67 63 63 	call  899d9ea4 <__end+0x499cd34c>
    111c:	32 2e 68 00 	unknown
    1120:	01 00 00 00 	nop 
    1124:	00 05 02 40 	unimp  0x50240
    1128:	00 9a 24 03 	bn  68a134 <_trap_table-0x3f975ecc>
    112c:	b4 03 01 13 	unknown
    1130:	40 23 03 0a 	call  8c1d58 <_trap_table-0x3f73e2a8>
    1134:	3c 2d 21 24 	unknown
    1138:	03 75 2e 1f 	unknown
    113c:	02 02 00 01 	unknown
    1140:	01 00 00 00 	nop 
    1144:	57 00 02 00 	call  5c001944 <__end+0x1bff4dec>
    1148:	00 00 51 04 	unimp  0x5104
    114c:	01 fb 0e 0d 	cbn  ffec4980 <__end+0xbfeb7e28>
    1150:	00 01 01 01 	unimp  0x10101
    1154:	01 00 00 00 	nop 
    1158:	01 00 00 01 	sethi  %hi(0x400), %g0
    115c:	2e 2e 2f 2e 	unknown
    1160:	2e 2f 2e 2e 	unknown
    1164:	2f 2e 2e 2f 	sethi  %hi(0xb8b8bc00), %l7
    1168:	67 63 63 2d 	call  9d8d9e1c <__end+0x5d8cd2c4>
    116c:	34 2e 34 2e 	unknown
    1170:	32 2f 6c 69 	unknown
    1174:	62 67 63 63 	call  899d9f00 <__end+0x499cd3a8>
    1178:	2f 2e 2e 2f 	sethi  %hi(0xb8b8bc00), %l7
    117c:	67 63 63 00 	call  9d8d9d7c <__end+0x5d8cd224>
    1180:	00 6c 69 62 	unknown
    1184:	67 63 63 32 	call  9d8d9e4c <__end+0x5d8cd2f4>
    1188:	2e 68 00 01 	unknown
    118c:	00 00 6c 69 	unimp  0x6c69
    1190:	62 67 63 63 	call  899d9f1c <__end+0x499cd3c4>
    1194:	32 2e 63 00 	unknown
    1198:	01 00 00 00 	nop 
    119c:	00 00 00 43 	unimp  0x43
    11a0:	00 02 00 00 	unimp  0x20000
    11a4:	00 1d 04 01 	unimp  0x1d0401
    11a8:	fb 0e 0d 00 	unknown
    11ac:	01 01 01 01 	sethi  %hi(0x4040400), %g0
    11b0:	00 00 00 01 	unimp  0x1
    11b4:	00 00 01 00 	unimp  0x100
    11b8:	63 72 74 6e 	call  8dc9e370 <__end+0x4dc91818>
    11bc:	2e 73 00 00 	unknown
    11c0:	00 00 00 00 	unimp  0
    11c4:	05 02 40 00 	sethi  %hi(0x9000000), %g2
    11c8:	bc 34 03 2c 	unknown
    11cc:	01 21 02 01 	sethi  %hi(0x84080400), %g0
    11d0:	00 01 01 00 	unimp  0x10100
    11d4:	05 02 40 00 	sethi  %hi(0x9000000), %g2
    11d8:	bc 48 03 38 	unknown
    11dc:	01 21 02 01 	sethi  %hi(0x84080400), %g0
    11e0:	Address 0x000011e0 is out of bounds.


Disassembly of section .debug_str:

00000000 <.debug_str>:
   0:	70 6e 70 69 	call  c1b9c1a4 <__end+0x81b8f64c>
   4:	6e 69 74 00 	call  b9a5d004 <__end+0x79a504ac>
   8:	2f 68 6f 6d 	unknown
   c:	65 2f 62 75 	call  94bd89e0 <__end+0x54bcbe88>
  10:	69 6c 64 2f 	call  a5b190cc <__end+0x65b0c574>
  14:	62 63 63 2f 	call  898d8cd0 <__end+0x498cc178>
  18:	42 43 43 5f 	call  90d0d94 <_trap_table-0x36f2f26c>
  1c:	52 45 50 2f 	call  491540d8 <__end+0x9147580>
  20:	67 63 63 2d 	call  9d8d8cd4 <__end+0x5d8cc17c>
  24:	34 2e 34 2e 	unknown
  28:	32 2d 31 2e 	unknown
  2c:	30 2e 35 30 	unknown
  30:	6e 65 77 6c 	call  b995dde0 <__end+0x79951288>
  34:	69 62 2d 31 	call  a588b4f8 <__end+0x6587e9a0>
  38:	2e 31 33 2e 	unknown
  3c:	30 2d 62 75 	unknown
  40:	69 6c 64 2f 	call  a5b190fc <__end+0x65b0c5a4>
  44:	73 70 61 72 	call  cdc1860c <__end+0x8dc0bab4>
  48:	63 2d 65 6c 	call  8cb595f8 <__end+0x4cb4caa0>
  4c:	66 2f 73 6f 	call  98bdce08 <__end+0x58bd02b0>
  50:	66 74 2f 6c 	call  99d0be00 <__end+0x59cff2a8>
  54:	69 62 67 6c 	call  a5899e04 <__end+0x6588d2ac>
  58:	6f 73 73 2f 	call  bdcdcd14 <__end+0x7dcd01bc>
  5c:	73 70 61 72 	call  cdc18624 <__end+0x8dc0bacc>
  60:	63 5f 6c 65 	call  8d7db1f4 <__end+0x4d7ce69c>
  64:	6f 6e 00 73 	call  bdb80230 <__end+0x7db736d8>
  68:	68 6f 72 74 	call  a1bdca38 <__end+0x61bcfee0>
  6c:	20 75 6e 73 	unknown
  70:	69 67 6e 65 	call  a59dba04 <__end+0x659ceeac>
  74:	64 20 69 6e 	call  9081a62c <__end+0x5080dad4>
  78:	74 00 2e 2e 	call  d000b930 <__end+0x8fffedd8>
  7c:	2f 2e 2e 2f 	sethi  %hi(0xb8b8bc00), %l7
  80:	2e 2e 2f 2e 	unknown
  84:	2e 2f 2e 2e 	unknown
  88:	2f 6e 65 77 	unknown
  8c:	6c 69 62 2d 	call  b1a58940 <__end+0x71a4bde8>
  90:	31 2e 31 33 	sethi  %hi(0xb8c4cc00), %i0
  94:	2e 30 2f 6c 	unknown
  98:	69 62 67 6c 	call  a5899e48 <__end+0x6588d2f0>
  9c:	6f 73 73 2f 	call  bdcdcd58 <__end+0x7dcd0200>
  a0:	73 70 61 72 	call  cdc18668 <__end+0x8dc0bb10>
  a4:	63 5f 6c 65 	call  8d7db238 <__end+0x4d7ce6e0>
  a8:	6f 6e 2f 70 	call  bdb8be68 <__end+0x7db7f310>
  ac:	6e 70 69 6e 	call  b9c1a664 <__end+0x79c0db0c>
  b0:	69 74 5f 73 	call  a5d17e7c <__end+0x65d0b324>
  b4:	69 6d 70 6c 	call  a5b5c264 <__end+0x65b4f70c>
  b8:	65 2e 63 00 	call  94b98cb8 <__end+0x54b8c160>
  bc:	73 68 6f 72 	call  cda1be84 <__end+0x8da0f32c>
  c0:	74 20 69 6e 	call  d081a678 <__end+0x9080db20>
  c4:	74 00 6c 6f 	call  d001b280 <__end+0x9000e728>
  c8:	6e 67 20 6c 	call  b99c8278 <__end+0x799bb720>
  cc:	6f 6e 67 20 	call  bdb99d4c <__end+0x7db8d1f4>
  d0:	75 6e 73 69 	call  d5b9ce74 <__end+0x95b9031c>
  d4:	67 6e 65 64 	call  9db99664 <__end+0x5db8cb0c>
  d8:	20 69 6e 74 	unknown
  dc:	00 75 6e 73 	unknown
  e0:	69 67 6e 65 	call  a59dba74 <__end+0x659cef1c>
  e4:	64 20 63 68 	call  90818e84 <__end+0x5080c32c>
  e8:	61 72 00 47 	call  85c80204 <__end+0x45c736ac>
  ec:	4e 55 20 43 	call  395481f8 <_trap_table-0x6ab7e08>
  f0:	20 34 2e 34 	unknown
  f4:	2e 32 00 6c 	unknown
  f8:	6f 6e 67 20 	call  bdb99d78 <__end+0x7db8d220>
  fc:	6c 6f 6e 67 	call  b1bdba98 <__end+0x71bcef40>
 100:	20 69 6e 74 	unknown
 104:	00 73 64 69 	unknown
 108:	66 66 00 43 	call  99980214 <__end+0x599736bc>
 10c:	4c 41 53 53 	call  31054e58 <_trap_table-0xefab1a8>
 110:	5f 5a 45 52 	call  7d691658 <__end+0x3d684b00>
 114:	4f 00 61 5f 	call  3c018690 <_trap_table-0x3fe7970>
 118:	6e 6f 72 6d 	call  b9bdcacc <__end+0x79bcff74>
 11c:	61 6c 5f 65 	call  85b17eb0 <__end+0x45b0b358>
 120:	78 70 00 69 	call  e1c002c4 <__end+0xa1bf376c>
 124:	73 6e 61 6e 	call  cdb986dc <__end+0x8db8bb84>
 128:	00 76 61 6c 	unknown
 12c:	75 65 00 5f 	call  d59402a8 <__end+0x95933750>
 130:	5f 61 64 64 	call  7d8592c0 <__end+0x3d84c768>
 134:	64 66 33 00 	call  9198cd34 <__end+0x519801dc>
 138:	69 73 69 6e 	call  a5cda6f0 <__end+0x65ccdb98>
 13c:	66 00 63 6c 	call  98018eec <__end+0x5800c394>
 140:	61 73 73 00 	call  85cdcd40 <__end+0x45cd01e8>
 144:	5f 5f 74 68 	call  7d7dd2e4 <__end+0x3d7d078c>
 148:	65 6e 61 6e 	call  95b98700 <__end+0x55b8bba8>
 14c:	5f 64 66 00 	call  7d91994c <__end+0x3d90cdf4>
 150:	44 46 74 79 	call  1119d334 <_trap_table-0x2ee62ccc>
 154:	70 65 00 55 	call  c19402a8 <__end+0x81933750>
 158:	53 49 74 79 	call  4d25d33c <__end+0xd2507e4>
 15c:	70 65 00 66 	call  c19402f4 <__end+0x8193379c>
 160:	70 5f 63 6c 	call  c17d8f10 <__end+0x817cc3b8>
 164:	61 73 73 5f 	call  85cdcee0 <__end+0x45cd0388>
 168:	74 79 70 65 	call  d1e5c2fc <__end+0x91e4f7a4>
 16c:	00 2f 68 6f 	unimp  0xffef686f
 170:	6d 65 2f 62 	call  b594bef8 <__end+0x7593f3a0>
 174:	75 69 6c 64 	call  d5a5b304 <__end+0x95a4e7ac>
 178:	2f 62 63 63 	unknown
 17c:	2f 42 43 43 	unknown
 180:	5f 52 45 50 	call  7d4916c0 <__end+0x3d484b68>
 184:	2f 67 63 63 	unknown
 188:	2d 34 2e 34 	sethi  %hi(0xd0b8d000), %l6
 18c:	2e 32 2d 31 	unknown
 190:	2e 30 2e 35 	unknown
 194:	30 67 63 63 	unknown
 198:	2d 34 2e 34 	sethi  %hi(0xd0b8d000), %l6
 19c:	2e 32 2d 62 	unknown
 1a0:	75 69 6c 64 	call  d5a5b330 <__end+0x95a4e7d8>
 1a4:	2f 73 70 61 	unknown
 1a8:	72 63 2d 65 	call  c98cb73c <__end+0x898bebe4>
 1ac:	6c 66 2f 73 	call  b198bf78 <__end+0x7197f420>
 1b0:	6f 66 74 2f 	call  bd99d26c <__end+0x7d990714>
 1b4:	6c 69 62 67 	call  b1a58b50 <__end+0x71a4bff8>
 1b8:	63 63 00 43 	call  8d8c02c4 <__end+0x4d8b376c>
 1bc:	4c 41 53 53 	call  31054f08 <_trap_table-0xefab0f8>
 1c0:	5f 51 4e 41 	call  7d453ac4 <__end+0x3d446f6c>
 1c4:	4e 00 61 72 	call  3801878c <_trap_table-0x7fe7874>
 1c8:	67 5f 61 00 	call  9d7d85c8 <__end+0x5d7cba70>
 1cc:	61 72 67 5f 	call  85c99f48 <__end+0x45c8d3f0>
 1d0:	62 00 5f 66 	call  88017f68 <__end+0x4800b410>
 1d4:	70 61 64 64 	call  c1859364 <__end+0x8184c80c>
 1d8:	5f 70 61 72 	call  7dc187a0 <__end+0x3dc0bc48>
 1dc:	74 73 00 69 	call  d1cc0380 <__end+0x91cb3828>
 1e0:	73 7a 65 72 	call  cde997a8 <__end+0x8de8cc50>
 1e4:	6f 00 46 4c 	call  bc011b14 <__end+0x7c004fbc>
 1e8:	4f 5f 75 6e 	call  3d7dd7a0 <_trap_table-0x2822860>
 1ec:	69 6f 6e 5f 	call  a5bdbb68 <__end+0x65bcf010>
 1f0:	74 79 70 65 	call  d1e5c384 <__end+0x91e4f82c>
 1f4:	00 5f 5f 73 	unknown
 1f8:	75 62 64 66 	call  d5899390 <__end+0x9588c838>
 1fc:	33 00 62 5f 	sethi  %hi(0x1897c00), %i1
 200:	6e 6f 72 6d 	call  b9bdcbb4 <__end+0x79bd005c>
 204:	61 6c 5f 65 	call  85b17f98 <__end+0x45b0b440>
 208:	78 70 00 77 	call  e1c003e4 <__end+0xa1bf388c>
 20c:	6f 72 64 73 	call  bdc993d8 <__end+0x7dc8c880>
 210:	00 55 44 49 	unknown
 214:	74 79 70 65 	call  d1e5c3a8 <__end+0x91e4f850>
 218:	00 69 6e 74 	unknown
 21c:	66 72 61 63 	call  99c987a8 <__end+0x59c8bc50>
 220:	00 46 4c 4f 	unknown
 224:	5f 74 79 70 	call  7dd1e7e4 <__end+0x3dd11c8c>
 228:	65 00 43 4c 	call  94010f58 <__end+0x54004400>
 22c:	41 53 53 5f 	call  54d4fa8 <_trap_table-0x3ab2b058>
 230:	53 4e 41 4e 	call  4d390768 <__end+0xd383c10>
 234:	00 74 66 72 	unknown
 238:	61 63 74 69 	call  858dd3dc <__end+0x458d0884>
 23c:	6f 6e 00 66 	call  bdb803d4 <__end+0x7db7387c>
 240:	70 5f 6e 75 	call  c17dbc14 <__end+0x817cf0bc>
 244:	6d 62 65 72 	call  b589980c <__end+0x7588ccb4>
 248:	5f 74 79 70 	call  7dd1e808 <__end+0x3dd11cb0>
 24c:	65 00 62 5f 	call  94018bc8 <__end+0x5400c070>
 250:	66 72 61 63 	call  99c987dc <__end+0x59c8bc84>
 254:	74 69 6f 6e 	call  d1a5c00c <__end+0x91a4f4b4>
 258:	00 61 5f 66 	unknown
 25c:	72 61 63 74 	call  c985902c <__end+0x8984c4d4>
 260:	69 6f 6e 00 	call  a5bdba60 <__end+0x65bcef08>
 264:	43 4c 41 53 	call  d3107b0 <_trap_table-0x32cef850>
 268:	53 5f 49 4e 	call  4d7d27a0 <__end+0xd7c5c48>
 26c:	46 49 4e 49 	call  19253b90 <_trap_table-0x26dac470>
 270:	54 59 00 6d 	call  51640424 <__end+0x116338cc>
 274:	61 6b 65 6e 	call  85ad982c <__end+0x45acccd4>
 278:	61 6e 00 2e 	call  85b80330 <__end+0x45b737d8>
 27c:	2e 2f 2e 2e 	unknown
 280:	2f 2e 2e 2f 	sethi  %hi(0xb8b8bc00), %l7
 284:	2e 2f 67 63 	unknown
 288:	63 2f 64 70 	call  8cbd9448 <__end+0x4cbcc8f0>
 28c:	2d 62 69 74 	unknown
 290:	2e 63 00 73 	unknown
 294:	69 67 6e 00 	call  a59dba94 <__end+0x659cef3c>
 298:	76 61 6c 75 	call  d985b46c <__end+0x9984e914>
 29c:	65 5f 72 61 	call  957dcc20 <__end+0x557d00c8>
 2a0:	77 00 43 4c 	call  dc010fd0 <__end+0x9c004478>
 2a4:	41 53 53 5f 	call  54d5020 <_trap_table-0x3ab2afe0>
 2a8:	4e 55 4d 42 	call  395537b0 <_trap_table-0x6aac850>
 2ac:	45 52 00 68 	call  1548044c <_trap_table-0x2ab7fbb4>
 2b0:	61 6c 66 66 	call  85b19c48 <__end+0x45b0d0f0>
 2b4:	72 61 63 74 	call  c9859084 <__end+0x8984c52c>
 2b8:	79 70 65 00 	call  e5c196b8 <__end+0xa5c0cb60>
 2bc:	68 69 67 68 	call  a1a5a05c <__end+0x61a4d504>
 2c0:	00 70 70 5f 	unknown
 2c4:	68 68 00 70 	call  a1a00484 <__end+0x619f392c>
 2c8:	70 5f 68 6c 	call  c17da478 <__end+0x817cd920>
 2cc:	00 70 70 5f 	unknown
 2d0:	6c 68 00 70 	call  b1a00490 <__end+0x719f3938>
 2d4:	70 5f 6c 6c 	call  c17db484 <__end+0x817ce92c>
 2d8:	00 5f 66 70 	unknown
 2dc:	6d 75 6c 5f 	call  b5d5b458 <__end+0x75d4e900>
 2e0:	70 61 72 74 	call  c185ccb0 <__end+0x81850158>
 2e4:	73 00 72 65 	call  cc01cc78 <__end+0x8c010120>
 2e8:	73 30 00 72 	call  ccc004b0 <__end+0x8cbf3958>
 2ec:	65 73 32 00 	call  95cccaec <__end+0x55cbff94>
 2f0:	70 73 5f 68 	call  c1cd8090 <__end+0x81ccb538>
 2f4:	68 5f 5f 00 	call  a17d7ef4 <__end+0x617cb39c>
 2f8:	5f 5f 6d 75 	call  7d7db8cc <__end+0x3d7ced74>
 2fc:	6c 64 66 33 	call  b1919bc8 <__end+0x7190d070>
 300:	00 5f 66 70 	unknown
 304:	64 69 76 5f 	call  91a5dc80 <__end+0x51a51128>
 308:	70 61 72 74 	call  c185ccd8 <__end+0x81850180>
 30c:	73 00 71 75 	call  cc01c8e0 <__end+0x8c00fd88>
 310:	6f 74 69 65 	call  bdd1a8a4 <__end+0x7dd0dd4c>
 314:	6e 74 00 5f 	call  b9d00490 <__end+0x79cf3938>
 318:	5f 64 69 76 	call  7d91a8f0 <__end+0x3d90dd98>
 31c:	64 66 33 00 	call  9198cf1c <__end+0x519803c4>
 320:	6e 75 6d 65 	call  b9d5b8b4 <__end+0x79d4ed5c>
 324:	72 61 74 6f 	call  c985d4e0 <__end+0x89850988>
 328:	72 00 64 65 	call  c80194bc <__end+0x8800c964>
 32c:	6e 6f 6d 69 	call  b9bdb8d0 <__end+0x79bced78>
 330:	6e 61 74 6f 	call  b985d4ec <__end+0x79850994>
 334:	72 00 5f 5f 	call  c80180b0 <__end+0x8800b558>
 338:	65 71 64 66 	call  95c594d0 <__end+0x55c4c978>
 33c:	32 00 43 4d 	unknown
 340:	50 74 79 70 	call  41d1e900 <__end+0x1d11da8>
 344:	65 00 5f 5f 	call  940180c0 <__end+0x5400b568>
 348:	6e 65 64 66 	call  b99594e0 <__end+0x7994c988>
 34c:	32 00 5f 5f 	unknown
 350:	67 74 64 66 	call  9dd194e8 <__end+0x5dd0c990>
 354:	32 00 5f 5f 	unknown
 358:	67 65 64 66 	call  9d9594f0 <__end+0x5d94c998>
 35c:	32 00 5f 5f 	unknown
 360:	6c 74 64 66 	call  b1d194f8 <__end+0x71d0c9a0>
 364:	32 00 73 68 	unknown
 368:	69 66 74 00 	call  a599d368 <__end+0x65990810>
 36c:	63 6c 7a 75 	call  8db1ed40 <__end+0x4db121e8>
 370:	73 69 00 75 	call  cda40544 <__end+0x8da339ec>
 374:	61 72 67 00 	call  85c99f74 <__end+0x45c8d41c>
 378:	5f 5f 66 6c 	call  7d7d9d28 <__end+0x3d7cd1d0>
 37c:	6f 61 74 73 	call  bd85d548 <__end+0x7d8509f0>
 380:	69 64 66 00 	call  a5919b80 <__end+0x6590d028>
 384:	5f 5f 66 69 	call  7d7d9d28 <__end+0x3d7cd1d0>
 388:	78 64 66 73 	call  e1919d54 <__end+0xa190d1fc>
 38c:	69 00 67 75 	call  a401a160 <__end+0x6400d608>
 390:	61 72 64 00 	call  85c99390 <__end+0x45c8c838>
 394:	5f 5f 66 6c 	call  7d7d9d44 <__end+0x3d7cd1ec>
 398:	6f 61 74 75 	call  bd85d56c <__end+0x7d850a14>
 39c:	6e 73 69 64 	call  b9cda92c <__end+0x79ccddd4>
 3a0:	66 00 63 6f 	call  9801915c <__end+0x5800c604>
 3a4:	6d 70 6c 65 	call  b5c1b538 <__end+0x75c0e9e0>
 3a8:	78 20 66 6c 	call  e0819d58 <__end+0xa080d200>
 3ac:	6f 61 74 00 	call  bd85d3ac <__end+0x7d850854>
 3b0:	2e 2e 2f 2e 	unknown
 3b4:	2e 2f 2e 2e 	unknown
 3b8:	2f 2e 2e 2f 	sethi  %hi(0xb8b8bc00), %l7
 3bc:	67 63 63 2d 	call  9d8d9070 <__end+0x5d8cc518>
 3c0:	34 2e 34 2e 	unknown
 3c4:	32 2f 6c 69 	unknown
 3c8:	62 67 63 63 	call  899d9154 <__end+0x499cc5fc>
 3cc:	2f 2e 2e 2f 	sethi  %hi(0xb8b8bc00), %l7
 3d0:	67 63 63 2f 	call  9d8d908c <__end+0x5d8cc534>
 3d4:	6c 69 62 67 	call  b1a58d70 <__end+0x71a4c218>
 3d8:	63 63 32 2e 	call  8d8ccc90 <__end+0x4d8c0138>
 3dc:	63 00 5f 5f 	call  8c018158 <__end+0x4c00b600>
 3e0:	6d 75 6c 64 	call  b5d5b570 <__end+0x75d4ea18>
 3e4:	69 33 00 44 	call  a4cc04f4 <__end+0x64cb399c>
 3e8:	57 75 6e 69 	call  5dd5bd8c <__end+0x1dd4f234>
 3ec:	6f 6e 00 63 	call  bdb80578 <__end+0x7db73a20>
 3f0:	6f 6d 70 6c 	call  bdb5c5a0 <__end+0x7db4fa48>
 3f4:	65 78 20 64 	call  95e08584 <__end+0x55dfba2c>
 3f8:	6f 75 62 6c 	call  bdd58da8 <__end+0x7dd4c250>
 3fc:	65 00 44 57 	call  94011558 <__end+0x54004a00>
 400:	73 74 72 75 	call  cdd1cdd4 <__end+0x8dd1027c>
 404:	63 74 00 5f 	call  8dd00580 <__end+0x4dcf3a28>
 408:	5f 75 63 6d 	call  7dd591bc <__end+0x3dd4c664>
 40c:	70 64 69 32 	call  c191a8d4 <__end+0x8190dd7c>
 410:	00 63 6d 70 	unknown
 414:	5f 72 65 74 	call  7dc999e4 <__end+0x3dc8ce8c>
 418:	75 72 6e 5f 	call  d5c9bd94 <__end+0x95c8f23c>
 41c:	74 79 70 65 	call  d1e5c5b0 <__end+0x91e4fa58>
 420:	00 5f 5f 63 	unknown
 424:	6c 7a 73 69 	call  b1e9d1c8 <__end+0x71e90670>
 428:	32 00 5f 5f 	unknown
 42c:	78 72 00 5f 	call  e1c805a8 <__end+0xa1c73a50>
 430:	5f 63 6c 7a 	call  7d8db618 <__end+0x3d8ceac0>
 434:	5f 74 61 62 	call  7dd189bc <__end+0x3dd0be64>
 438:	00 55 51 49 	unknown
 43c:	74 79 70 65 	call  d1e5c5d0 <__end+0x91e4fa78>
 440:	00 5f 5f 70 	unknown
 444:	61 63 6b 5f 	call  858db1c0 <__end+0x458ce668>
 448:	64 00 6c 6f 	call  9001b604 <__end+0x5000eaac>
 44c:	77 62 69 74 	call  dd89aa1c <__end+0x9d88dec4>
 450:	00 5f 5f 75 	unknown
 454:	6e 70 61 63 	call  b9c189e0 <__end+0x79c0be88>
 458:	6b 5f 64 00 	call  ad7d9458 <__end+0x6d7cc900>
 45c:	5f 5f 66 70 	call  7d7d9e1c <__end+0x3d7cd2c4>
 460:	63 6d 70 5f 	call  8db5c5dc <__end+0x4db4fa84>
 464:	70 61 72 74 	call  c185ce34 <__end+0x818502dc>
 468:	73 5f 64 00 	call  cd7d9468 <__end+0x8d7cc910>
 46c:	63 61 72 72 	call  8d85ce34 <__end+0x4d8502dc>
 470:	69 65 73 00 	call  a595d070 <__end+0x65950518>
 474:	5f 5f 6c 73 	call  7d7db640 <__end+0x3d7ceae8>
 478:	68 72 64 69 	call  a1c9961c <__end+0x61c8cac4>
 47c:	33 00 73 68 	sethi  %hi(0x1cda000), %i1
 480:	69 66 74 5f 	call  a599d5fc <__end+0x65990aa4>
 484:	63 6f 75 6e 	call  8dbdda3c <__end+0x4dbd0ee4>
 488:	74 5f 74 79 	call  d17dd66c <__end+0x917d0b14>
 48c:	70 65 00 5f 	call  c1940608 <__end+0x81933ab0>
 490:	5f 61 73 68 	call  7d85d230 <__end+0x3d8506d8>
 494:	6c 64 69 33 	call  b191a960 <__end+0x7190de08>
 498:	Address 0x00000498 is out of bounds.


Disassembly of section .debug_loc:

00000000 <.debug_loc>:
   0:	00 00 00 00 	unimp  0
   4:	00 00 00 04 	unimp  0x4
   8:	00 01 5e 00 	unimp  0x15e00
   c:	00 00 04 00 	unimp  0x400
  10:	00 03 c8 00 	unimp  0x3c800
  14:	01 6e 00 00 	unknown
	...
  24:	01 18 00 01 	sethi  %hi(0x60000400), %g0
  28:	68 00 00 01 	call  a000002c <__end+0x5fff34d4>
  2c:	20 00 00 02 	unknown
  30:	cc 00 01 68 	ld  [ %g0 + %o0 ], %g6
  34:	00 00 02 d4 	unimp  0x2d4
  38:	00 00 03 c0 	unimp  0x3c0
  3c:	00 01 68 00 	unimp  0x16800
  40:	00 03 c0 00 	unimp  0x3c000
  44:	00 03 c8 00 	unimp  0x3c800
  48:	01 68 00 00 	unknown
	...
  54:	01 60 00 00 	unknown
  58:	01 78 00 06 	unknown
  5c:	62 93 04 63 	call  8a4c11e8 <__end+0x4a4b4690>
  60:	93 04 00 00 	taddcc  %l0, %g0, %o1
  64:	02 c4 00 00 	unknown
  68:	02 cc 00 06 	unknown
  6c:	62 93 04 63 	call  8a4c11f8 <__end+0x4a4b46a0>
  70:	93 04 00 00 	taddcc  %l0, %g0, %o1
  74:	02 d4 00 00 	unknown
  78:	02 d4 00 06 	unknown
  7c:	62 93 04 63 	call  8a4c1208 <__end+0x4a4b46b0>
  80:	93 04 00 00 	taddcc  %l0, %g0, %o1
	...
  8c:	00 48 00 00 	unknown
  90:	02 44 00 01 	unknown
  94:	60 00 00 02 	call  8000009c <__end+0x3fff3544>
  98:	7c 00 00 02 	call  f00000a0 <__end+0xafff3548>
  9c:	cc 00 01 60 	ld  [ %g0 ], %g6
  a0:	00 00 02 d4 	unimp  0x2d4
  a4:	00 00 03 a0 	unimp  0x3a0
  a8:	00 01 60 00 	unimp  0x16000
	...
  b4:	00 00 4c 00 	unimp  0x4c00
  b8:	00 00 84 00 	unimp  0x8400
  bc:	01 54 00 00 	unknown
  c0:	00 e0 00 00 	unknown
  c4:	01 04 00 01 	sethi  %hi(0x10000400), %g0
  c8:	54 00 00 01 	call  500000cc <__end+0xfff3574>
  cc:	20 00 00 01 	unknown
  d0:	b0 00 01 54 	unknown
  d4:	00 00 01 e4 	unimp  0x1e4
  d8:	00 00 01 f8 	unimp  0x1f8
  dc:	00 01 54 00 	unimp  0x15400
  e0:	00 02 7c 00 	unimp  0x27c00
  e4:	00 02 94 00 	unimp  0x29400
  e8:	01 54 00 00 	unknown
  ec:	02 c4 00 00 	unknown
  f0:	02 cc 00 01 	unknown
  f4:	54 00 00 02 	call  500000fc <__end+0xfff35a4>
  f8:	d4 00 00 03 	ld  [ %g0 + %g3 ], %o2
  fc:	18 00 01 54 	unknown
 100:	00 00 03 64 	unimp  0x364
 104:	00 00 03 78 	unimp  0x378
 108:	00 01 54 00 	unimp  0x15400
 10c:	00 03 84 00 	unimp  0x38400
 110:	00 03 a0 00 	unimp  0x3a000
 114:	01 54 00 00 	unknown
	...
 120:	00 54 00 00 	unknown
 124:	01 34 00 06 	sethi  %hi(0xd0001800), %g0
 128:	64 93 04 65 	call  924c12bc <__end+0x524b4764>
 12c:	93 04 00 00 	taddcc  %l0, %g0, %o1
 130:	01 38 00 00 	sethi  %hi(0xe0000000), %g0
 134:	01 bc 00 06 	fbn  fff0014c <__end+0xbfef35f4>
 138:	64 93 04 65 	call  924c12cc <__end+0x524b4774>
 13c:	93 04 00 00 	taddcc  %l0, %g0, %o1
 140:	01 e4 00 00 	cbn  ff900140 <__end+0xbf8f35e8>
 144:	02 44 00 06 	unknown
 148:	64 93 04 65 	call  924c12dc <__end+0x524b4784>
 14c:	93 04 00 00 	taddcc  %l0, %g0, %o1
 150:	02 7c 00 00 	unknown
 154:	02 a8 00 06 	be  ffa0016c <__end+0xbf9f3614>
 158:	64 93 04 65 	call  924c12ec <__end+0x524b4794>
 15c:	93 04 00 00 	taddcc  %l0, %g0, %o1
 160:	02 c4 00 00 	unknown
 164:	02 cc 00 06 	unknown
 168:	64 93 04 65 	call  924c12fc <__end+0x524b47a4>
 16c:	93 04 00 00 	taddcc  %l0, %g0, %o1
 170:	02 d4 00 00 	unknown
 174:	03 30 00 06 	sethi  %hi(0xc0001800), %g1
 178:	64 93 04 65 	call  924c130c <__end+0x524b47b4>
 17c:	93 04 00 00 	taddcc  %l0, %g0, %o1
 180:	03 5c 00 00 	unknown
 184:	03 a0 00 06 	fbne  ff80019c <__end+0xbf7f3644>
 188:	64 93 04 65 	call  924c131c <__end+0x524b47c4>
 18c:	93 04 00 00 	taddcc  %l0, %g0, %o1
	...
 198:	00 58 00 00 	unknown
 19c:	00 a4 00 06 	bn  ff9001b4 <__end+0xbf8f365c>
 1a0:	62 93 04 63 	call  8a4c132c <__end+0x4a4b47d4>
 1a4:	93 04 00 00 	taddcc  %l0, %g0, %o1
 1a8:	00 d4 00 00 	unknown
 1ac:	00 e8 00 06 	unknown
 1b0:	62 93 04 63 	call  8a4c133c <__end+0x4a4b47e4>
 1b4:	93 04 00 00 	taddcc  %l0, %g0, %o1
 1b8:	01 20 00 00 	sethi  %hi(0x80000000), %g0
 1bc:	01 60 00 06 	unknown
 1c0:	62 93 04 63 	call  8a4c134c <__end+0x4a4b47f4>
 1c4:	93 04 00 00 	taddcc  %l0, %g0, %o1
 1c8:	02 7c 00 00 	unknown
 1cc:	02 7c 00 06 	unknown
 1d0:	62 93 04 63 	call  8a4c135c <__end+0x4a4b4804>
 1d4:	93 04 00 00 	taddcc  %l0, %g0, %o1
 1d8:	02 7c 00 00 	unknown
 1dc:	02 a8 00 06 	be  ffa001f4 <__end+0xbf9f369c>
 1e0:	62 93 04 63 	call  8a4c136c <__end+0x4a4b4814>
 1e4:	93 04 00 00 	taddcc  %l0, %g0, %o1
 1e8:	02 c4 00 00 	unknown
 1ec:	02 c4 00 06 	unknown
 1f0:	62 93 04 63 	call  8a4c137c <__end+0x4a4b4824>
 1f4:	93 04 00 00 	taddcc  %l0, %g0, %o1
 1f8:	02 ec 00 00 	unknown
 1fc:	03 64 00 06 	unknown
 200:	62 93 04 63 	call  8a4c138c <__end+0x4a4b4834>
 204:	93 04 00 00 	taddcc  %l0, %g0, %o1
 208:	03 74 00 00 	unknown
 20c:	03 a0 00 06 	fbne  ff800224 <__end+0xbf7f36cc>
 210:	62 93 04 63 	call  8a4c139c <__end+0x4a4b4844>
 214:	93 04 00 00 	taddcc  %l0, %g0, %o1
	...
 220:	00 50 00 00 	unknown
 224:	00 5c 00 01 	unknown
 228:	52 00 00 00 	call  48000228 <__end+0x7ff36d0>
 22c:	5c 00 00 00 	call  7000022c <__end+0x2fff36d4>
 230:	78 00 01 51 	call  e0000774 <__end+0x9fff3c1c>
 234:	00 00 00 78 	unimp  0x78
 238:	00 00 00 80 	unimp  0x80
 23c:	00 01 52 00 	unimp  0x15200
 240:	00 00 80 00 	unimp  0x8000
 244:	00 00 b8 00 	unimp  0xb800
 248:	01 51 00 00 	unknown
 24c:	01 20 00 00 	sethi  %hi(0x80000000), %g0
 250:	01 3c 00 01 	sethi  %hi(0xf0000400), %g0
 254:	51 00 00 01 	call  44000258 <__end+0x3ff3700>
 258:	3c 00 00 01 	unknown
 25c:	40 00 01 52 	call  7a4 <_trap_table-0x3ffff85c>
 260:	00 00 02 7c 	unimp  0x27c
 264:	00 00 02 a8 	unimp  0x2a8
 268:	00 01 51 00 	unimp  0x15100
 26c:	00 02 ec 00 	unimp  0x2ec00
 270:	00 02 fc 00 	unimp  0x2fc00
 274:	01 52 00 00 	unknown
 278:	02 fc 00 00 	unknown
 27c:	03 44 00 01 	unknown
 280:	51 00 00 03 	call  4400028c <__end+0x3ff3734>
 284:	74 00 00 03 	call  d0000290 <__end+0x8fff3738>
 288:	a0 00 01 51 	unknown
	...
 294:	00 00 03 c8 	unimp  0x3c8
 298:	00 00 03 cc 	unimp  0x3cc
 29c:	00 01 5e 00 	unimp  0x15e00
 2a0:	00 03 cc 00 	unimp  0x3cc00
 2a4:	00 04 24 00 	unimp  0x42400
 2a8:	01 6e 00 00 	unknown
	...
 2b4:	03 c8 00 00 	cb123  2002b4 <_trap_table-0x3fdffd4c>
 2b8:	04 1c 00 06 	unknown
 2bc:	68 93 04 69 	call  a24c1460 <__end+0x624b4908>
 2c0:	93 04 00 00 	taddcc  %l0, %g0, %o1
	...
 2cc:	04 24 00 00 	unknown
 2d0:	04 28 00 01 	unknown
 2d4:	5e 00 00 04 	call  780002e4 <__end+0x37ff378c>
 2d8:	28 00 00 04 	unknown
 2dc:	74 00 01 6e 	call  d0000894 <__end+0x8fff3d3c>
 2e0:	00 00 00 00 	unimp  0
 2e4:	00 00 00 00 	unimp  0
 2e8:	00 00 04 24 	unimp  0x424
 2ec:	00 00 04 6c 	unimp  0x46c
 2f0:	00 06 68 93 	unimp  0x66893
 2f4:	04 69 93 04 	unknown
	...
 304:	00 00 00 04 	unimp  0x4
 308:	00 01 5e 00 	unimp  0x15e00
 30c:	00 00 04 00 	unimp  0x400
 310:	00 03 64 00 	unimp  0x36400
 314:	01 6e 00 00 	unknown
	...
 324:	01 f4 00 06 	cbn  ffd0033c <__end+0xbfcf37e4>
 328:	68 93 04 69 	call  a24c14cc <__end+0x624b4974>
 32c:	93 04 00 00 	taddcc  %l0, %g0, %o1
 330:	01 fc 00 00 	cbn  fff00330 <__end+0xbfef37d8>
 334:	02 e0 00 06 	unknown
 338:	68 93 04 69 	call  a24c14dc <__end+0x624b4984>
 33c:	93 04 00 00 	taddcc  %l0, %g0, %o1
 340:	02 e8 00 00 	unknown
 344:	03 48 00 06 	unknown
 348:	68 93 04 69 	call  a24c14ec <__end+0x624b4994>
 34c:	93 04 00 00 	taddcc  %l0, %g0, %o1
 350:	03 50 00 00 	unknown
 354:	03 64 00 06 	unknown
 358:	68 93 04 69 	call  a24c14fc <__end+0x624b49a4>
 35c:	93 04 00 00 	taddcc  %l0, %g0, %o1
	...
 368:	01 e8 00 00 	cbn  ffa00368 <__end+0xbf9f3810>
 36c:	01 f0 00 01 	cbn  ffc00370 <__end+0xbfbf3818>
 370:	58 00 00 02 	call  60000378 <__end+0x1fff3820>
 374:	b4 00 00 02 	add  %g0, %g2, %i2
 378:	dc 00 01 58 	ld  [ %g0 + %i0 ], %sp
 37c:	00 00 03 1c 	unimp  0x31c
 380:	00 00 03 44 	unimp  0x344
 384:	00 01 58 00 	unimp  0x15800
	...
 390:	00 00 e4 00 	unimp  0xe400
 394:	00 01 9c 00 	unimp  0x19c00
 398:	06 62 93 04 	unknown
 39c:	63 93 04 00 	call  8e4c139c <__end+0x4e4b4844>
 3a0:	00 01 9c 00 	unimp  0x19c00
 3a4:	00 01 ac 00 	unimp  0x1ac00
 3a8:	06 62 93 04 	unknown
 3ac:	52 93 04 00 	call  4a4c13ac <__end+0xa4b4854>
 3b0:	00 01 b8 00 	unimp  0x1b800
 3b4:	00 01 c4 00 	unimp  0x1c400
 3b8:	06 53 93 04 	unknown
 3bc:	63 93 04 00 	call  8e4c13bc <__end+0x4e4b4864>
 3c0:	00 01 c4 00 	unimp  0x1c400
 3c4:	00 01 fc 00 	unimp  0x1fc00
 3c8:	06 62 93 04 	unknown
 3cc:	63 93 04 00 	call  8e4c13cc <__end+0x4e4b4874>
 3d0:	00 02 14 00 	unimp  0x21400
 3d4:	00 02 50 00 	unimp  0x25000
 3d8:	06 62 93 04 	unknown
 3dc:	63 93 04 00 	call  8e4c13dc <__end+0x4e4b4884>
 3e0:	00 02 50 00 	unimp  0x25000
 3e4:	00 02 54 00 	unimp  0x25400
 3e8:	06 62 93 04 	unknown
 3ec:	61 93 04 00 	call  864c13ec <__end+0x464b4894>
 3f0:	00 02 54 00 	unimp  0x25400
 3f4:	00 02 5c 00 	unimp  0x25c00
 3f8:	06 60 93 04 	unknown
 3fc:	61 93 04 00 	call  864c13fc <__end+0x464b48a4>
 400:	00 02 5c 00 	unimp  0x25c00
 404:	00 02 60 00 	unimp  0x26000
 408:	06 62 93 04 	unknown
 40c:	61 93 04 00 	call  864c140c <__end+0x464b48b4>
 410:	00 02 60 00 	unimp  0x26000
 414:	00 02 88 00 	unimp  0x28800
 418:	06 62 93 04 	unknown
 41c:	63 93 04 00 	call  8e4c141c <__end+0x4e4b48c4>
 420:	00 02 88 00 	unimp  0x28800
 424:	00 02 94 00 	unimp  0x29400
 428:	06 62 93 04 	unknown
 42c:	52 93 04 00 	call  4a4c142c <__end+0xa4b48d4>
 430:	00 02 e8 00 	unimp  0x2e800
 434:	00 03 18 00 	unimp  0x31800
 438:	06 62 93 04 	unknown
 43c:	63 93 04 00 	call  8e4c143c <__end+0x4e4b48e4>
 440:	00 03 50 00 	unimp  0x35000
 444:	00 03 64 00 	unimp  0x36400
 448:	06 62 93 04 	unknown
 44c:	63 93 04 00 	call  8e4c144c <__end+0x4e4b48f4>
 450:	00 00 00 00 	unimp  0
 454:	00 00 00 00 	unimp  0
 458:	00 01 40 00 	unimp  0x14000
 45c:	00 01 84 00 	unimp  0x18400
 460:	06 66 93 04 	unknown
 464:	67 93 04 00 	call  9e4c1464 <__end+0x5e4b490c>
 468:	00 01 84 00 	unimp  0x18400
 46c:	00 01 8c 00 	unimp  0x18c00
 470:	06 53 93 04 	unknown
 474:	67 93 04 00 	call  9e4c1474 <__end+0x5e4b491c>
 478:	00 01 90 00 	unimp  0x19000
 47c:	00 01 a8 00 	unimp  0x1a800
 480:	06 64 93 04 	unknown
 484:	53 93 04 00 	call  4e4c1484 <__end+0xe4b492c>
 488:	00 01 a8 00 	unimp  0x1a800
 48c:	00 01 fc 00 	unimp  0x1fc00
 490:	06 66 93 04 	unknown
 494:	67 93 04 00 	call  9e4c1494 <__end+0x5e4b493c>
 498:	00 02 2c 00 	unimp  0x22c00
 49c:	00 02 3c 00 	unimp  0x23c00
 4a0:	06 66 93 04 	unknown
 4a4:	67 93 04 00 	call  9e4c14a4 <__end+0x5e4b494c>
 4a8:	00 02 3c 00 	unimp  0x23c00
 4ac:	00 02 70 00 	unimp  0x27000
 4b0:	06 53 93 04 	unknown
 4b4:	67 93 04 00 	call  9e4c14b4 <__end+0x5e4b495c>
 4b8:	00 02 70 00 	unimp  0x27000
 4bc:	00 02 80 00 	unimp  0x28000
 4c0:	06 66 93 04 	unknown
 4c4:	52 93 04 00 	call  4a4c14c4 <__end+0xa4b496c>
 4c8:	00 02 80 00 	unimp  0x28000
 4cc:	00 02 88 00 	unimp  0x28800
 4d0:	06 53 93 04 	unknown
 4d4:	67 93 04 00 	call  9e4c14d4 <__end+0x5e4b497c>
 4d8:	00 02 88 00 	unimp  0x28800
 4dc:	00 02 94 00 	unimp  0x29400
 4e0:	06 66 93 04 	unknown
 4e4:	67 93 04 00 	call  9e4c14e4 <__end+0x5e4b498c>
 4e8:	00 02 e8 00 	unimp  0x2e800
 4ec:	00 03 18 00 	unimp  0x31800
 4f0:	06 66 93 04 	unknown
 4f4:	67 93 04 00 	call  9e4c14f4 <__end+0x5e4b499c>
 4f8:	00 00 00 00 	unimp  0
 4fc:	00 00 00 00 	unimp  0
 500:	00 00 98 00 	unimp  0x9800
 504:	00 01 00 00 	unimp  0x10000
 508:	06 64 93 04 	unknown
 50c:	65 93 04 00 	call  964c150c <__end+0x564b49b4>
 510:	00 01 fc 00 	unimp  0x1fc00
 514:	00 02 2c 00 	unimp  0x22c00
 518:	06 64 93 04 	unknown
 51c:	65 93 04 00 	call  964c151c <__end+0x564b49c4>
 520:	00 02 94 00 	unimp  0x29400
 524:	00 02 ac 00 	unimp  0x2ac00
 528:	06 64 93 04 	unknown
 52c:	65 93 04 00 	call  964c152c <__end+0x564b49d4>
 530:	00 03 50 00 	unimp  0x35000
 534:	00 03 64 00 	unimp  0x36400
 538:	06 64 93 04 	unknown
 53c:	65 93 04 00 	call  964c153c <__end+0x564b49e4>
 540:	00 00 00 00 	unimp  0
 544:	00 00 00 00 	unimp  0
 548:	00 00 b0 00 	unimp  0xb000
 54c:	00 00 d8 00 	unimp  0xd800
 550:	06 62 93 04 	unknown
 554:	63 93 04 00 	call  8e4c1554 <__end+0x4e4b49fc>
 558:	00 01 fc 00 	unimp  0x1fc00
 55c:	00 02 0c 00 	unimp  0x20c00
 560:	06 62 93 04 	unknown
 564:	63 93 04 00 	call  8e4c1564 <__end+0x4e4b4a0c>
 568:	00 02 94 00 	unimp  0x29400
 56c:	00 02 ac 00 	unimp  0x2ac00
 570:	06 62 93 04 	unknown
 574:	63 93 04 00 	call  8e4c1574 <__end+0x4e4b4a1c>
 578:	00 00 00 00 	unimp  0
 57c:	00 00 00 00 	unimp  0
 580:	00 00 e4 00 	unimp  0xe400
 584:	00 01 3c 00 	unimp  0x13c00
 588:	06 66 93 04 	unknown
 58c:	67 93 04 00 	call  9e4c158c <__end+0x5e4b4a34>
 590:	00 02 08 00 	unimp  0x20800
 594:	00 02 2c 00 	unimp  0x22c00
 598:	06 66 93 04 	unknown
 59c:	67 93 04 00 	call  9e4c159c <__end+0x5e4b4a44>
 5a0:	00 02 a4 00 	unimp  0x2a400
 5a4:	00 02 ac 00 	unimp  0x2ac00
 5a8:	06 66 93 04 	unknown
 5ac:	67 93 04 00 	call  9e4c15ac <__end+0x5e4b4a54>
 5b0:	00 03 50 00 	unimp  0x35000
 5b4:	00 03 64 00 	unimp  0x36400
 5b8:	06 66 93 04 	unknown
 5bc:	67 93 04 00 	call  9e4c15bc <__end+0x5e4b4a64>
 5c0:	00 00 00 00 	unimp  0
 5c4:	00 00 00 00 	unimp  0
 5c8:	00 00 c8 00 	unimp  0xc800
 5cc:	00 00 d8 00 	unimp  0xd800
 5d0:	06 52 93 04 	unknown
 5d4:	53 93 04 00 	call  4e4c15d4 <__end+0xe4b4a7c>
 5d8:	00 00 d8 00 	unimp  0xd800
 5dc:	00 00 dc 00 	unimp  0xdc00
 5e0:	06 52 93 04 	unknown
 5e4:	63 93 04 00 	call  8e4c15e4 <__end+0x4e4b4a8c>
 5e8:	00 01 fc 00 	unimp  0x1fc00
 5ec:	00 02 0c 00 	unimp  0x20c00
 5f0:	06 52 93 04 	unknown
 5f4:	53 93 04 00 	call  4e4c15f4 <__end+0xe4b4a9c>
 5f8:	00 02 0c 00 	unimp  0x20c00
 5fc:	00 02 10 00 	unimp  0x21000
 600:	06 52 93 04 	unknown
 604:	63 93 04 00 	call  8e4c1604 <__end+0x4e4b4aac>
 608:	00 02 94 00 	unimp  0x29400
 60c:	00 02 ac 00 	unimp  0x2ac00
 610:	06 52 93 04 	unknown
 614:	53 93 04 00 	call  4e4c1614 <__end+0xe4b4abc>
 618:	00 00 00 00 	unimp  0
	...
 624:	00 00 04 00 	unimp  0x400
 628:	01 5e 00 00 	unknown
 62c:	00 04 00 00 	unimp  0x40000
 630:	02 3c 00 01 	unknown
 634:	6e 00 00 00 	call  b8000634 <__end+0x77ff3adc>
 638:	00 00 00 00 	unimp  0
 63c:	00 00 00 00 	unimp  0
 640:	00 00 00 01 	unimp  0x1
 644:	8c 00 06 68 	unknown
 648:	93 04 69 93 	taddcc  %l1, 0x993, %o1
 64c:	04 00 00 01 	unknown
 650:	94 00 00 02 	add  %g0, %g2, %o2
 654:	20 00 06 68 	unknown
 658:	93 04 69 93 	taddcc  %l1, 0x993, %o1
 65c:	04 00 00 02 	unknown
 660:	28 00 00 02 	unknown
 664:	3c 00 06 68 	unknown
 668:	93 04 69 93 	taddcc  %l1, 0x993, %o1
 66c:	04 00 00 00 	unknown
	...
 678:	08 00 00 00 	unknown
 67c:	3c 00 01 60 	unknown
 680:	00 00 00 3c 	unimp  0x3c
 684:	00 00 00 d8 	unimp  0xd8
 688:	00 01 58 00 	unimp  0x15800
 68c:	00 01 08 00 	unimp  0x10800
 690:	00 01 38 00 	unimp  0x13800
 694:	01 58 00 00 	unknown
 698:	01 80 00 00 	fbn  698 <_trap_table-0x3ffff968>
 69c:	01 88 00 01 	fbn  2006a0 <_trap_table-0x3fdff960>
 6a0:	58 00 00 01 	call  600006a4 <__end+0x1fff3b4c>
 6a4:	88 00 00 01 	add  %g0, %g1, %g4
 6a8:	94 00 01 60 	unknown
 6ac:	00 00 01 94 	unimp  0x194
 6b0:	00 00 01 c4 	unimp  0x1c4
 6b4:	00 01 58 00 	unimp  0x15800
 6b8:	00 01 c8 00 	unimp  0x1c800
 6bc:	00 01 d8 00 	unimp  0x1d800
 6c0:	01 58 00 00 	unknown
 6c4:	02 0c 00 00 	unknown
 6c8:	02 1c 00 01 	unknown
 6cc:	58 00 00 02 	call  600006d4 <__end+0x1fff3b7c>
 6d0:	1c 00 00 02 	unknown
 6d4:	28 00 01 60 	unknown
 6d8:	00 00 02 28 	unimp  0x228
 6dc:	00 00 02 3c 	unimp  0x23c
 6e0:	00 01 58 00 	unimp  0x15800
	...
 6ec:	00 00 b4 00 	unimp  0xb400
 6f0:	00 00 d0 00 	unimp  0xd000
 6f4:	06 5c 93 04 	unknown
 6f8:	5d 93 04 00 	call  764c16f8 <__end+0x364b4ba0>
 6fc:	00 00 d0 00 	unimp  0xd000
 700:	00 00 d8 00 	unimp  0xd800
 704:	06 5c 93 04 	unknown
 708:	58 93 04 00 	call  624c1708 <__end+0x224b4bb0>
 70c:	00 00 ec 00 	unimp  0xec00
 710:	00 01 08 00 	unimp  0x10800
 714:	06 5f 93 04 	unknown
 718:	58 93 04 00 	call  624c1718 <__end+0x224b4bc0>
 71c:	00 01 08 00 	unimp  0x10800
 720:	00 01 30 00 	unimp  0x13000
 724:	06 5c 93 04 	unknown
 728:	5d 93 04 00 	call  764c1728 <__end+0x364b4bd0>
 72c:	00 01 30 00 	unimp  0x13000
 730:	00 01 38 00 	unimp  0x13800
 734:	06 5c 93 04 	unknown
 738:	58 93 04 00 	call  624c1738 <__end+0x224b4be0>
 73c:	00 01 4c 00 	unimp  0x14c00
 740:	00 01 68 00 	unimp  0x16800
 744:	06 5f 93 04 	unknown
 748:	58 93 04 00 	call  624c1748 <__end+0x224b4bf0>
 74c:	00 01 68 00 	unimp  0x16800
 750:	00 01 6c 00 	unimp  0x16c00
 754:	06 5c 93 04 	unknown
 758:	5d 93 04 00 	call  764c1758 <__end+0x364b4c00>
 75c:	00 01 6c 00 	unimp  0x16c00
 760:	00 01 78 00 	unimp  0x17800
 764:	06 5c 93 04 	unknown
 768:	58 93 04 00 	call  624c1768 <__end+0x224b4c10>
 76c:	00 01 78 00 	unimp  0x17800
 770:	00 01 80 00 	unimp  0x18000
 774:	06 5f 93 04 	unknown
 778:	58 93 04 00 	call  624c1778 <__end+0x224b4c20>
 77c:	00 01 d8 00 	unimp  0x1d800
 780:	00 01 d8 00 	unimp  0x1d800
 784:	06 5c 93 04 	unknown
 788:	58 93 04 00 	call  624c1788 <__end+0x224b4c30>
 78c:	00 01 d8 00 	unimp  0x1d800
 790:	00 02 0c 00 	unimp  0x20c00
 794:	06 5f 93 04 	unknown
 798:	58 93 04 00 	call  624c1798 <__end+0x224b4c40>
 79c:	00 00 00 00 	unimp  0
 7a0:	00 00 00 00 	unimp  0
 7a4:	00 00 90 00 	unimp  0x9000
 7a8:	00 00 d4 00 	unimp  0xd400
 7ac:	06 52 93 04 	unknown
 7b0:	53 93 04 00 	call  4e4c17b0 <__end+0xe4b4c58>
 7b4:	00 00 d4 00 	unimp  0xd400
 7b8:	00 00 dc 00 	unimp  0xdc00
 7bc:	06 59 93 04 	unknown
 7c0:	53 93 04 00 	call  4e4c17c0 <__end+0xe4b4c68>
 7c4:	00 00 dc 00 	unimp  0xdc00
 7c8:	00 00 e4 00 	unimp  0xe400
 7cc:	06 54 93 04 	unknown
 7d0:	53 93 04 00 	call  4e4c17d0 <__end+0xe4b4c78>
 7d4:	00 00 f0 00 	unimp  0xf000
 7d8:	00 01 08 00 	unimp  0x10800
 7dc:	06 59 93 04 	unknown
 7e0:	54 93 04 00 	call  524c17e0 <__end+0x124b4c88>
 7e4:	00 01 08 00 	unimp  0x10800
 7e8:	00 01 34 00 	unimp  0x13400
 7ec:	06 52 93 04 	unknown
 7f0:	53 93 04 00 	call  4e4c17f0 <__end+0xe4b4c98>
 7f4:	00 01 34 00 	unimp  0x13400
 7f8:	00 01 3c 00 	unimp  0x13c00
 7fc:	06 59 93 04 	unknown
 800:	53 93 04 00 	call  4e4c1800 <__end+0xe4b4ca8>
 804:	00 01 3c 00 	unimp  0x13c00
 808:	00 01 44 00 	unimp  0x14400
 80c:	06 54 93 04 	unknown
 810:	53 93 04 00 	call  4e4c1810 <__end+0xe4b4cb8>
 814:	00 01 50 00 	unimp  0x15000
 818:	00 01 68 00 	unimp  0x16800
 81c:	06 59 93 04 	unknown
 820:	54 93 04 00 	call  524c1820 <__end+0x124b4cc8>
 824:	00 01 68 00 	unimp  0x16800
 828:	00 01 88 00 	unimp  0x18800
 82c:	06 52 93 04 	unknown
 830:	53 93 04 00 	call  4e4c1830 <__end+0xe4b4cd8>
 834:	00 01 94 00 	unimp  0x19400
 838:	00 01 a4 00 	unimp  0x1a400
 83c:	06 52 93 04 	unknown
 840:	53 93 04 00 	call  4e4c1840 <__end+0xe4b4ce8>
 844:	00 01 b0 00 	unimp  0x1b000
 848:	00 01 b4 00 	unimp  0x1b400
 84c:	06 54 93 04 	unknown
 850:	53 93 04 00 	call  4e4c1850 <__end+0xe4b4cf8>
 854:	00 01 b4 00 	unimp  0x1b400
 858:	00 01 c0 00 	unimp  0x1c000
 85c:	06 54 93 04 	unknown
 860:	51 93 04 00 	call  464c1860 <__end+0x64b4d08>
 864:	00 01 d8 00 	unimp  0x1d800
 868:	00 01 f4 00 	unimp  0x1f400
 86c:	06 52 93 04 	unknown
 870:	53 93 04 00 	call  4e4c1870 <__end+0xe4b4d18>
 874:	00 01 f4 00 	unimp  0x1f400
 878:	00 02 0c 00 	unimp  0x20c00
 87c:	06 59 93 04 	unknown
 880:	54 93 04 00 	call  524c1880 <__end+0x124b4d28>
 884:	00 00 00 00 	unimp  0
 888:	00 00 00 00 	unimp  0
 88c:	00 00 8c 00 	unimp  0x8c00
 890:	00 01 88 00 	unimp  0x18800
 894:	06 5a 93 04 	unknown
 898:	5b 93 04 00 	call  6e4c1898 <__end+0x2e4b4d40>
 89c:	00 01 94 00 	unimp  0x19400
 8a0:	00 01 c0 00 	unimp  0x1c000
 8a4:	06 5a 93 04 	unknown
 8a8:	5b 93 04 00 	call  6e4c18a8 <__end+0x2e4b4d50>
 8ac:	00 01 d8 00 	unimp  0x1d800
 8b0:	00 02 0c 00 	unimp  0x20c00
 8b4:	06 5a 93 04 	unknown
 8b8:	5b 93 04 00 	call  6e4c18b8 <__end+0x2e4b4d60>
 8bc:	00 00 00 00 	unimp  0
 8c0:	00 00 00 00 	unimp  0
 8c4:	00 00 b8 00 	unimp  0xb800
 8c8:	00 01 94 00 	unimp  0x19400
 8cc:	06 62 93 04 	unknown
 8d0:	63 93 04 00 	call  8e4c18d0 <__end+0x4e4b4d78>
 8d4:	00 01 d8 00 	unimp  0x1d800
 8d8:	00 02 0c 00 	unimp  0x20c00
 8dc:	06 62 93 04 	unknown
 8e0:	63 93 04 00 	call  8e4c18e0 <__end+0x4e4b4d88>
 8e4:	00 00 00 00 	unimp  0
	...
 8f0:	00 00 04 00 	unimp  0x400
 8f4:	01 5e 00 00 	unknown
 8f8:	00 04 00 00 	unimp  0x40000
 8fc:	00 64 00 01 	unknown
 900:	6e 00 00 00 	call  b8000900 <__end+0x77ff3da8>
 904:	00 00 00 00 	unimp  0
	...
 910:	54 00 06 68 	call  500022b0 <__end+0xfff5758>
 914:	93 04 69 93 	taddcc  %l1, 0x993, %o1
 918:	04 00 00 00 	unknown
 91c:	5c 00 00 00 	call  7000091c <__end+0x2fff3dc4>
 920:	64 00 06 68 	call  900022c0 <__end+0x4fff5768>
 924:	93 04 69 93 	taddcc  %l1, 0x993, %o1
 928:	04 00 00 00 	unknown
	...
 938:	04 00 01 5e 	unknown
 93c:	00 00 00 04 	unimp  0x4
 940:	00 00 00 64 	unimp  0x64
 944:	00 01 6e 00 	unimp  0x16e00
	...
 954:	00 00 54 00 	unimp  0x5400
 958:	06 68 93 04 	unknown
 95c:	69 93 04 00 	call  a64c195c <__end+0x664b4e04>
 960:	00 00 5c 00 	unimp  0x5c00
 964:	00 00 64 00 	unimp  0x6400
 968:	06 68 93 04 	unknown
 96c:	69 93 04 00 	call  a64c196c <__end+0x664b4e14>
 970:	00 00 00 00 	unimp  0
	...
 97c:	00 00 04 00 	unimp  0x400
 980:	01 5e 00 00 	unknown
 984:	00 04 00 00 	unimp  0x40000
 988:	00 64 00 01 	unknown
 98c:	6e 00 00 00 	call  b800098c <__end+0x77ff3e34>
 990:	00 00 00 00 	unimp  0
	...
 99c:	54 00 06 68 	call  5000233c <__end+0xfff57e4>
 9a0:	93 04 69 93 	taddcc  %l1, 0x993, %o1
 9a4:	04 00 00 00 	unknown
 9a8:	5c 00 00 00 	call  700009a8 <__end+0x2fff3e50>
 9ac:	64 00 06 68 	call  9000234c <__end+0x4fff57f4>
 9b0:	93 04 69 93 	taddcc  %l1, 0x993, %o1
 9b4:	04 00 00 00 	unknown
	...
 9c4:	04 00 01 5e 	unknown
 9c8:	00 00 00 04 	unimp  0x4
 9cc:	00 00 00 64 	unimp  0x64
 9d0:	00 01 6e 00 	unimp  0x16e00
	...
 9e0:	00 00 54 00 	unimp  0x5400
 9e4:	06 68 93 04 	unknown
 9e8:	69 93 04 00 	call  a64c19e8 <__end+0x664b4e90>
 9ec:	00 00 5c 00 	unimp  0x5c00
 9f0:	00 00 64 00 	unimp  0x6400
 9f4:	06 68 93 04 	unknown
 9f8:	69 93 04 00 	call  a64c19f8 <__end+0x664b4ea0>
 9fc:	00 00 00 00 	unimp  0
	...
 a08:	00 00 04 00 	unimp  0x400
 a0c:	01 5e 00 00 	unknown
 a10:	00 04 00 00 	unimp  0x40000
 a14:	00 64 00 01 	unknown
 a18:	6e 00 00 00 	call  b8000a18 <__end+0x77ff3ec0>
 a1c:	00 00 00 00 	unimp  0
	...
 a28:	54 00 06 68 	call  500023c8 <__end+0xfff5870>
 a2c:	93 04 69 93 	taddcc  %l1, 0x993, %o1
 a30:	04 00 00 00 	unknown
 a34:	5c 00 00 00 	call  70000a34 <__end+0x2fff3edc>
 a38:	64 00 06 68 	call  900023d8 <__end+0x4fff5880>
 a3c:	93 04 69 93 	taddcc  %l1, 0x993, %o1
 a40:	04 00 00 00 	unknown
	...
 a50:	04 00 01 5e 	unknown
 a54:	00 00 00 04 	unimp  0x4
 a58:	00 00 00 d8 	unimp  0xd8
 a5c:	00 01 6e 00 	unimp  0x16e00
	...
 a6c:	00 00 30 00 	unimp  0x3000
 a70:	01 68 00 00 	unknown
 a74:	00 38 00 00 	unimp  0xfff80000
 a78:	00 98 00 01 	bn  600a7c <_trap_table-0x3f9ff584>
 a7c:	68 00 00 00 	call  a0000a7c <__end+0x5fff3f24>
 a80:	a0 00 00 00 	add  %g0, %g0, %l0
 a84:	b8 00 01 68 	unknown
 a88:	00 00 00 c0 	unimp  0xc0
 a8c:	00 00 00 d8 	unimp  0xd8
 a90:	00 01 68 00 	unimp  0x16800
	...
 a9c:	00 00 24 00 	unimp  0x2400
 aa0:	00 00 38 00 	unimp  0x3800
 aa4:	01 60 00 00 	unknown
 aa8:	00 3c 00 00 	unimp  0xfffc0000
 aac:	00 78 00 01 	unknown
 ab0:	60 00 00 00 	call  80000ab0 <__end+0x3fff3f58>
 ab4:	a0 00 00 00 	add  %g0, %g0, %l0
 ab8:	c4 00 01 60 	ld  [ %g0 ], %g2
	...
 ac4:	00 00 00 24 	unimp  0x24
 ac8:	00 00 00 24 	unimp  0x24
 acc:	00 01 58 00 	unimp  0x15800
 ad0:	00 00 60 00 	unimp  0x6000
 ad4:	00 00 88 00 	unimp  0x8800
 ad8:	01 58 00 00 	unknown
 adc:	00 c0 00 00 	unknown
 ae0:	00 d8 00 01 	unknown
 ae4:	58 00 00 00 	call  60000ae4 <__end+0x1fff3f8c>
 ae8:	00 00 00 00 	unimp  0
	...
 af4:	04 00 01 5e 	unknown
 af8:	00 00 00 04 	unimp  0x4
 afc:	00 00 00 dc 	unimp  0xdc
 b00:	00 01 6e 00 	unimp  0x16e00
	...
 b10:	00 00 5c 00 	unimp  0x5c00
 b14:	06 68 93 04 	unknown
 b18:	69 93 04 00 	call  a64c1b18 <__end+0x664b4fc0>
 b1c:	00 00 68 00 	unimp  0x6800
 b20:	00 00 7c 00 	unimp  0x7c00
 b24:	06 68 93 04 	unknown
 b28:	69 93 04 00 	call  a64c1b28 <__end+0x664b4fd0>
 b2c:	00 00 9c 00 	unimp  0x9c00
 b30:	00 00 9c 00 	unimp  0x9c00
 b34:	06 68 93 04 	unknown
 b38:	69 93 04 00 	call  a64c1b38 <__end+0x664b4fe0>
 b3c:	00 00 a4 00 	unimp  0xa400
 b40:	00 00 a4 00 	unimp  0xa400
 b44:	06 68 93 04 	unknown
 b48:	69 93 04 00 	call  a64c1b48 <__end+0x664b4ff0>
 b4c:	00 00 d4 00 	unimp  0xd400
 b50:	00 00 d4 00 	unimp  0xd400
 b54:	06 68 93 04 	unknown
 b58:	69 93 04 00 	call  a64c1b58 <__end+0x664b5000>
 b5c:	00 00 00 00 	unimp  0
 b60:	00 00 00 00 	unimp  0
 b64:	00 00 60 00 	unimp  0x6000
 b68:	00 00 68 00 	unimp  0x6800
 b6c:	01 68 00 00 	unknown
 b70:	00 94 00 00 	bn  500b70 <_trap_table-0x3faff490>
 b74:	00 9c 00 01 	bn  700b78 <_trap_table-0x3f8ff488>
 b78:	68 00 00 00 	call  a0000b78 <__end+0x5fff4020>
 b7c:	9c 00 00 00 	add  %g0, %g0, %sp
 b80:	a4 00 01 68 	unknown
	...
 b90:	00 00 00 04 	unimp  0x4
 b94:	00 01 5e 00 	unimp  0x15e00
 b98:	00 00 04 00 	unimp  0x400
 b9c:	00 01 3c 00 	unimp  0x13c00
 ba0:	01 6e 00 00 	unknown
	...
 bb0:	00 1c 00 01 	unimp  0x1c0001
 bb4:	68 00 00 00 	call  a0000bb4 <__end+0x5fff405c>
 bb8:	78 00 00 00 	call  e0000bb8 <__end+0x9fff4060>
 bbc:	8c 00 01 68 	unknown
	...
 bc8:	00 00 00 38 	unimp  0x38
 bcc:	00 00 00 60 	unimp  0x60
 bd0:	00 01 58 00 	unimp  0x15800
 bd4:	00 00 64 00 	unimp  0x6400
 bd8:	00 00 64 00 	unimp  0x6400
 bdc:	01 58 00 00 	unknown
 be0:	00 94 00 00 	bn  500be0 <_trap_table-0x3faff420>
 be4:	01 10 00 01 	sethi  %hi(0x40000400), %g0
 be8:	58 00 00 01 	call  60000bec <__end+0x1fff4094>
 bec:	2c 00 00 01 	unknown
 bf0:	3c 00 01 58 	unknown
	...
 c00:	00 00 00 04 	unimp  0x4
 c04:	00 01 5e 00 	unimp  0x15e00
 c08:	00 00 04 00 	unimp  0x400
 c0c:	00 00 cc 00 	unimp  0xcc00
 c10:	01 6e 00 00 	unknown
	...
 c20:	00 c4 00 06 	unknown
 c24:	68 93 04 69 	call  a24c1dc8 <__end+0x624b5270>
 c28:	93 04 00 00 	taddcc  %l0, %g0, %o1
	...
 c38:	00 04 00 06 	unimp  0x40006
 c3c:	58 93 04 59 	call  624c1da0 <__end+0x224b5248>
 c40:	93 04 00 00 	taddcc  %l0, %g0, %o1
	...
 c50:	00 04 00 06 	unimp  0x40006
 c54:	5a 93 04 5b 	call  6a4c1dc0 <__end+0x2a4b5268>
 c58:	93 04 00 00 	taddcc  %l0, %g0, %o1
	...
 c68:	00 30 00 01 	unimp  0xfff00001
 c6c:	58 00 00 00 	call  60000c6c <__end+0x1fff4114>
 c70:	44 00 00 00 	call  10000c70 <_trap_table-0x2ffff390>
 c74:	60 00 01 58 	call  800011d4 <__end+0x3fff467c>
 c78:	00 00 00 00 	unimp  0
	...
 c84:	00 00 00 04 	unimp  0x4
 c88:	00 01 5e 00 	unimp  0x15e00
 c8c:	00 00 04 00 	unimp  0x400
 c90:	00 02 a8 00 	unimp  0x2a800
 c94:	01 6e 00 00 	unknown
	...
 ca4:	00 dc 00 01 	unknown
 ca8:	68 00 00 00 	call  a0000ca8 <__end+0x5fff4150>
 cac:	e8 00 00 01 	ld  [ %g0 + %g1 ], %l4
 cb0:	0c 00 01 68 	unknown
 cb4:	00 00 01 18 	unimp  0x118
 cb8:	00 00 02 a8 	unimp  0x2a8
 cbc:	00 01 68 00 	unimp  0x16800
	...
 cc8:	00 00 10 00 	unimp  0x1000
 ccc:	00 00 84 00 	unimp  0x8400
 cd0:	06 66 93 04 	unknown
 cd4:	67 93 04 00 	call  9e4c1cd4 <__end+0x5e4b517c>
 cd8:	00 00 84 00 	unimp  0x8400
 cdc:	00 00 88 00 	unimp  0x8800
 ce0:	06 52 93 04 	unknown
 ce4:	67 93 04 00 	call  9e4c1ce4 <__end+0x5e4b518c>
 ce8:	00 00 88 00 	unimp  0x8800
 cec:	00 00 94 00 	unimp  0x9400
 cf0:	06 52 93 04 	unknown
 cf4:	51 93 04 00 	call  464c1cf4 <__end+0x64b519c>
 cf8:	00 00 94 00 	unimp  0x9400
 cfc:	00 01 d4 00 	unimp  0x1d400
 d00:	06 66 93 04 	unknown
 d04:	67 93 04 00 	call  9e4c1d04 <__end+0x5e4b51ac>
 d08:	00 02 00 00 	unimp  0x20000
 d0c:	00 02 14 00 	unimp  0x21400
 d10:	06 64 93 04 	unknown
 d14:	65 93 04 00 	call  964c1d14 <__end+0x564b51bc>
 d18:	00 02 14 00 	unimp  0x21400
 d1c:	00 02 a8 00 	unimp  0x2a800
 d20:	06 64 93 04 	unknown
 d24:	65 93 04 00 	call  964c1d24 <__end+0x564b51cc>
 d28:	00 00 00 00 	unimp  0
 d2c:	00 00 00 00 	unimp  0
 d30:	00 00 50 00 	unimp  0x5000
 d34:	00 00 a8 00 	unimp  0xa800
 d38:	01 64 00 00 	unknown
 d3c:	01 18 00 00 	sethi  %hi(0x60000000), %g0
 d40:	01 38 00 01 	sethi  %hi(0xe0000400), %g0
 d44:	64 00 00 00 	call  90000d44 <__end+0x4fff41ec>
 d48:	00 00 00 00 	unimp  0
 d4c:	00 00 00 00 	unimp  0
 d50:	f8 00 00 01 	ld  [ %g0 + %g1 ], %i4
 d54:	18 00 01 64 	unknown
 d58:	00 00 01 8c 	unimp  0x18c
 d5c:	00 00 01 b8 	unimp  0x1b8
 d60:	00 01 64 00 	unimp  0x16400
 d64:	00 02 40 00 	unimp  0x24000
 d68:	00 02 64 00 	unimp  0x26400
 d6c:	01 64 00 00 	unknown
	...
 d7c:	00 04 00 01 	unimp  0x40001
 d80:	5e 00 00 00 	call  78000d80 <__end+0x37ff4228>
 d84:	04 00 00 01 	unknown
 d88:	3c 00 01 6e 	unknown
	...
 d94:	00 00 00 24 	unimp  0x24
 d98:	00 00 00 54 	unimp  0x54
 d9c:	00 06 5c 93 	unimp  0x65c93
 da0:	04 5d 93 04 	unknown
 da4:	00 00 00 54 	unimp  0x54
 da8:	00 00 00 58 	unimp  0x58
 dac:	00 06 5c 93 	unimp  0x65c93
 db0:	04 52 93 04 	unknown
 db4:	00 00 00 58 	unimp  0x58
 db8:	00 00 00 7c 	unimp  0x7c
 dbc:	00 06 51 93 	unimp  0x65193
 dc0:	04 52 93 04 	unknown
 dc4:	00 00 00 84 	unimp  0x84
 dc8:	00 00 00 a8 	unimp  0xa8
 dcc:	00 06 51 93 	unimp  0x65193
 dd0:	04 52 93 04 	unknown
 dd4:	00 00 00 a8 	unimp  0xa8
 dd8:	00 00 00 d0 	unimp  0xd0
 ddc:	00 06 5c 93 	unimp  0x65c93
 de0:	04 5d 93 04 	unknown
 de4:	00 00 00 ec 	unimp  0xec
 de8:	00 00 01 3c 	unimp  0x13c
 dec:	00 06 5c 93 	unimp  0x65c93
 df0:	04 5d 93 04 	unknown
	...
 dfc:	00 00 00 2c 	unimp  0x2c
 e00:	00 00 00 54 	unimp  0x54
 e04:	00 01 52 00 	unimp  0x15200
 e08:	00 00 a8 00 	unimp  0xa800
 e0c:	00 00 b4 00 	unimp  0xb400
 e10:	01 52 00 00 	unknown
 e14:	00 ec 00 00 	unknown
 e18:	01 08 00 01 	sethi  %hi(0x20000400), %g0
 e1c:	52 00 00 01 	call  48000e20 <__end+0x7ff42c8>
 e20:	2c 00 00 01 	unknown
 e24:	3c 00 01 52 	unknown
	...
 e34:	00 00 00 04 	unimp  0x4
 e38:	00 01 5e 00 	unimp  0x15e00
 e3c:	00 00 04 00 	unimp  0x400
 e40:	00 01 38 00 	unimp  0x13800
 e44:	01 6e 00 00 	unknown
	...
 e54:	00 60 00 01 	unknown
 e58:	68 00 00 00 	call  a0000e58 <__end+0x5fff4300>
 e5c:	68 00 00 00 	call  a0000e5c <__end+0x5fff4304>
 e60:	80 00 01 68 	unknown
 e64:	00 00 00 88 	unimp  0x88
 e68:	00 00 00 94 	unimp  0x94
 e6c:	00 01 68 00 	unimp  0x16800
 e70:	00 00 9c 00 	unimp  0x9c00
 e74:	00 01 08 00 	unimp  0x10800
 e78:	01 68 00 00 	unknown
 e7c:	01 10 00 00 	sethi  %hi(0x40000000), %g0
 e80:	01 30 00 01 	sethi  %hi(0xc0000400), %g0
 e84:	68 00 00 00 	call  a0000e84 <__end+0x5fff432c>
 e88:	00 00 00 00 	unimp  0
	...
 e94:	20 00 06 58 	unknown
 e98:	93 04 59 93 	unknown
 e9c:	04 00 00 00 	unknown
 ea0:	2c 00 00 00 	unknown
 ea4:	2c 00 06 58 	unknown
 ea8:	93 04 59 93 	unknown
 eac:	04 00 00 00 	unknown
 eb0:	34 00 00 00 	unknown
 eb4:	38 00 06 58 	unknown
 eb8:	93 04 59 93 	unknown
 ebc:	04 00 00 00 	unknown
	...
 ec8:	10 00 00 00 	unknown
 ecc:	20 00 01 51 	unknown
 ed0:	00 00 00 34 	unimp  0x34
 ed4:	00 00 00 40 	unimp  0x40
 ed8:	00 01 51 00 	unimp  0x15100
	...
 ee4:	00 00 2c 00 	unimp  0x2c00
 ee8:	00 00 2c 00 	unimp  0x2c00
 eec:	06 58 93 04 	unknown
 ef0:	59 93 04 00 	call  664c1ef0 <__end+0x264b5398>
 ef4:	00 00 38 00 	unimp  0x3800
 ef8:	00 00 40 00 	unimp  0x4000
 efc:	06 58 93 04 	unknown
 f00:	59 93 04 00 	call  664c1f00 <__end+0x264b53a8>
 f04:	00 00 00 00 	unimp  0
	...
 f10:	00 00 24 00 	unimp  0x2400
 f14:	06 58 93 04 	unknown
 f18:	59 93 04 00 	call  664c1f18 <__end+0x264b53c0>
 f1c:	00 00 2c 00 	unimp  0x2c00
 f20:	00 00 2c 00 	unimp  0x2c00
 f24:	06 58 93 04 	unknown
 f28:	59 93 04 00 	call  664c1f28 <__end+0x264b53d0>
 f2c:	00 00 34 00 	unimp  0x3400
 f30:	00 00 34 00 	unimp  0x3400
 f34:	06 58 93 04 	unknown
 f38:	59 93 04 00 	call  664c1f38 <__end+0x264b53e0>
 f3c:	00 00 00 00 	unimp  0
 f40:	00 00 00 00 	unimp  0
 f44:	00 00 10 00 	unimp  0x1000
 f48:	00 00 20 00 	unimp  0x2000
 f4c:	01 51 00 00 	unknown
 f50:	00 34 00 00 	unimp  0xfff40000
 f54:	00 40 00 01 	unknown
 f58:	51 00 00 00 	call  44000f58 <__end+0x3ff4400>
 f5c:	00 00 00 00 	unimp  0
 f60:	00 00 00 00 	unimp  0
 f64:	2c 00 00 00 	unknown
 f68:	2c 00 06 58 	unknown
 f6c:	93 04 59 93 	unknown
 f70:	04 00 00 00 	unknown
 f74:	38 00 00 00 	unknown
 f78:	40 00 06 58 	call  28d8 <_trap_table-0x3fffd728>
 f7c:	93 04 59 93 	unknown
 f80:	04 00 00 00 	unknown
 f84:	00 00 00 00 	unimp  0
	...

Disassembly of section .debug_ranges:

00000000 <.debug_ranges>:
   0:	ff ff ff ff 	unknown
   4:	00 00 00 00 	unimp  0
   8:	40 00 bc 20 	call  2f088 <_trap_table-0x3ffd0f78>
   c:	40 00 bc 24 	call  2f09c <_trap_table-0x3ffd0f64>
  10:	40 00 bc 3c 	call  2f100 <_trap_table-0x3ffd0f00>
  14:	40 00 bc 40 	call  2f114 <_trap_table-0x3ffd0eec>
  18:	00 00 00 00 	unimp  0
  1c:	00 00 00 00 	unimp  0
  20:	00 00 00 44 	unimp  0x44
  24:	00 00 00 cc 	unimp  0xcc
  28:	00 00 03 74 	unimp  0x374
  2c:	00 00 03 a0 	unimp  0x3a0
  30:	00 00 02 ec 	unimp  0x2ec
  34:	00 00 03 64 	unimp  0x364
  38:	00 00 02 84 	unimp  0x284
  3c:	00 00 02 a8 	unimp  0x2a8
  40:	00 00 01 20 	unimp  0x120
  44:	00 00 01 38 	unimp  0x138
  48:	00 00 00 d0 	unimp  0xd0
  4c:	00 00 00 d4 	unimp  0xd4
	...
  58:	00 00 00 2c 	unimp  0x2c
  5c:	00 00 01 e8 	unimp  0x1e8
  60:	00 00 03 50 	unimp  0x350
  64:	00 00 03 64 	unimp  0x364
  68:	00 00 02 e8 	unimp  0x2e8
  6c:	00 00 03 3c 	unimp  0x33c
  70:	00 00 01 fc 	unimp  0x1fc
  74:	00 00 02 d4 	unimp  0x2d4
	...
  80:	00 00 00 2c 	unimp  0x2c
  84:	00 00 01 e8 	unimp  0x1e8
  88:	00 00 03 50 	unimp  0x350
  8c:	00 00 03 64 	unimp  0x364
  90:	00 00 02 e8 	unimp  0x2e8
  94:	00 00 03 3c 	unimp  0x33c
  98:	00 00 01 fc 	unimp  0x1fc
  9c:	00 00 02 d4 	unimp  0x2d4
	...
  a8:	00 00 00 68 	unimp  0x68
  ac:	00 00 01 14 	unimp  0x114
  b0:	00 00 03 50 	unimp  0x350
  b4:	00 00 03 64 	unimp  0x364
  b8:	00 00 02 94 	unimp  0x294
  bc:	00 00 02 ac 	unimp  0x2ac
  c0:	00 00 01 fc 	unimp  0x1fc
  c4:	00 00 02 2c 	unimp  0x22c
  c8:	00 00 01 30 	unimp  0x130
  cc:	00 00 01 40 	unimp  0x140
  d0:	00 00 01 28 	unimp  0x128
  d4:	00 00 01 2c 	unimp  0x12c
	...
  e0:	00 00 00 2c 	unimp  0x2c
  e4:	00 00 01 80 	unimp  0x180
  e8:	00 00 02 28 	unimp  0x228
  ec:	00 00 02 3c 	unimp  0x23c
  f0:	00 00 01 94 	unimp  0x194
  f4:	00 00 02 14 	unimp  0x214
	...
 100:	00 00 00 2c 	unimp  0x2c
 104:	00 00 01 80 	unimp  0x180
 108:	00 00 02 28 	unimp  0x228
 10c:	00 00 02 3c 	unimp  0x23c
 110:	00 00 01 94 	unimp  0x194
 114:	00 00 02 14 	unimp  0x214
	...
 120:	00 00 00 38 	unimp  0x38
 124:	00 00 00 8c 	unimp  0x8c
 128:	00 00 00 a0 	unimp  0xa0
 12c:	00 00 00 d8 	unimp  0xd8
	...
 138:	00 00 00 10 	unimp  0x10
 13c:	00 00 00 64 	unimp  0x64
 140:	00 00 01 2c 	unimp  0x12c
 144:	00 00 01 3c 	unimp  0x13c
 148:	00 00 00 94 	unimp  0x94
 14c:	00 00 01 18 	unimp  0x118
	...
 158:	00 00 00 ac 	unimp  0xac
 15c:	00 00 01 18 	unimp  0x118
 160:	00 00 01 2c 	unimp  0x12c
 164:	00 00 01 3c 	unimp  0x13c
	...
 170:	00 00 00 10 	unimp  0x10
 174:	00 00 00 14 	unimp  0x14
 178:	00 00 00 2c 	unimp  0x2c
 17c:	00 00 00 34 	unimp  0x34
	...
 18c:	00 00 00 3c 	unimp  0x3c
 190:	00 00 00 44 	unimp  0x44
 194:	00 00 00 70 	unimp  0x70
	...
 1a0:	ff ff ff ff 	unknown
 1a4:	00 00 00 00 	unimp  0
 1a8:	40 00 bc 34 	call  2f278 <_trap_table-0x3ffd0d88>
 1ac:	40 00 bc 3c 	call  2f29c <_trap_table-0x3ffd0d64>
 1b0:	40 00 bc 48 	call  2f2d0 <_trap_table-0x3ffd0d30>
 1b4:	40 00 bc 50 	call  2f2f4 <_trap_table-0x3ffd0d0c>
 1b8:	00 00 00 00 	unimp  0
 1bc:	00 00 00 00 	unimp  0

Disassembly of section .stab.index:

00000000 <.stab.index>:
   0:	00 00 00 01 	unimp  0x1
   4:	00 00 00 05 	unimp  0x5
   8:	00 00 00 40 	unimp  0x40
   c:	00 00 00 0e 	unimp  0xe
  10:	64 00 00 00 	call  90000010 <__end+0x4fff34b8>
  14:	00 00 00 00 	unimp  0
  18:	00 00 00 28 	unimp  0x28
  1c:	64 00 00 03 	call  90000028 <__end+0x4fff34d0>
  20:	00 00 00 00 	unimp  0
  24:	00 00 00 00 	unimp  0
  28:	38 00 00 00 	unknown
	...
  34:	38 00 00 00 	unknown
  38:	00 00 00 00 	unimp  0
  3c:	00 00 00 35 	unimp  0x35
  40:	3c 00 00 00 	unknown
  44:	00 00 00 00 	unimp  0

Disassembly of section .stab.indexstr:

00000000 <.stab.indexstr>:
   0:	00 74 65 73 	unknown
   4:	74 61 6e 64 	call  d185b994 <__end+0x9184ee3c>
   8:	73 65 74 2e 	call  cd95d0c0 <__end+0x8d950568>
   c:	73 00 2f 61 	call  cc00bd90 <__end+0x8bfff238>
  10:	63 63 74 2f 	call  8d8dd0cc <__end+0x4d8d0574>
  14:	77 61 79 6e 	call  dd85e5cc <__end+0x9d851a74>
  18:	65 2f 63 70 	call  94bd8dd8 <__end+0x54bcc280>
  1c:	73 63 38 32 	call  cd8ce0e4 <__end+0x8d8c158c>
  20:	33 2f 6c 6f 	sethi  %hi(0xbdb1bc00), %i1
  24:	63 6b 2f 00 	call  8dacbc24 <__end+0x4dabf0cc>
  28:	74 65 73 74 	call  d195cdf8 <__end+0x919502a0>
  2c:	61 6e 64 73 	call  85b991f8 <__end+0x45b8c6a0>
  30:	65 74 2e 63 	call  95d0b9bc <__end+0x55cfee64>
  34:	00 58 74 20 	unknown
  38:	3b 20 56 3d 	sethi  %hi(0x8158f400), %i5
  3c:	32 2e 30 00 	unknown
